

Microchip MPLAB XC8 Assembler V2.40 build 20220703182018 
                                                                                               Fri Feb 02 16:07:19 2024

Microchip MPLAB XC8 C Compiler v2.40 (Free license) build 20220703182018 Og1 
     1                           	processor	18F57Q43
     2                           	fnconf	rparam,??,?,0
     3                           	pagewidth 120
     4                           	opt	flic
     5                           	psect	smallconst,global,reloc=2,class=SMALLCONST,delta=1,noexec
     6                           	psect	nvBANK5,global,class=BANK5,space=1,delta=1,lowdata,noexec
     7                           	psect	cinit,global,reloc=2,class=CODE,delta=1
     8                           	psect	bssCOMRAM,global,class=COMRAM,space=1,delta=1,lowdata,noexec
     9                           	psect	bssBANK5,global,class=BANK5,space=1,delta=1,lowdata,noexec
    10                           	psect	cstackBANK6,global,class=BANK6,space=1,delta=1,lowdata,noexec
    11                           	psect	cstackBANK5,global,class=BANK5,space=1,delta=1,lowdata,noexec
    12                           	psect	cstackCOMRAM,global,class=COMRAM,space=1,delta=1,lowdata,noexec
    13                           	psect	text0,global,reloc=2,class=CODE,delta=1
    14                           	psect	text1,global,reloc=2,class=CODE,delta=1
    15                           	psect	text2,global,reloc=2,class=CODE,delta=1
    16                           	psect	text3,global,reloc=2,class=CODE,delta=1
    17                           	psect	text4,global,reloc=2,class=CODE,delta=1
    18                           	psect	text5,global,reloc=2,class=CODE,delta=1
    19                           	psect	text6,global,reloc=2,class=CODE,delta=1,group=2
    20                           	psect	text7,global,reloc=2,class=CODE,delta=1,group=2
    21                           	psect	text8,global,reloc=2,class=CODE,delta=1,group=2
    22                           	psect	text9,global,reloc=2,class=CODE,delta=1,group=1
    23                           	psect	text10,global,reloc=2,class=CODE,delta=1,group=2
    24                           	psect	text11,global,reloc=2,class=CODE,delta=1,group=1
    25                           	psect	text12,global,reloc=2,class=CODE,delta=1,group=2
    26                           	psect	text13,global,reloc=2,class=CODE,delta=1,group=1
    27                           	psect	text14,global,reloc=2,class=CODE,delta=1,group=1
    28                           	psect	text15,global,reloc=2,class=CODE,delta=1,group=1
    29                           	psect	text16,global,reloc=2,class=CODE,delta=1,group=1
    30                           	psect	text17,global,reloc=2,class=CODE,delta=1,group=1
    31                           	psect	text18,global,reloc=2,class=CODE,delta=1,group=1
    32                           	psect	text19,global,reloc=2,class=CODE,delta=1
    33                           	psect	text20,global,reloc=2,class=CODE,delta=1
    34                           	psect	text21,global,reloc=2,class=CODE,delta=1
    35                           	psect	text22,global,reloc=2,class=CODE,delta=1
    36                           	psect	text23,global,reloc=2,class=CODE,delta=1
    37                           	psect	text24,global,reloc=2,class=CODE,delta=1
    38                           	psect	text25,global,reloc=2,class=CODE,delta=1
    39                           	psect	text26,global,reloc=2,class=CODE,delta=1
    40                           	psect	text27,global,reloc=2,class=CODE,delta=1
    41                           	psect	text28,global,reloc=2,class=CODE,delta=1
    42                           	psect	ivt0x8,global,reloc=2,class=CODE,delta=1,noexec,keep,optim=
    43                           	psect	intsave_regs,global,class=BIGRAM,space=1,delta=1,noexec
    44                           	psect	text29,global,reloc=2,class=CODE,delta=1
    45                           	psect	rparam,global,class=COMRAM,space=1,delta=1,noexec
    46                           	psect	config,global,abs,ovrld,class=CONFIG,space=4,delta=1,noexec
    47   000000                     
    48                           ; Generated 18/07/2023 GMT
    49                           ; 
    50                           ; Copyright © 2023, Microchip Technology Inc. and its subsidiaries ("Microchip")
    51                           ; All rights reserved.
    52                           ; 
    53                           ; This software is developed by Microchip Technology Inc. and its subsidiaries ("Microch
      +                          ip").
    54                           ; 
    55                           ; Redistribution and use in source and binary forms, with or without modification, are
    56                           ; permitted provided that the following conditions are met:
    57                           ; 
    58                           ;     1. Redistributions of source code must retain the above copyright notice, this lis
      +                          t of
    59                           ;        conditions and the following disclaimer.
    60                           ; 
    61                           ;     2. Redistributions in binary form must reproduce the above copyright notice, this 
      +                          list
    62                           ;        of conditions and the following disclaimer in the documentation and/or other
    63                           ;        materials provided with the distribution. Publication is not required when
    64                           ;        this file is used in an embedded application.
    65                           ; 
    66                           ;     3. Microchip's name may not be used to endorse or promote products derived from th
      +                          is
    67                           ;        software without specific prior written permission.
    68                           ; 
    69                           ; THIS SOFTWARE IS PROVIDED BY MICROCHIP "AS IS" AND ANY EXPRESS OR IMPLIED WARRANTIES,
    70                           ; INCLUDING, BUT NOT LIMITED TO, THE IMPLIED WARRANTIES OF MERCHANTABILITY AND FITNESS F
      +                          OR
    71                           ; PURPOSE ARE DISCLAIMED.  IN NO EVENT SHALL MICROCHIP BE LIABLE FOR ANY DIRECT, INDIREC
      +                          T,
    72                           ; INCIDENTAL, SPECIAL, EXEMPLARY, OR CONSEQUENTIAL DAMAGES (INCLUDING BUT NOT LIMITED TO
    73                           ; PROCUREMENT OF SUBSTITUTE GOODS OR SERVICES; LOSS OF USE, DATA OR PROFITS; OR BUSINESS
    74                           ; INTERRUPTION) HOWSOEVER CAUSED AND ON ANY THEORY OF LIABILITY, WHETHER IN CONTRACT, ST
      +                          RICT
    75                           ; LIABILITY, OR TORT (INCLUDING NEGLIGENCE OR OTHERWISE) ARISING IN ANY WAY OUT OF THE U
      +                          SE OF
    76                           ; THIS SOFTWARE, EVEN IF ADVISED OF THE POSSIBILITY OF SUCH DAMAGE.
    77                           ; 
    78                           ; 
    79                           ; Code-generator required, PIC18F57Q43 Definitions
    80                           ; 
    81                           ; SFR Addresses
    82   000000                     
    83 ;; Function _SPI1_BufferExchange is unused but had its address taken
    84   000000                     
    85 ;; Function _SPI1_BufferWrite is unused but had its address taken
    86   000000                     
    87 ;; Function _SPI1_BufferRead is unused but had its address taken
    88   000000                     
    89 ;; Function _SPI1_ByteWrite is unused but had its address taken
    90   000000                     
    91 ;; Function _SPI1_ByteRead is unused but had its address taken
    92   000000                     
    93 ;; Function _INT0_DefaultInterruptHandler is unused but had its address taken
    94   000000                     
    95 ;; Function _INT1_DefaultInterruptHandler is unused but had its address taken
    96   000000                     
    97 ;; Function _INT2_DefaultInterruptHandler is unused but had its address taken
    98   000000                     
    99                           	psect	smallconst
   100   002600                     __psmallconst:
   101                           	callstack 0
   102   002600  00                 	db	0
   103   002601                     _SPI1:
   104                           	callstack 0
   105   002601  EE                 	db	low _SPI1_Initialize
   106   002602  6B                 	db	high _SPI1_Initialize
   107   002603  00                 	db	low (_SPI1_Initialize shr (0+16))
   108   002604  44                 	db	low _SPI1_Close
   109   002605  6C                 	db	high _SPI1_Close
   110   002606  00                 	db	low (_SPI1_Close shr (0+16))
   111   002607  F0                 	db	low _SPI1_Open
   112   002608  68                 	db	high _SPI1_Open
   113   002609  00                 	db	low (_SPI1_Open shr (0+16))
   114   00260A  00                 	db	0
   115   00260B  00                 	db	0
   116   00260C  00                 	db	0
   117   00260D  00                 	db	0
   118   00260E  00                 	db	0
   119   00260F  00                 	db	0
   120   002610  00                 	db	0
   121   002611  00                 	db	0
   122   002612  00                 	db	0
   123   002613  B2                 	db	low _SPI1_ByteExchange
   124   002614  6B                 	db	high _SPI1_ByteExchange
   125   002615  00                 	db	low (_SPI1_ByteExchange shr (0+16))
   126   002616  00                 	db	0
   127   002617  00                 	db	0
   128   002618  00                 	db	0
   129   002619  00                 	db	0
   130   00261A  00                 	db	0
   131   00261B  00                 	db	0
   132   00261C                     __end_of_SPI1:
   133                           	callstack 0
   134   00261C                     _dp_l:
   135                           	callstack 0
   136   00261C  0000               	dw	0
   137   00261E  0000               	dw	0
   138   002620  CFDC               	dw	53212
   139   002622  35D1               	dw	13777
   140   002624                     __end_of_dp_l:
   141                           	callstack 0
   142   002624                     _dp_h:
   143                           	callstack 0
   144   002624  0000               	dw	0
   145   002626  0000               	dw	0
   146   002628  C000               	dw	49152
   147   00262A  3F15               	dw	16149
   148   00262C                     __end_of_dp_h:
   149                           	callstack 0
   150   00262C                     _spi1_configuration:
   151                           	callstack 0
   152   00262C  02                 	db	2
   153   00262D  40                 	db	64
   154   00262E  00                 	db	0
   155   00262F  0F                 	db	15
   156   002630  00                 	db	0
   157   002631                     __end_of_spi1_configuration:
   158                           	callstack 0
   159   002631  4260               	dw	16992
   160   002633  0DA2               	dw	3490
   161   002635                     __end_of_tiny@sqrtf$F1299:
   162                           	callstack 0
   163   002635  A570               	dw	42352
   164   002637  36EC               	dw	14060
   165   002639                     __end_of_ivln2_l:
   166                           	callstack 0
   167   002639  AA3B               	dw	43579
   168   00263B  3FB8               	dw	16312
   169   00263D                     __end_of_ivln2:
   170                           	callstack 0
   171   00263D  384F               	dw	14415
   172   00263F  3F76               	dw	16246
   173   002641                     __end_of_cp:
   174                           	callstack 0
   175   002641  AA3C               	dw	43580
   176   002643  3338               	dw	13112
   177   002645                     __end_of_ovt:
   178                           	callstack 0
   179   002645  BE8C               	dw	48780
   180   002647  35BF               	dw	13759
   181   002649                     __end_of_lg2_l:
   182                           	callstack 0
   183   002649  7200               	dw	29184
   184   00264B  3F31               	dw	16177
   185   00264D                     __end_of_lg2_h:
   186                           	callstack 0
   187   00264D  7218               	dw	29208
   188   00264F  3F31               	dw	16177
   189   002651                     __end_of_lg2:
   190                           	callstack 0
   191   002651  BB4C               	dw	47948
   192   002653  3331               	dw	13105
   193   002655                     __end_of_P5:
   194                           	callstack 0
   195   002655  EA0E               	dw	59918
   196   002657  B5DD               	dw	46557
   197   002659                     __end_of_P4:
   198                           	callstack 0
   199   002659  B355               	dw	45909
   200   00265B  388A               	dw	14474
   201   00265D                     __end_of_P3:
   202                           	callstack 0
   203   00265D  0B61               	dw	2913
   204   00265F  BB36               	dw	47926
   205   002661                     __end_of_P2:
   206                           	callstack 0
   207   002661  AAAB               	dw	43691
   208   002663  3E2A               	dw	15914
   209   002665                     __end_of_P1:
   210                           	callstack 0
   211   002665  F142               	dw	61762
   212   002667  3E53               	dw	15955
   213   002669                     __end_of_L6:
   214                           	callstack 0
   215   002669  3255               	dw	12885
   216   00266B  3E6C               	dw	15980
   217   00266D                     __end_of_L5:
   218                           	callstack 0
   219   00266D  A305               	dw	41733
   220   00266F  3E8B               	dw	16011
   221   002671                     __end_of_L4:
   222                           	callstack 0
   223   002671  AAAB               	dw	43691
   224   002673  3EAA               	dw	16042
   225   002675                     __end_of_L3:
   226                           	callstack 0
   227   002675  6DB7               	dw	28087
   228   002677  3EDB               	dw	16091
   229   002679                     __end_of_L2:
   230                           	callstack 0
   231   002679  999A               	dw	39322
   232   00267B  3F19               	dw	16153
   233   00267D                     __end_of_L1:
   234                           	callstack 0
   235   00267D  4260               	dw	16992
   236   00267F  0DA2               	dw	3490
   237   002681                     __end_of_tiny:
   238                           	callstack 0
   239   002681  F2CA               	dw	62154
   240   002683  7149               	dw	29001
   241   002685                     __end_of_huge:
   242                           	callstack 0
   243   002685  0000               	dw	0
   244   002687  4B80               	dw	19328
   245   002689                     __end_of_two24:
   246                           	callstack 0
   247   002689                     _bp:
   248                           	callstack 0
   249   002689  0000               	dw	0
   250   00268B  3F80               	dw	16256
   251   00268D  0000               	dw	0
   252   00268F  3FC0               	dw	16320
   253   002691                     __end_of_bp:
   254                           	callstack 0
   255   002691  AA00               	dw	43520
   256   002693  3FB8               	dw	16312
   257   002695                     __end_of_ivln2_h:
   258                           	callstack 0
   259   002695  23C6               	dw	9158
   260   002697  B8F6               	dw	47350
   261   002699                     __end_of_cp_l:
   262                           	callstack 0
   263   002699  4000               	dw	16384
   264   00269B  3F76               	dw	16246
   265   00269D                     __end_of_cp_h:
   266                           	callstack 0
   267   000000                     _OSCTUNE	set	176
   268   000000                     _OSCFRQ	set	177
   269   000000                     _OSCEN	set	179
   270   000000                     _IOCEF	set	1063
   271   000000                     _IOCEN	set	1062
   272   000000                     _IOCEP	set	1061
   273   000000                     _IOCCF	set	1047
   274   000000                     _IOCCN	set	1046
   275   000000                     _IOCCP	set	1045
   276   000000                     _IOCBF	set	1039
   277   000000                     _IOCBN	set	1038
   278   000000                     _IOCBP	set	1037
   279   000000                     _IOCAF	set	1031
   280   000000                     _IOCAN	set	1030
   281   000000                     _IOCAP	set	1029
   282   000000                     _INLVLE	set	1060
   283   000000                     _INLVLC	set	1044
   284   000000                     _INLVLB	set	1036
   285   000000                     _INLVLA	set	1028
   286   000000                     _SLRCONE	set	1059
   287   000000                     _SLRCONC	set	1043
   288   000000                     _SLRCONB	set	1035
   289   000000                     _SLRCONA	set	1027
   290   000000                     _ODCONE	set	1058
   291   000000                     _ODCONC	set	1042
   292   000000                     _ODCONB	set	1034
   293   000000                     _ODCONA	set	1026
   294   000000                     _WPUE	set	1057
   295   000000                     _WPUC	set	1041
   296   000000                     _WPUB	set	1033
   297   000000                     _WPUA	set	1025
   298   000000                     _ANSELF	set	1064
   299   000000                     _ANSELD	set	1048
   300   000000                     _ANSELC	set	1040
   301   000000                     _ANSELB	set	1032
   302   000000                     _TRISB	set	1223
   303   00269D                     STR_1:
   304   00269D  00                 	db	0
   305   00269E  00                 	db	0	; dummy byte at the end
   306   000000                     
   307                           	psect	nvBANK5
   308   000597                     __pnvBANK5:
   309                           	callstack 0
   310   000597                     _INT2_InterruptHandler:
   311                           	callstack 0
   312   000597                     	ds	3
   313   00059A                     _INT1_InterruptHandler:
   314                           	callstack 0
   315   00059A                     	ds	3
   316   00059D                     _INT0_InterruptHandler:
   317                           	callstack 0
   318   00059D                     	ds	3
   319   000000                     _SPI1CON0bits	set	132
   320   000000                     _TRISBbits	set	1223
   321   000000                     _LATDbits	set	1217
   322   000000                     _TRISC	set	1224
   323   000000                     _SPI1RXB	set	128
   324   000000                     _SPI1TXB	set	129
   325   000000                     _SPI1TCNTL	set	130
   326   000000                     _SPI1CON0	set	132
   327   000000                     _SPI1CON1	set	133
   328   000000                     _SPI1BAUD	set	137
   329   000000                     _SPI1CLK	set	140
   330   000000                     _SPI1CON2	set	134
   331   000000                     _ACTCON	set	172
   332   000000                     _OSCCON1	set	173
   333   000000                     _RC3PPS	set	532
   334   000000                     _RC5PPS	set	534
   335   000000                     _SPI1SDIPPS	set	619
   336   000000                     _RC4I2C	set	646
   337   000000                     _RC3I2C	set	647
   338   000000                     _RB2I2C	set	648
   339   000000                     _RB1I2C	set	649
   340   000000                     _ANSELA	set	1024
   341   000000                     _PIR3bits	set	1201
   342   000000                     _TRISCbits	set	1224
   343   000000                     _PORTBbits	set	1231
   344   000000                     _INTCON0bits	set	1238
   345   000000                     _TRISF	set	1227
   346   000000                     _TRISE	set	1226
   347   000000                     _TRISD	set	1225
   348   000000                     _PIR6bits	set	1204
   349   000000                     _LATA	set	1214
   350   000000                     _TRISA	set	1222
   351   000000                     _LATF	set	1219
   352   000000                     _LATE	set	1218
   353   000000                     _LATD	set	1217
   354   000000                     _LATC	set	1216
   355   000000                     _LATB	set	1215
   356   000000                     _INLVLD	set	1052
   357   000000                     _SLRCOND	set	1051
   358   000000                     _ODCOND	set	1050
   359   000000                     _WPUD	set	1049
   360   000000                     _ANSELE	set	1056
   361   000000                     _PIE0bits	set	1182
   362   000000                     _PIR1bits	set	1199
   363   000000                     _INLVLF	set	1068
   364   000000                     _SLRCONF	set	1067
   365   000000                     _ODCONF	set	1066
   366   000000                     _WPUF	set	1065
   367   000000                     _SPI1SCKPPS	set	618
   368   000000                     _PIR10bits	set	1208
   369   000000                     _PIR0bits	set	1198
   370   000000                     _OSCCON3	set	175
   371                           
   372                           ; #config settings
   373                           
   374                           	psect	cinit
   375   006B4C                     __pcinit:
   376                           	callstack 0
   377   006B4C                     start_initialization:
   378                           	callstack 0
   379   006B4C                     __initialization:
   380                           	callstack 0
   381                           
   382                           ; Clear objects allocated to BANK5 (4 bytes)
   383   006B4C  0105               	movlb	5
   384   006B4E  6BA3               	clrf	(__pbssBANK5+3)& (0+255),b
   385   006B50  6BA2               	clrf	(__pbssBANK5+2)& (0+255),b
   386   006B52  6BA1               	clrf	(__pbssBANK5+1)& (0+255),b
   387   006B54  6BA0               	clrf	__pbssBANK5& (0+255),b
   388                           
   389                           ; Clear objects allocated to COMRAM (2 bytes)
   390   006B56  6A5E               	clrf	(__pbssCOMRAM+1)& (0+255),c
   391   006B58  6A5D               	clrf	__pbssCOMRAM& (0+255),c
   392                           
   393                           ;
   394                           ; Setup IVTBASE
   395                           ;
   396   006B5A  0104               	movlb	4
   397   006B5C  0E08               	movlw	(ivt0x8_base shr 0)& (0+255)
   398   006B5E  6F5D               	movwf	93,b
   399   006B60  0E00               	movlw	(ivt0x8_base shr (0+8))& (0+255)
   400   006B62  6F5E               	movwf	94,b
   401   006B64  0E00               	movlw	(ivt0x8_base shr (0+16))& (0+255)
   402   006B66  6F5F               	movwf	95,b
   403   006B68                     end_of_initialization:
   404                           	callstack 0
   405   006B68                     __end_of__initialization:
   406                           	callstack 0
   407   006B68  0100               	movlb	0
   408   006B6A  EF72  F032         	goto	_main	;jump to C main() function
   409                           
   410                           	psect	bssCOMRAM
   411   00055D                     __pbssCOMRAM:
   412                           	callstack 0
   413   00055D                     _errno:
   414                           	callstack 0
   415   00055D                     	ds	2
   416                           
   417                           	psect	bssBANK5
   418   0005A0                     __pbssBANK5:
   419                           	callstack 0
   420   0005A0                     fabsf@F465:
   421                           	callstack 0
   422   0005A0                     	ds	4
   423                           
   424                           	psect	cstackBANK6
   425   000600                     __pcstackBANK6:
   426                           	callstack 0
   427   000600                     _powf$1544:
   428                           	callstack 0
   429                           
   430                           ; 4 bytes @ 0x0
   431   000600                     	ds	4
   432   000604                     _powf$1545:
   433                           	callstack 0
   434                           
   435                           ; 4 bytes @ 0x4
   436   000604                     	ds	4
   437   000608                     _powf$1549:
   438                           	callstack 0
   439                           
   440                           ; 4 bytes @ 0x8
   441   000608                     	ds	4
   442   00060C                     _powf$1550:
   443                           	callstack 0
   444                           
   445                           ; 4 bytes @ 0xC
   446   00060C                     	ds	4
   447   000610                     _powf$1551:
   448                           	callstack 0
   449                           
   450                           ; 4 bytes @ 0x10
   451   000610                     	ds	4
   452   000614                     _powf$1552:
   453                           	callstack 0
   454                           
   455                           ; 4 bytes @ 0x14
   456   000614                     	ds	4
   457   000618                     _powf$1553:
   458                           	callstack 0
   459                           
   460                           ; 4 bytes @ 0x18
   461   000618                     	ds	4
   462   00061C                     powf@t2:
   463                           	callstack 0
   464                           
   465                           ; 4 bytes @ 0x1C
   466   00061C                     	ds	4
   467   000620                     powf@z_h:
   468                           	callstack 0
   469                           
   470                           ; 4 bytes @ 0x20
   471   000620                     	ds	4
   472   000624                     powf@z_l:
   473                           	callstack 0
   474                           
   475                           ; 4 bytes @ 0x24
   476   000624                     	ds	4
   477   000628                     powf@y1:
   478                           	callstack 0
   479                           
   480                           ; 4 bytes @ 0x28
   481   000628                     	ds	4
   482   00062C                     powf@i:
   483                           	callstack 0
   484                           
   485                           ; 4 bytes @ 0x2C
   486   00062C                     	ds	4
   487   000630                     powf@s_l:
   488                           	callstack 0
   489                           
   490                           ; 4 bytes @ 0x30
   491   000630                     	ds	4
   492   000634                     powf@t_l:
   493                           	callstack 0
   494                           
   495                           ; 4 bytes @ 0x34
   496   000634                     	ds	4
   497   000638                     _powf$1543:
   498                           	callstack 0
   499                           
   500                           ; 4 bytes @ 0x38
   501   000638                     	ds	4
   502   00063C                     _powf$1547:
   503                           	callstack 0
   504                           
   505                           ; 4 bytes @ 0x3C
   506   00063C                     	ds	4
   507   000640                     _powf$1548:
   508                           	callstack 0
   509                           
   510                           ; 4 bytes @ 0x40
   511   000640                     	ds	4
   512   000644                     powf@w:
   513                           	callstack 0
   514                           
   515                           ; 4 bytes @ 0x44
   516   000644                     	ds	4
   517   000648                     _powf$1541:
   518                           	callstack 0
   519                           
   520                           ; 4 bytes @ 0x48
   521   000648                     	ds	4
   522   00064C                     powf@r:
   523                           	callstack 0
   524                           
   525                           ; 4 bytes @ 0x4C
   526   00064C                     	ds	4
   527   000650                     powf@yisint:
   528                           	callstack 0
   529                           
   530                           ; 4 bytes @ 0x50
   531   000650                     	ds	4
   532   000654                     _powf$1540:
   533                           	callstack 0
   534                           
   535                           ; 4 bytes @ 0x54
   536   000654                     	ds	4
   537   000658                     _powf$1546:
   538                           	callstack 0
   539                           
   540                           ; 4 bytes @ 0x58
   541   000658                     	ds	4
   542   00065C                     powf@s:
   543                           	callstack 0
   544                           
   545                           ; 4 bytes @ 0x5C
   546   00065C                     	ds	4
   547   000660                     powf@hx:
   548                           	callstack 0
   549                           
   550                           ; 4 bytes @ 0x60
   551   000660                     	ds	4
   552   000664                     powf@p_l:
   553                           	callstack 0
   554                           
   555                           ; 4 bytes @ 0x64
   556   000664                     	ds	4
   557   000668                     powf@t_h:
   558                           	callstack 0
   559                           
   560                           ; 4 bytes @ 0x68
   561   000668                     	ds	4
   562   00066C                     powf@s_h:
   563                           	callstack 0
   564                           
   565                           ; 4 bytes @ 0x6C
   566   00066C                     	ds	4
   567   000670                     powf@ax:
   568                           	callstack 0
   569                           
   570                           ; 4 bytes @ 0x70
   571   000670                     	ds	4
   572   000674                     powf@u:
   573                           	callstack 0
   574                           
   575                           ; 4 bytes @ 0x74
   576   000674                     	ds	4
   577   000678                     powf@v:
   578                           	callstack 0
   579                           
   580                           ; 4 bytes @ 0x78
   581   000678                     	ds	4
   582   00067C                     powf@n:
   583                           	callstack 0
   584                           
   585                           ; 4 bytes @ 0x7C
   586   00067C                     	ds	4
   587   000680                     powf@t1:
   588                           	callstack 0
   589                           
   590                           ; 4 bytes @ 0x80
   591   000680                     	ds	4
   592   000684                     powf@hy:
   593                           	callstack 0
   594                           
   595                           ; 4 bytes @ 0x84
   596   000684                     	ds	4
   597   000688                     powf@sn:
   598                           	callstack 0
   599                           
   600                           ; 4 bytes @ 0x88
   601   000688                     	ds	4
   602   00068C                     powf@s2:
   603                           	callstack 0
   604                           
   605                           ; 4 bytes @ 0x8C
   606   00068C                     	ds	4
   607   000690                     powf@is:
   608                           	callstack 0
   609                           
   610                           ; 4 bytes @ 0x90
   611   000690                     	ds	4
   612   000694                     _powf$1542:
   613                           	callstack 0
   614                           
   615                           ; 4 bytes @ 0x94
   616   000694                     	ds	4
   617   000698                     powf@iy:
   618                           	callstack 0
   619                           
   620                           ; 4 bytes @ 0x98
   621   000698                     	ds	4
   622   00069C                     powf@p_h:
   623                           	callstack 0
   624                           
   625                           ; 4 bytes @ 0x9C
   626   00069C                     	ds	4
   627   0006A0                     powf@k:
   628                           	callstack 0
   629                           
   630                           ; 4 bytes @ 0xA0
   631   0006A0                     	ds	4
   632   0006A4                     _powf$1539:
   633                           	callstack 0
   634                           
   635                           ; 4 bytes @ 0xA4
   636   0006A4                     	ds	4
   637   0006A8                     powf@ix:
   638                           	callstack 0
   639                           
   640                           ; 4 bytes @ 0xA8
   641   0006A8                     	ds	4
   642   0006AC                     powf@j:
   643                           	callstack 0
   644                           
   645                           ; 4 bytes @ 0xAC
   646   0006AC                     	ds	4
   647   0006B0                     powf@t:
   648                           	callstack 0
   649                           
   650                           ; 4 bytes @ 0xB0
   651   0006B0                     	ds	4
   652   0006B4                     powf@z:
   653                           	callstack 0
   654                           
   655                           ; 4 bytes @ 0xB4
   656   0006B4                     	ds	4
   657   0006B8                     powf@__xc8_float_word:
   658                           	callstack 0
   659                           
   660                           ; 4 bytes @ 0xB8
   661   0006B8                     	ds	4
   662                           
   663                           	psect	cstackBANK5
   664   000560                     __pcstackBANK5:
   665                           	callstack 0
   666   000560                     sqrtf@s:
   667                           	callstack 0
   668                           
   669                           ; 4 bytes @ 0x0
   670   000560                     	ds	4
   671   000564                     sqrtf@i:
   672                           	callstack 0
   673                           
   674                           ; 4 bytes @ 0x4
   675   000564                     	ds	4
   676   000568                     sqrtf@__xc8_float_word:
   677                           	callstack 0
   678                           
   679                           ; 4 bytes @ 0x8
   680   000568                     	ds	4
   681   00056C                     sqrtf@q:
   682                           	callstack 0
   683                           
   684                           ; 4 bytes @ 0xC
   685   00056C                     	ds	4
   686   000570                     sqrtf@t:
   687                           	callstack 0
   688                           
   689                           ; 4 bytes @ 0x10
   690   000570                     	ds	4
   691   000574                     sqrtf@z:
   692                           	callstack 0
   693                           
   694                           ; 4 bytes @ 0x14
   695   000574                     	ds	4
   696   000578                     sqrtf@m:
   697                           	callstack 0
   698                           
   699                           ; 4 bytes @ 0x18
   700   000578                     	ds	4
   701   00057C                     sqrtf@r:
   702                           	callstack 0
   703                           
   704                           ; 4 bytes @ 0x1C
   705   00057C                     	ds	4
   706   000580                     sqrtf@ix:
   707                           	callstack 0
   708                           
   709                           ; 4 bytes @ 0x20
   710   000580                     	ds	4
   711   000584                     ?_powf:
   712                           	callstack 0
   713   000584                     powf@x:
   714                           	callstack 0
   715                           
   716                           ; 4 bytes @ 0x24
   717   000584                     	ds	4
   718   000588                     powf@y:
   719                           	callstack 0
   720                           
   721                           ; 4 bytes @ 0x28
   722   000588                     	ds	4
   723   00058C                     ?___fltol:
   724                           	callstack 0
   725   00058C                     ___fltol@f1:
   726                           	callstack 0
   727                           
   728                           ; 4 bytes @ 0x2C
   729   00058C                     	ds	4
   730   000590                     sendData@time:
   731                           	callstack 0
   732                           
   733                           ; 1 bytes @ 0x30
   734   000590                     	ds	1
   735   000591                     _main$1538:
   736                           	callstack 0
   737                           
   738                           ; 4 bytes @ 0x31
   739   000591                     	ds	4
   740   000595                     main@buttonState:
   741                           	callstack 0
   742                           
   743                           ; 1 bytes @ 0x35
   744   000595                     	ds	1
   745   000596                     main@counter:
   746                           	callstack 0
   747                           
   748                           ; 1 bytes @ 0x36
   749   000596                     	ds	1
   750                           
   751                           	psect	cstackCOMRAM
   752   000501                     __pcstackCOMRAM:
   753                           	callstack 0
   754   000501                     ??_SPI1_Open:
   755   000501                     ?___fladd:
   756                           	callstack 0
   757   000501                     ?_fabsf:
   758                           	callstack 0
   759   000501                     ?_nanf:
   760                           	callstack 0
   761   000501                     ?___flneg:
   762                           	callstack 0
   763   000501                     ?___xxtofl:
   764                           	callstack 0
   765   000501                     SPI1_ByteExchange@data:
   766                           	callstack 0
   767   000501                     DELAY_milliseconds@milliseconds:
   768                           	callstack 0
   769   000501                     nanf@s:
   770                           	callstack 0
   771   000501                     INT0_SetInterruptHandler@InterruptHandler:
   772                           	callstack 0
   773   000501                     INT1_SetInterruptHandler@InterruptHandler:
   774                           	callstack 0
   775   000501                     INT2_SetInterruptHandler@InterruptHandler:
   776                           	callstack 0
   777   000501                     ___flneg@f1:
   778                           	callstack 0
   779   000501                     ___fladd@b:
   780                           	callstack 0
   781   000501                     ___xxtofl@val:
   782                           	callstack 0
   783   000501                     fabsf@x:
   784                           	callstack 0
   785                           
   786                           ; 4 bytes @ 0x0
   787   000501                     	ds	1
   788   000502                     SPI1_Open@spiConfigIndex:
   789                           	callstack 0
   790                           
   791                           ; 1 bytes @ 0x1
   792   000502                     	ds	1
   793   000503                     ??_DELAY_milliseconds:
   794                           
   795                           ; 1 bytes @ 0x2
   796   000503                     	ds	1
   797   000504                     
   798                           ; 1 bytes @ 0x3
   799   000504                     	ds	1
   800   000505                     ??___xxtofl:
   801   000505                     ___fladd@a:
   802                           	callstack 0
   803   000505                     fabsf@u:
   804                           	callstack 0
   805   000505                     nanf@u:
   806                           	callstack 0
   807                           
   808                           ; 4 bytes @ 0x4
   809   000505                     	ds	4
   810   000509                     ??___fladd:
   811   000509                     ___xxtofl@sign:
   812                           	callstack 0
   813                           
   814                           ; 1 bytes @ 0x8
   815   000509                     	ds	1
   816   00050A                     ___xxtofl@exp:
   817                           	callstack 0
   818                           
   819                           ; 1 bytes @ 0x9
   820   00050A                     	ds	1
   821   00050B                     ___xxtofl@arg:
   822                           	callstack 0
   823                           
   824                           ; 4 bytes @ 0xA
   825   00050B                     	ds	2
   826   00050D                     ___fladd@signs:
   827                           	callstack 0
   828                           
   829                           ; 1 bytes @ 0xC
   830   00050D                     	ds	1
   831   00050E                     ___fladd@aexp:
   832                           	callstack 0
   833                           
   834                           ; 1 bytes @ 0xD
   835   00050E                     	ds	1
   836   00050F                     ___fladd@bexp:
   837                           	callstack 0
   838                           
   839                           ; 1 bytes @ 0xE
   840   00050F                     	ds	1
   841   000510                     ___fladd@grs:
   842                           	callstack 0
   843                           
   844                           ; 1 bytes @ 0xF
   845   000510                     	ds	1
   846   000511                     ?___flmul:
   847                           	callstack 0
   848   000511                     ___flmul@b:
   849                           	callstack 0
   850                           
   851                           ; 4 bytes @ 0x10
   852   000511                     	ds	4
   853   000515                     ___flmul@a:
   854                           	callstack 0
   855                           
   856                           ; 4 bytes @ 0x14
   857   000515                     	ds	4
   858   000519                     ??___flmul:
   859                           
   860                           ; 1 bytes @ 0x18
   861   000519                     	ds	4
   862   00051D                     ___flmul@sign:
   863                           	callstack 0
   864                           
   865                           ; 1 bytes @ 0x1C
   866   00051D                     	ds	1
   867   00051E                     ___flmul@grs:
   868                           	callstack 0
   869                           
   870                           ; 4 bytes @ 0x1D
   871   00051E                     	ds	4
   872   000522                     ___flmul@aexp:
   873                           	callstack 0
   874                           
   875                           ; 1 bytes @ 0x21
   876   000522                     	ds	1
   877   000523                     ___flmul@bexp:
   878                           	callstack 0
   879                           
   880                           ; 1 bytes @ 0x22
   881   000523                     	ds	1
   882   000524                     ___flmul@prod:
   883                           	callstack 0
   884                           
   885                           ; 4 bytes @ 0x23
   886   000524                     	ds	4
   887   000528                     ___flmul@temp:
   888                           	callstack 0
   889                           
   890                           ; 2 bytes @ 0x27
   891   000528                     	ds	2
   892   00052A                     ?___flsub:
   893                           	callstack 0
   894   00052A                     ?_scalbnf:
   895                           	callstack 0
   896   00052A                     ___flsub@b:
   897                           	callstack 0
   898   00052A                     scalbnf@x:
   899                           	callstack 0
   900                           
   901                           ; 4 bytes @ 0x29
   902   00052A                     	ds	4
   903   00052E                     scalbnf@n:
   904                           	callstack 0
   905   00052E                     ___flsub@a:
   906                           	callstack 0
   907                           
   908                           ; 4 bytes @ 0x2D
   909   00052E                     	ds	2
   910   000530                     ??_scalbnf:
   911                           
   912                           ; 1 bytes @ 0x2F
   913   000530                     	ds	2
   914   000532                     ?___fldiv:
   915                           	callstack 0
   916   000532                     ___flge@ff1:
   917                           	callstack 0
   918   000532                     ___fldiv@b:
   919                           	callstack 0
   920                           
   921                           ; 4 bytes @ 0x31
   922   000532                     	ds	2
   923   000534                     scalbnf@u:
   924                           	callstack 0
   925                           
   926                           ; 4 bytes @ 0x33
   927   000534                     	ds	2
   928   000536                     ___flge@ff2:
   929                           	callstack 0
   930   000536                     ___fldiv@a:
   931                           	callstack 0
   932                           
   933                           ; 4 bytes @ 0x35
   934   000536                     	ds	2
   935   000538                     scalbnf@y:
   936                           	callstack 0
   937                           
   938                           ; 4 bytes @ 0x37
   939   000538                     	ds	2
   940   00053A                     ??___fldiv:
   941   00053A                     ??___flge:
   942                           
   943                           ; 1 bytes @ 0x39
   944   00053A                     	ds	4
   945   00053E                     ?_sqrtf:
   946                           	callstack 0
   947   00053E                     ___fldiv@rem:
   948                           	callstack 0
   949   00053E                     sqrtf@x:
   950                           	callstack 0
   951                           
   952                           ; 4 bytes @ 0x3D
   953   00053E                     	ds	4
   954   000542                     ??_sqrtf:
   955   000542                     ___fldiv@sign:
   956                           	callstack 0
   957                           
   958                           ; 1 bytes @ 0x41
   959   000542                     	ds	1
   960   000543                     ___fldiv@new_exp:
   961                           	callstack 0
   962                           
   963                           ; 2 bytes @ 0x42
   964   000543                     	ds	2
   965   000545                     ___fldiv@grs:
   966                           	callstack 0
   967                           
   968                           ; 4 bytes @ 0x44
   969   000545                     	ds	4
   970   000549                     ___fldiv@bexp:
   971                           	callstack 0
   972                           
   973                           ; 1 bytes @ 0x48
   974   000549                     	ds	1
   975   00054A                     ___fldiv@aexp:
   976                           	callstack 0
   977                           
   978                           ; 1 bytes @ 0x49
   979   00054A                     	ds	1
   980   00054B                     ??_powf:
   981                           
   982                           ; 1 bytes @ 0x4A
   983   00054B                     	ds	9
   984   000554                     ??___fltol:
   985                           
   986                           ; 1 bytes @ 0x53
   987   000554                     	ds	4
   988   000558                     ___fltol@sign1:
   989                           	callstack 0
   990                           
   991                           ; 1 bytes @ 0x57
   992   000558                     	ds	1
   993   000559                     ___fltol@exp1:
   994                           	callstack 0
   995                           
   996                           ; 1 bytes @ 0x58
   997   000559                     	ds	1
   998   00055A                     sendData@data:
   999                           	callstack 0
  1000                           
  1001                           ; 1 bytes @ 0x59
  1002   00055A                     	ds	1
  1003   00055B                     sendData@index:
  1004                           	callstack 0
  1005                           
  1006                           ; 2 bytes @ 0x5A
  1007   00055B                     	ds	2
  1008   00055D                     
  1009                           ; 1 bytes @ 0x5C
  1010 ;;
  1011 ;;Main: autosize = 0, tempsize = 0, incstack = 0, save=0
  1012 ;;
  1013 ;; *************** function _main *****************
  1014 ;; Defined at:
  1015 ;;		line 53 in file "main.c"
  1016 ;; Parameters:    Size  Location     Type
  1017 ;;		None
  1018 ;; Auto vars:     Size  Location     Type
  1019 ;;  counter         1   54[BANK5 ] unsigned char 
  1020 ;;  buttonState     1   53[BANK5 ] _Bool 
  1021 ;; Return value:  Size  Location     Type
  1022 ;;                  2  398[None  ] int 
  1023 ;; Registers used:
  1024 ;;		wreg, status,2, status,0, tblptrl, tblptrh, tblptru, prodl, prodh, cstack
  1025 ;; Tracked objects:
  1026 ;;		On entry : 0/0
  1027 ;;		On exit  : 0/0
  1028 ;;		Unchanged: 0/0
  1029 ;; Data sizes:     COMRAM   BANK5   BANK6   BANK7   BANK8   BANK9  BANK10  BANK11  BANK12  BANK13  BANK14  BANK15  BANK1
      +6  BANK17  BANK18  BANK19  BANK20  BANK21  BANK22  BANK23  BANK24  BANK25  BANK26  BANK27  BANK28  BANK29  BANK30  BANK3
      +1  BANK32  BANK33  BANK34  BANK35  BANK36
  1030 ;;      Params:         0       0       0       0       0       0       0       0       0       0       0       0       
      +0       0       0       0       0       0       0       0       0       0       0       0       0       0       0       
      +0       0       0       0       0       0
  1031 ;;      Locals:         0       6       0       0       0       0       0       0       0       0       0       0       
      +0       0       0       0       0       0       0       0       0       0       0       0       0       0       0       
      +0       0       0       0       0       0
  1032 ;;      Temps:          0       0       0       0       0       0       0       0       0       0       0       0       
      +0       0       0       0       0       0       0       0       0       0       0       0       0       0       0       
      +0       0       0       0       0       0
  1033 ;;      Totals:         0       6       0       0       0       0       0       0       0       0       0       0       
      +0       0       0       0       0       0       0       0       0       0       0       0       0       0       0       
      +0       0       0       0       0       0
  1034 ;;Total ram usage:        6 bytes
  1035 ;; Hardware stack levels required when called: 5
  1036 ;; This function calls:
  1037 ;;		_SPI1_Close
  1038 ;;		_SPI1_Initialize
  1039 ;;		_SYSTEM_Initialize
  1040 ;;		___fltol
  1041 ;;		___xxtofl
  1042 ;;		_powf
  1043 ;;		_sendData
  1044 ;; This function is called by:
  1045 ;;		Startup code after reset
  1046 ;; This function uses a non-reentrant model
  1047 ;;
  1048                           
  1049                           	psect	text0
  1050   0064E4                     __ptext0:
  1051                           	callstack 0
  1052   0064E4                     _main:
  1053                           	callstack 122
  1054   0064E4                     
  1055                           ;main.c: 55:     SYSTEM_Initialize();
  1056   0064E4  EC04  F036         	call	_SYSTEM_Initialize	;wreg free
  1057   0064E8                     
  1058                           ;main.c: 57:     SPI1_Initialize();
  1059   0064E8  ECF7  F035         	call	_SPI1_Initialize	;wreg free
  1060   0064EC                     
  1061                           ;main.c: 59:     uint8_t counter=0;
  1062   0064EC  0E00               	movlw	0
  1063   0064EE  0105               	movlb	5	; () banked
  1064   0064F0  6F96               	movwf	main@counter& (0+255),b
  1065   0064F2                     
  1066                           ; BSR set to: 5
  1067   0064F2  88C7               	bsf	199,4,c	;volatile
  1068   0064F4                     
  1069                           ; BSR set to: 5
  1070                           ;main.c: 62:     _Bool buttonState = 0;
  1071   0064F4  0E00               	movlw	0
  1072   0064F6  6F95               	movwf	main@buttonState& (0+255),b
  1073   0064F8                     
  1074                           ; BSR set to: 5
  1075   0064F8  82C1               	bsf	193,1,c	;volatile
  1076   0064FA                     
  1077                           ; BSR set to: 5
  1078   0064FA  84C1               	bsf	193,2,c	;volatile
  1079   0064FC                     
  1080                           ; BSR set to: 5
  1081   0064FC  90C1               	bcf	193,0,c	;volatile
  1082   0064FE                     
  1083                           ; BSR set to: 5
  1084                           ;main.c: 67:     sendData(0,20);
  1085   0064FE  0E14               	movlw	20
  1086   006500  6F90               	movwf	sendData@time& (0+255),b
  1087   006502  0E00               	movlw	0
  1088   006504  ECE4  F034         	call	_sendData
  1089   006508                     l4129:
  1090                           
  1091                           ;main.c: 71:     {;main.c: 73:         if (PORTBbits.RB4 == 0 && buttonState == 0) {
  1092   006508  B8CF               	btfsc	207,4,c	;volatile
  1093   00650A  EF89  F032         	goto	u4001
  1094   00650E  EF8B  F032         	goto	u4000
  1095   006512                     u4001:
  1096   006512  EFEB  F032         	goto	l408
  1097   006516                     u4000:
  1098   006516  0105               	movlb	5	; () banked
  1099   006518  5195               	movf	main@buttonState& (0+255),w,b
  1100   00651A  A4D8               	btfss	status,2,c
  1101   00651C  EF92  F032         	goto	u4011
  1102   006520  EF94  F032         	goto	u4010
  1103   006524                     u4011:
  1104   006524  EFEB  F032         	goto	l408
  1105   006528                     u4010:
  1106   006528                     
  1107                           ; BSR set to: 5
  1108   006528  82C1               	bsf	193,1,c	;volatile
  1109   00652A                     
  1110                           ; BSR set to: 5
  1111   00652A  84C1               	bsf	193,2,c	;volatile
  1112   00652C                     
  1113                           ; BSR set to: 5
  1114                           ;main.c: 79:             sendData(0,0);
  1115   00652C  0E00               	movlw	0
  1116   00652E  6F90               	movwf	sendData@time& (0+255),b
  1117   006530  0E00               	movlw	0
  1118   006532  ECE4  F034         	call	_sendData
  1119   006536  92C1               	bcf	193,1,c	;volatile
  1120   006538  94C1               	bcf	193,2,c	;volatile
  1121   00653A  EFD6  F032         	goto	l4147
  1122   00653E                     l4139:
  1123                           
  1124                           ; BSR set to: 5
  1125                           ;main.c: 84:                sendData(powf(2,counter),200);
  1126   00653E  5196               	movf	main@counter& (0+255),w,b
  1127   006540  6E01               	movwf	___xxtofl@val^(0+1280),c
  1128   006542  6A02               	clrf	(___xxtofl@val+1)^(0+1280),c
  1129   006544  6A03               	clrf	(___xxtofl@val+2)^(0+1280),c
  1130   006546  6A04               	clrf	(___xxtofl@val+3)^(0+1280),c
  1131   006548  0E00               	movlw	0
  1132   00654A  EC98  F031         	call	___xxtofl
  1133   00654E  C501  F591         	movff	?___xxtofl,_main$1538
  1134   006552  C502  F592         	movff	?___xxtofl+1,_main$1538+1
  1135   006556  C503  F593         	movff	?___xxtofl+2,_main$1538+2
  1136   00655A  C504  F594         	movff	?___xxtofl+3,_main$1538+3
  1137   00655E                     
  1138                           ;main.c: 84:                sendData(powf(2,counter),200);
  1139   00655E  0EC8               	movlw	200
  1140   006560  0105               	movlb	5	; () banked
  1141   006562  6F90               	movwf	sendData@time& (0+255),b
  1142   006564  C591  F588         	movff	_main$1538,powf@y
  1143   006568  C592  F589         	movff	_main$1538+1,powf@y+1
  1144   00656C  C593  F58A         	movff	_main$1538+2,powf@y+2
  1145   006570  C594  F58B         	movff	_main$1538+3,powf@y+3
  1146   006574  0E00               	movlw	0
  1147   006576  6F84               	movwf	powf@x& (0+255),b
  1148   006578  0E00               	movlw	0
  1149   00657A  6F85               	movwf	(powf@x+1)& (0+255),b
  1150   00657C  0E00               	movlw	0
  1151   00657E  6F86               	movwf	(powf@x+2)& (0+255),b
  1152   006580  0E40               	movlw	64
  1153   006582  6F87               	movwf	(powf@x+3)& (0+255),b
  1154   006584  EC50  F013         	call	_powf	;wreg free
  1155   006588  C584  F58C         	movff	?_powf,___fltol@f1
  1156   00658C  C585  F58D         	movff	?_powf+1,___fltol@f1+1
  1157   006590  C586  F58E         	movff	?_powf+2,___fltol@f1+2
  1158   006594  C587  F58F         	movff	?_powf+3,___fltol@f1+3
  1159   006598  EC01  F033         	call	___fltol	;wreg free
  1160   00659C  0105               	movlb	5	; () banked
  1161   00659E  518C               	movf	?___fltol& (0+255),w,b
  1162   0065A0  ECE4  F034         	call	_sendData
  1163   0065A4                     
  1164                           ;main.c: 85:                counter++;
  1165   0065A4  0105               	movlb	5	; () banked
  1166   0065A6  2B96               	incf	main@counter& (0+255),f,b
  1167   0065A8                     
  1168                           ; BSR set to: 5
  1169                           ;main.c: 86:                SPI1_Close();
  1170   0065A8  EC22  F036         	call	_SPI1_Close	;wreg free
  1171   0065AC                     l4147:
  1172                           
  1173                           ;main.c: 83:             while (counter<=7){
  1174   0065AC  0E07               	movlw	7
  1175   0065AE  0105               	movlb	5	; () banked
  1176   0065B0  6596               	cpfsgt	main@counter& (0+255),b
  1177   0065B2  EFDD  F032         	goto	u4021
  1178   0065B6  EFDF  F032         	goto	u4020
  1179   0065BA                     u4021:
  1180   0065BA  EF9F  F032         	goto	l4139
  1181   0065BE                     u4020:
  1182   0065BE                     
  1183                           ; BSR set to: 5
  1184                           ;main.c: 89:                sendData(255,0);
  1185   0065BE  0E00               	movlw	0
  1186   0065C0  6F90               	movwf	sendData@time& (0+255),b
  1187   0065C2  0EFF               	movlw	255
  1188   0065C4  ECE4  F034         	call	_sendData
  1189   0065C8  92C1               	bcf	193,1,c	;volatile
  1190   0065CA  94C1               	bcf	193,2,c	;volatile
  1191   0065CC                     
  1192                           ;main.c: 92:                counter = 0;
  1193   0065CC  0E00               	movlw	0
  1194   0065CE  0105               	movlb	5	; () banked
  1195   0065D0  6F96               	movwf	main@counter& (0+255),b
  1196                           
  1197                           ;main.c: 93:         }
  1198   0065D2  EF84  F032         	goto	l4129
  1199   0065D6                     l408:
  1200   0065D6  A8CF               	btfss	207,4,c	;volatile
  1201   0065D8  EFF0  F032         	goto	u4031
  1202   0065DC  EFF2  F032         	goto	u4030
  1203   0065E0                     u4031:
  1204   0065E0  EF84  F032         	goto	l4129
  1205   0065E4                     u4030:
  1206   0065E4  0105               	movlb	5	; () banked
  1207   0065E6  0595               	decf	main@buttonState& (0+255),w,b
  1208   0065E8  A4D8               	btfss	status,2,c
  1209   0065EA  EFF9  F032         	goto	u4041
  1210   0065EE  EFFB  F032         	goto	u4040
  1211   0065F2                     u4041:
  1212   0065F2  EF84  F032         	goto	l4129
  1213   0065F6                     u4040:
  1214   0065F6                     
  1215                           ; BSR set to: 5
  1216                           ;main.c: 99:             buttonState = 0;
  1217   0065F6  0E00               	movlw	0
  1218   0065F8  6F95               	movwf	main@buttonState& (0+255),b
  1219   0065FA  EF84  F032         	goto	l4129
  1220   0065FE  EF0D  F000         	goto	start
  1221   006602                     __end_of_main:
  1222                           	callstack 0
  1223                           
  1224 ;; *************** function _sendData *****************
  1225 ;; Defined at:
  1226 ;;		line 37 in file "main.c"
  1227 ;; Parameters:    Size  Location     Type
  1228 ;;  data            1    wreg     unsigned char 
  1229 ;;  time            1   48[BANK5 ] unsigned char 
  1230 ;; Auto vars:     Size  Location     Type
  1231 ;;  data            1   89[COMRAM] unsigned char 
  1232 ;;  index           2   90[COMRAM] int 
  1233 ;; Return value:  Size  Location     Type
  1234 ;;                  1    wreg      void 
  1235 ;; Registers used:
  1236 ;;		wreg, status,2, status,0, tblptrl, tblptrh, tblptru, prodl, prodh, cstack
  1237 ;; Tracked objects:
  1238 ;;		On entry : 0/0
  1239 ;;		On exit  : 0/0
  1240 ;;		Unchanged: 0/0
  1241 ;; Data sizes:     COMRAM   BANK5   BANK6   BANK7   BANK8   BANK9  BANK10  BANK11  BANK12  BANK13  BANK14  BANK15  BANK1
      +6  BANK17  BANK18  BANK19  BANK20  BANK21  BANK22  BANK23  BANK24  BANK25  BANK26  BANK27  BANK28  BANK29  BANK30  BANK3
      +1  BANK32  BANK33  BANK34  BANK35  BANK36
  1242 ;;      Params:         0       1       0       0       0       0       0       0       0       0       0       0       
      +0       0       0       0       0       0       0       0       0       0       0       0       0       0       0       
      +0       0       0       0       0       0
  1243 ;;      Locals:         3       0       0       0       0       0       0       0       0       0       0       0       
      +0       0       0       0       0       0       0       0       0       0       0       0       0       0       0       
      +0       0       0       0       0       0
  1244 ;;      Temps:          0       0       0       0       0       0       0       0       0       0       0       0       
      +0       0       0       0       0       0       0       0       0       0       0       0       0       0       0       
      +0       0       0       0       0       0
  1245 ;;      Totals:         3       1       0       0       0       0       0       0       0       0       0       0       
      +0       0       0       0       0       0       0       0       0       0       0       0       0       0       0       
      +0       0       0       0       0       0
  1246 ;;Total ram usage:        4 bytes
  1247 ;; Hardware stack levels used: 1
  1248 ;; Hardware stack levels required when called: 3
  1249 ;; This function calls:
  1250 ;;		_DELAY_milliseconds
  1251 ;;		_SPI1_ByteExchange
  1252 ;;		_SPI1_Close
  1253 ;;		_SPI1_Open
  1254 ;; This function is called by:
  1255 ;;		_main
  1256 ;; This function uses a non-reentrant model
  1257 ;;
  1258                           
  1259                           	psect	text1
  1260   0069C8                     __ptext1:
  1261                           	callstack 0
  1262   0069C8                     _sendData:
  1263                           	callstack 123
  1264                           
  1265                           ; BSR set to: 5
  1266                           ;incstack = 0
  1267                           ;sendData@data stored from wreg
  1268   0069C8  6E5A               	movwf	sendData@data^(0+1280),c
  1269   0069CA                     
  1270                           ;main.c: 38:     int index;;main.c: 40:     for(index = 1; index <= 8; index++) {
  1271   0069CA  0E00               	movlw	0
  1272   0069CC  6E5C               	movwf	(sendData@index+1)^(0+1280),c
  1273   0069CE  0E01               	movlw	1
  1274   0069D0  6E5B               	movwf	sendData@index^(0+1280),c
  1275   0069D2                     l3563:
  1276                           
  1277                           ;main.c: 41:         SPI1_Open(SPI1_DEFAULT);
  1278   0069D2  0E00               	movlw	0
  1279   0069D4  EC78  F034         	call	_SPI1_Open
  1280   0069D8                     
  1281                           ;main.c: 42:         SPI1_ByteExchange(data);
  1282   0069D8  505A               	movf	sendData@data^(0+1280),w,c
  1283   0069DA  ECD9  F035         	call	_SPI1_ByteExchange
  1284   0069DE                     
  1285                           ;main.c: 43:         SPI1_Close();
  1286   0069DE  EC22  F036         	call	_SPI1_Close	;wreg free
  1287   0069E2                     
  1288                           ;main.c: 44:         DELAY_milliseconds(5);
  1289   0069E2  0E00               	movlw	0
  1290   0069E4  6E02               	movwf	(DELAY_milliseconds@milliseconds+1)^(0+1280),c
  1291   0069E6  0E05               	movlw	5
  1292   0069E8  6E01               	movwf	DELAY_milliseconds@milliseconds^(0+1280),c
  1293   0069EA  EC8E  F035         	call	_DELAY_milliseconds	;wreg free
  1294   0069EE  80C1               	bsf	193,0,c	;volatile
  1295   0069F0                     
  1296                           ;main.c: 46:         DELAY_milliseconds(20);
  1297   0069F0  0E00               	movlw	0
  1298   0069F2  6E02               	movwf	(DELAY_milliseconds@milliseconds+1)^(0+1280),c
  1299   0069F4  0E14               	movlw	20
  1300   0069F6  6E01               	movwf	DELAY_milliseconds@milliseconds^(0+1280),c
  1301   0069F8  EC8E  F035         	call	_DELAY_milliseconds	;wreg free
  1302   0069FC  90C1               	bcf	193,0,c	;volatile
  1303   0069FE                     
  1304                           ;main.c: 48:         DELAY_milliseconds(time);
  1305   0069FE  C590  F501         	movff	sendData@time,DELAY_milliseconds@milliseconds
  1306   006A02  6A02               	clrf	(DELAY_milliseconds@milliseconds+1)^(0+1280),c
  1307   006A04  EC8E  F035         	call	_DELAY_milliseconds	;wreg free
  1308   006A08                     
  1309                           ;main.c: 49:     }
  1310   006A08  4A5B               	infsnz	sendData@index^(0+1280),f,c
  1311   006A0A  2A5C               	incf	(sendData@index+1)^(0+1280),f,c
  1312   006A0C  BE5C               	btfsc	(sendData@index+1)^(0+1280),7,c
  1313   006A0E  EF12  F035         	goto	u3291
  1314   006A12  505C               	movf	(sendData@index+1)^(0+1280),w,c
  1315   006A14  E109               	bnz	u3290
  1316   006A16  0E09               	movlw	9
  1317   006A18  5C5B               	subwf	sendData@index^(0+1280),w,c
  1318   006A1A  A0D8               	btfss	status,0,c
  1319   006A1C  EF12  F035         	goto	u3291
  1320   006A20  EF14  F035         	goto	u3290
  1321   006A24                     u3291:
  1322   006A24  EFE9  F034         	goto	l3563
  1323   006A28                     u3290:
  1324   006A28  0012               	return		;funcret
  1325   006A2A                     __end_of_sendData:
  1326                           	callstack 0
  1327                           
  1328 ;; *************** function _SPI1_Open *****************
  1329 ;; Defined at:
  1330 ;;		line 85 in file "mcc_generated_files/spi/src/spi1.c"
  1331 ;; Parameters:    Size  Location     Type
  1332 ;;  spiConfigInd    1    wreg     unsigned char 
  1333 ;; Auto vars:     Size  Location     Type
  1334 ;;  spiConfigInd    1    1[COMRAM] unsigned char 
  1335 ;; Return value:  Size  Location     Type
  1336 ;;                  1    wreg      _Bool 
  1337 ;; Registers used:
  1338 ;;		wreg, status,2, status,0, tblptrl, tblptrh, tblptru, prodl, prodh
  1339 ;; Tracked objects:
  1340 ;;		On entry : 0/0
  1341 ;;		On exit  : 0/0
  1342 ;;		Unchanged: 0/0
  1343 ;; Data sizes:     COMRAM   BANK5   BANK6   BANK7   BANK8   BANK9  BANK10  BANK11  BANK12  BANK13  BANK14  BANK15  BANK1
      +6  BANK17  BANK18  BANK19  BANK20  BANK21  BANK22  BANK23  BANK24  BANK25  BANK26  BANK27  BANK28  BANK29  BANK30  BANK3
      +1  BANK32  BANK33  BANK34  BANK35  BANK36
  1344 ;;      Params:         0       0       0       0       0       0       0       0       0       0       0       0       
      +0       0       0       0       0       0       0       0       0       0       0       0       0       0       0       
      +0       0       0       0       0       0
  1345 ;;      Locals:         1       0       0       0       0       0       0       0       0       0       0       0       
      +0       0       0       0       0       0       0       0       0       0       0       0       0       0       0       
      +0       0       0       0       0       0
  1346 ;;      Temps:          1       0       0       0       0       0       0       0       0       0       0       0       
      +0       0       0       0       0       0       0       0       0       0       0       0       0       0       0       
      +0       0       0       0       0       0
  1347 ;;      Totals:         2       0       0       0       0       0       0       0       0       0       0       0       
      +0       0       0       0       0       0       0       0       0       0       0       0       0       0       0       
      +0       0       0       0       0       0
  1348 ;;Total ram usage:        2 bytes
  1349 ;; Hardware stack levels used: 1
  1350 ;; Hardware stack levels required when called: 2
  1351 ;; This function calls:
  1352 ;;		Nothing
  1353 ;; This function is called by:
  1354 ;;		_sendData
  1355 ;; This function uses a non-reentrant model
  1356 ;;
  1357                           
  1358                           	psect	text2
  1359   0068F0                     __ptext2:
  1360                           	callstack 0
  1361   0068F0                     _SPI1_Open:
  1362                           	callstack 123
  1363                           
  1364                           ;incstack = 0
  1365                           ;SPI1_Open@spiConfigIndex stored from wreg
  1366   0068F0  6E02               	movwf	SPI1_Open@spiConfigIndex^(0+1280),c
  1367   0068F2                     
  1368                           ;mcc_generated_files/spi/src/spi1.c: 85: _Bool SPI1_Open(uint8_t spiConfigIndex);mcc_gen
      +                          erated_files/spi/src/spi1.c: 86: {;mcc_generated_files/spi/src/spi1.c: 87:     if(!SPI1C
      +                          ON0bits.EN)
  1369   0068F2  0100               	movlb	0	; () banked
  1370   0068F4  BF84               	btfsc	132,7,b	;volatile
  1371   0068F6  EF7F  F034         	goto	u2691
  1372   0068FA  EF81  F034         	goto	u2690
  1373   0068FE                     u2691:
  1374   0068FE  EFE3  F034         	goto	l51
  1375   006902                     u2690:
  1376   006902                     
  1377                           ; BSR set to: 0
  1378                           ;mcc_generated_files/spi/src/spi1.c: 88:     {;mcc_generated_files/spi/src/spi1.c: 89:  
      +                                 SPI1CON0 = spi1_configuration[spiConfigIndex].con0;
  1379   006902  5002               	movf	SPI1_Open@spiConfigIndex^(0+1280),w,c
  1380   006904  0D05               	mullw	5
  1381   006906  0E2C               	movlw	low _spi1_configuration
  1382   006908  24F3               	addwf	243,w,c
  1383   00690A  6EF6               	movwf	tblptrl,c
  1384   00690C  0E26               	movlw	high _spi1_configuration
  1385   00690E  20F4               	addwfc	244,w,c
  1386   006910  6EF7               	movwf	tblptrh,c
  1387   006912                     	if	1	;There are 3 active tblptr bytes
  1388   006912  6AF8               	clrf	tblptru,c
  1389   006914  0E00               	movlw	low (__mediumconst shr (0+16))
  1390   006916  22F8               	addwfc	tblptru,f,c
  1391   006918                     	endif
  1392   006918  0008               	tblrd		*
  1393   00691A  C4F5 F084          	movff	tablat,132	;volatile
  1394                           
  1395                           ;mcc_generated_files/spi/src/spi1.c: 90:         SPI1CON1 = spi1_configuration[spiConfig
      +                          Index].con1;
  1396   00691E  5002               	movf	SPI1_Open@spiConfigIndex^(0+1280),w,c
  1397   006920  0D05               	mullw	5
  1398   006922  0E01               	movlw	1
  1399   006924  26F3               	addwf	243,f,c
  1400   006926  0E00               	movlw	0
  1401   006928  22F4               	addwfc	244,f,c
  1402   00692A  0E2C               	movlw	low _spi1_configuration
  1403   00692C  24F3               	addwf	243,w,c
  1404   00692E  6EF6               	movwf	tblptrl,c
  1405   006930  0E26               	movlw	high _spi1_configuration
  1406   006932  20F4               	addwfc	244,w,c
  1407   006934  6EF7               	movwf	tblptrh,c
  1408   006936                     	if	1	;There are 3 active tblptr bytes
  1409   006936  6AF8               	clrf	tblptru,c
  1410   006938  0E00               	movlw	low (__mediumconst shr (0+16))
  1411   00693A  22F8               	addwfc	tblptru,f,c
  1412   00693C                     	endif
  1413   00693C  0008               	tblrd		*
  1414   00693E  C4F5 F085          	movff	tablat,133	;volatile
  1415                           
  1416                           ;mcc_generated_files/spi/src/spi1.c: 91:         SPI1CON2 = spi1_configuration[spiConfig
      +                          Index].con2 | (0x1 | 0x2);
  1417   006942  5002               	movf	SPI1_Open@spiConfigIndex^(0+1280),w,c
  1418   006944  0D05               	mullw	5
  1419   006946  0E02               	movlw	2
  1420   006948  26F3               	addwf	243,f,c
  1421   00694A  0E00               	movlw	0
  1422   00694C  22F4               	addwfc	244,f,c
  1423   00694E  0E2C               	movlw	low _spi1_configuration
  1424   006950  24F3               	addwf	243,w,c
  1425   006952  6EF6               	movwf	tblptrl,c
  1426   006954  0E26               	movlw	high _spi1_configuration
  1427   006956  20F4               	addwfc	244,w,c
  1428   006958  6EF7               	movwf	tblptrh,c
  1429   00695A                     	if	1	;There are 3 active tblptr bytes
  1430   00695A  6AF8               	clrf	tblptru,c
  1431   00695C  0E00               	movlw	low (__mediumconst shr (0+16))
  1432   00695E  22F8               	addwfc	tblptru,f,c
  1433   006960                     	endif
  1434   006960  0008               	tblrd		*
  1435   006962  50F5               	movf	tablat,w,c
  1436   006964  0903               	iorlw	3
  1437   006966  6F86               	movwf	134,b	;volatile
  1438   006968                     
  1439                           ; BSR set to: 0
  1440                           ;mcc_generated_files/spi/src/spi1.c: 92:         SPI1CLK = 0x00;
  1441   006968  0E00               	movlw	0
  1442   00696A  6F8C               	movwf	140,b	;volatile
  1443   00696C                     
  1444                           ; BSR set to: 0
  1445                           ;mcc_generated_files/spi/src/spi1.c: 93:         SPI1BAUD = spi1_configuration[spiConfig
      +                          Index].baud;
  1446   00696C  5002               	movf	SPI1_Open@spiConfigIndex^(0+1280),w,c
  1447   00696E  0D05               	mullw	5
  1448   006970  0E03               	movlw	3
  1449   006972  26F3               	addwf	243,f,c
  1450   006974  0E00               	movlw	0
  1451   006976  22F4               	addwfc	244,f,c
  1452   006978  0E2C               	movlw	low _spi1_configuration
  1453   00697A  24F3               	addwf	243,w,c
  1454   00697C  6EF6               	movwf	tblptrl,c
  1455   00697E  0E26               	movlw	high _spi1_configuration
  1456   006980  20F4               	addwfc	244,w,c
  1457   006982  6EF7               	movwf	tblptrh,c
  1458   006984                     	if	1	;There are 3 active tblptr bytes
  1459   006984  6AF8               	clrf	tblptru,c
  1460   006986  0E00               	movlw	low (__mediumconst shr (0+16))
  1461   006988  22F8               	addwfc	tblptru,f,c
  1462   00698A                     	endif
  1463   00698A  0008               	tblrd		*
  1464   00698C  C4F5 F089          	movff	tablat,137	;volatile
  1465   006990                     
  1466                           ; BSR set to: 0
  1467                           ;mcc_generated_files/spi/src/spi1.c: 94:         TRISCbits.TRISC3 = spi1_configuration[s
      +                          piConfigIndex].operation;
  1468   006990  5002               	movf	SPI1_Open@spiConfigIndex^(0+1280),w,c
  1469   006992  0D05               	mullw	5
  1470   006994  0E04               	movlw	4
  1471   006996  26F3               	addwf	243,f,c
  1472   006998  0E00               	movlw	0
  1473   00699A  22F4               	addwfc	244,f,c
  1474   00699C  0E2C               	movlw	low _spi1_configuration
  1475   00699E  24F3               	addwf	243,w,c
  1476   0069A0  6EF6               	movwf	tblptrl,c
  1477   0069A2  0E26               	movlw	high _spi1_configuration
  1478   0069A4  20F4               	addwfc	244,w,c
  1479   0069A6  6EF7               	movwf	tblptrh,c
  1480   0069A8                     	if	1	;There are 3 active tblptr bytes
  1481   0069A8  6AF8               	clrf	tblptru,c
  1482   0069AA  0E00               	movlw	low (__mediumconst shr (0+16))
  1483   0069AC  22F8               	addwfc	tblptru,f,c
  1484   0069AE                     	endif
  1485   0069AE  0008               	tblrd		*
  1486   0069B0  C4F5 F501          	movff	tablat,??_SPI1_Open
  1487   0069B4  4601               	rlncf	??_SPI1_Open^(0+1280),f,c
  1488   0069B6  4601               	rlncf	??_SPI1_Open^(0+1280),f,c
  1489   0069B8  4601               	rlncf	??_SPI1_Open^(0+1280),f,c
  1490   0069BA  50C8               	movf	200,w,c	;volatile
  1491   0069BC  1801               	xorwf	??_SPI1_Open^(0+1280),w,c
  1492   0069BE  0BF7               	andlw	-9
  1493   0069C0  1801               	xorwf	??_SPI1_Open^(0+1280),w,c
  1494   0069C2  6EC8               	movwf	200,c	;volatile
  1495   0069C4                     
  1496                           ; BSR set to: 0
  1497                           ;mcc_generated_files/spi/src/spi1.c: 95:         SPI1CON0bits.EN = 1;
  1498   0069C4  8F84               	bsf	132,7,b	;volatile
  1499   0069C6                     l51:
  1500                           
  1501                           ; BSR set to: 0
  1502   0069C6  0012               	return		;funcret
  1503   0069C8                     __end_of_SPI1_Open:
  1504                           	callstack 0
  1505                           
  1506 ;; *************** function _SPI1_Close *****************
  1507 ;; Defined at:
  1508 ;;		line 101 in file "mcc_generated_files/spi/src/spi1.c"
  1509 ;; Parameters:    Size  Location     Type
  1510 ;;		None
  1511 ;; Auto vars:     Size  Location     Type
  1512 ;;		None
  1513 ;; Return value:  Size  Location     Type
  1514 ;;                  1    wreg      void 
  1515 ;; Registers used:
  1516 ;;		None
  1517 ;; Tracked objects:
  1518 ;;		On entry : 0/0
  1519 ;;		On exit  : 0/0
  1520 ;;		Unchanged: 0/0
  1521 ;; Data sizes:     COMRAM   BANK5   BANK6   BANK7   BANK8   BANK9  BANK10  BANK11  BANK12  BANK13  BANK14  BANK15  BANK1
      +6  BANK17  BANK18  BANK19  BANK20  BANK21  BANK22  BANK23  BANK24  BANK25  BANK26  BANK27  BANK28  BANK29  BANK30  BANK3
      +1  BANK32  BANK33  BANK34  BANK35  BANK36
  1522 ;;      Params:         0       0       0       0       0       0       0       0       0       0       0       0       
      +0       0       0       0       0       0       0       0       0       0       0       0       0       0       0       
      +0       0       0       0       0       0
  1523 ;;      Locals:         0       0       0       0       0       0       0       0       0       0       0       0       
      +0       0       0       0       0       0       0       0       0       0       0       0       0       0       0       
      +0       0       0       0       0       0
  1524 ;;      Temps:          0       0       0       0       0       0       0       0       0       0       0       0       
      +0       0       0       0       0       0       0       0       0       0       0       0       0       0       0       
      +0       0       0       0       0       0
  1525 ;;      Totals:         0       0       0       0       0       0       0       0       0       0       0       0       
      +0       0       0       0       0       0       0       0       0       0       0       0       0       0       0       
      +0       0       0       0       0       0
  1526 ;;Total ram usage:        0 bytes
  1527 ;; Hardware stack levels used: 1
  1528 ;; Hardware stack levels required when called: 2
  1529 ;; This function calls:
  1530 ;;		Nothing
  1531 ;; This function is called by:
  1532 ;;		_sendData
  1533 ;;		_main
  1534 ;; This function uses a non-reentrant model
  1535 ;;
  1536                           
  1537                           	psect	text3
  1538   006C44                     __ptext3:
  1539                           	callstack 0
  1540   006C44                     _SPI1_Close:
  1541                           	callstack 123
  1542   006C44                     
  1543                           ;mcc_generated_files/spi/src/spi1.c: 103:     SPI1CON0bits.EN = 0;
  1544   006C44  0100               	movlb	0	; () banked
  1545   006C46  9F84               	bcf	132,7,b	;volatile
  1546   006C48                     
  1547                           ; BSR set to: 0
  1548   006C48  0012               	return		;funcret
  1549   006C4A                     __end_of_SPI1_Close:
  1550                           	callstack 0
  1551                           
  1552 ;; *************** function _SPI1_ByteExchange *****************
  1553 ;; Defined at:
  1554 ;;		line 106 in file "mcc_generated_files/spi/src/spi1.c"
  1555 ;; Parameters:    Size  Location     Type
  1556 ;;  data            1    wreg     unsigned char 
  1557 ;; Auto vars:     Size  Location     Type
  1558 ;;  data            1    0[COMRAM] unsigned char 
  1559 ;; Return value:  Size  Location     Type
  1560 ;;                  1    wreg      unsigned char 
  1561 ;; Registers used:
  1562 ;;		wreg, status,2
  1563 ;; Tracked objects:
  1564 ;;		On entry : 0/0
  1565 ;;		On exit  : 0/0
  1566 ;;		Unchanged: 0/0
  1567 ;; Data sizes:     COMRAM   BANK5   BANK6   BANK7   BANK8   BANK9  BANK10  BANK11  BANK12  BANK13  BANK14  BANK15  BANK1
      +6  BANK17  BANK18  BANK19  BANK20  BANK21  BANK22  BANK23  BANK24  BANK25  BANK26  BANK27  BANK28  BANK29  BANK30  BANK3
      +1  BANK32  BANK33  BANK34  BANK35  BANK36
  1568 ;;      Params:         0       0       0       0       0       0       0       0       0       0       0       0       
      +0       0       0       0       0       0       0       0       0       0       0       0       0       0       0       
      +0       0       0       0       0       0
  1569 ;;      Locals:         1       0       0       0       0       0       0       0       0       0       0       0       
      +0       0       0       0       0       0       0       0       0       0       0       0       0       0       0       
      +0       0       0       0       0       0
  1570 ;;      Temps:          0       0       0       0       0       0       0       0       0       0       0       0       
      +0       0       0       0       0       0       0       0       0       0       0       0       0       0       0       
      +0       0       0       0       0       0
  1571 ;;      Totals:         1       0       0       0       0       0       0       0       0       0       0       0       
      +0       0       0       0       0       0       0       0       0       0       0       0       0       0       0       
      +0       0       0       0       0       0
  1572 ;;Total ram usage:        1 bytes
  1573 ;; Hardware stack levels used: 1
  1574 ;; Hardware stack levels required when called: 2
  1575 ;; This function calls:
  1576 ;;		Nothing
  1577 ;; This function is called by:
  1578 ;;		_sendData
  1579 ;;		_SPI1_BufferWrite
  1580 ;;		_SPI1_BufferRead
  1581 ;;		_SPI1_ExchangeByte
  1582 ;; This function uses a non-reentrant model
  1583 ;;
  1584                           
  1585                           	psect	text4
  1586   006BB2                     __ptext4:
  1587                           	callstack 0
  1588   006BB2                     _SPI1_ByteExchange:
  1589                           	callstack 123
  1590                           
  1591                           ; BSR set to: 0
  1592                           ;incstack = 0
  1593                           ;SPI1_ByteExchange@data stored from wreg
  1594   006BB2  6E01               	movwf	SPI1_ByteExchange@data^(0+1280),c
  1595   006BB4                     
  1596                           ;mcc_generated_files/spi/src/spi1.c: 106: uint8_t SPI1_ByteExchange(uint8_t data);mcc_ge
      +                          nerated_files/spi/src/spi1.c: 107: {;mcc_generated_files/spi/src/spi1.c: 108:     SPI1TC
      +                          NTL = 1;
  1597   006BB4  0E01               	movlw	1
  1598   006BB6  0100               	movlb	0	; () banked
  1599   006BB8  6F82               	movwf	130,b	;volatile
  1600   006BBA                     
  1601                           ; BSR set to: 0
  1602                           ;mcc_generated_files/spi/src/spi1.c: 109:     SPI1TXB = data;
  1603   006BBA  C501  F081         	movff	SPI1_ByteExchange@data,129	;volatile
  1604   006BBE                     l57:
  1605   006BBE  A0B1               	btfss	177,0,c	;volatile
  1606   006BC0  EFE4  F035         	goto	u2701
  1607   006BC4  EFE6  F035         	goto	u2700
  1608   006BC8                     u2701:
  1609   006BC8  EFDF  F035         	goto	l57
  1610   006BCC                     u2700:
  1611   006BCC                     
  1612                           ;mcc_generated_files/spi/src/spi1.c: 111:     return SPI1RXB;
  1613   006BCC  0100               	movlb	0	; () banked
  1614   006BCE  5180               	movf	128,w,b	;volatile
  1615   006BD0                     
  1616                           ; BSR set to: 0
  1617   006BD0  0012               	return		;funcret
  1618   006BD2                     __end_of_SPI1_ByteExchange:
  1619                           	callstack 0
  1620                           
  1621 ;; *************** function _DELAY_milliseconds *****************
  1622 ;; Defined at:
  1623 ;;		line 37 in file "mcc_generated_files/timer/src/delay.c"
  1624 ;; Parameters:    Size  Location     Type
  1625 ;;  milliseconds    2    0[COMRAM] unsigned short 
  1626 ;; Auto vars:     Size  Location     Type
  1627 ;;		None
  1628 ;; Return value:  Size  Location     Type
  1629 ;;                  2    0[COMRAM] int 
  1630 ;; Registers used:
  1631 ;;		wreg, status,2, status,0
  1632 ;; Tracked objects:
  1633 ;;		On entry : 0/0
  1634 ;;		On exit  : 0/0
  1635 ;;		Unchanged: 0/0
  1636 ;; Data sizes:     COMRAM   BANK5   BANK6   BANK7   BANK8   BANK9  BANK10  BANK11  BANK12  BANK13  BANK14  BANK15  BANK1
      +6  BANK17  BANK18  BANK19  BANK20  BANK21  BANK22  BANK23  BANK24  BANK25  BANK26  BANK27  BANK28  BANK29  BANK30  BANK3
      +1  BANK32  BANK33  BANK34  BANK35  BANK36
  1637 ;;      Params:         2       0       0       0       0       0       0       0       0       0       0       0       
      +0       0       0       0       0       0       0       0       0       0       0       0       0       0       0       
      +0       0       0       0       0       0
  1638 ;;      Locals:         0       0       0       0       0       0       0       0       0       0       0       0       
      +0       0       0       0       0       0       0       0       0       0       0       0       0       0       0       
      +0       0       0       0       0       0
  1639 ;;      Temps:          1       0       0       0       0       0       0       0       0       0       0       0       
      +0       0       0       0       0       0       0       0       0       0       0       0       0       0       0       
      +0       0       0       0       0       0
  1640 ;;      Totals:         3       0       0       0       0       0       0       0       0       0       0       0       
      +0       0       0       0       0       0       0       0       0       0       0       0       0       0       0       
      +0       0       0       0       0       0
  1641 ;;Total ram usage:        3 bytes
  1642 ;; Hardware stack levels used: 1
  1643 ;; Hardware stack levels required when called: 2
  1644 ;; This function calls:
  1645 ;;		Nothing
  1646 ;; This function is called by:
  1647 ;;		_sendData
  1648 ;; This function uses a non-reentrant model
  1649 ;;
  1650                           
  1651                           	psect	text5
  1652   006B1C                     __ptext5:
  1653                           	callstack 0
  1654   006B1C                     _DELAY_milliseconds:
  1655                           	callstack 123
  1656   006B1C                     
  1657                           ;mcc_generated_files/timer/src/delay.c: 38:     while(milliseconds--){
  1658   006B1C  EF98  F035         	goto	l3211
  1659   006B20                     l3209:
  1660                           
  1661                           ;mcc_generated_files/timer/src/delay.c: 39:         _delay((unsigned long)((1)*(64000000
      +                          /4000.0)));
  1662   006B20  0E15               	movlw	21
  1663   006B22  6E03               	movwf	??_DELAY_milliseconds^(0+1280),c
  1664   006B24  0EC6               	movlw	198
  1665   006B26                     u4057:
  1666   006B26  2EE8               	decfsz	wreg,f,c
  1667   006B28  D7FE               	bra	u4057
  1668   006B2A  2E03               	decfsz	??_DELAY_milliseconds^(0+1280),f,c
  1669   006B2C  D7FC               	bra	u4057
  1670   006B2E  D000               	nop2	
  1671   006B30                     l3211:
  1672                           
  1673                           ;mcc_generated_files/timer/src/delay.c: 38:     while(milliseconds--){
  1674   006B30  0601               	decf	DELAY_milliseconds@milliseconds^(0+1280),f,c
  1675   006B32  A0D8               	btfss	status,0,c
  1676   006B34  0602               	decf	(DELAY_milliseconds@milliseconds+1)^(0+1280),f,c
  1677   006B36  2801               	incf	DELAY_milliseconds@milliseconds^(0+1280),w,c
  1678   006B38  E106               	bnz	u2711
  1679   006B3A  2802               	incf	(DELAY_milliseconds@milliseconds+1)^(0+1280),w,c
  1680   006B3C  A4D8               	btfss	status,2,c
  1681   006B3E  EFA3  F035         	goto	u2711
  1682   006B42  EFA5  F035         	goto	u2710
  1683   006B46                     u2711:
  1684   006B46  EF90  F035         	goto	l3209
  1685   006B4A                     u2710:
  1686   006B4A  0012               	return		;funcret
  1687   006B4C                     __end_of_DELAY_milliseconds:
  1688                           	callstack 0
  1689                           
  1690 ;; *************** function _powf *****************
  1691 ;; Defined at:
  1692 ;;		line 53 in file "C:\Program Files\Microchip\xc8\v2.40\pic\sources\c99\common\powf.c"
  1693 ;; Parameters:    Size  Location     Type
  1694 ;;  x               4   36[BANK5 ] float 
  1695 ;;  y               4   40[BANK5 ] float 
  1696 ;; Auto vars:     Size  Location     Type
  1697 ;;  s2              4  140[BANK6 ] float 
  1698 ;;  s_h             4  108[BANK6 ] float 
  1699 ;;  t_h             4  104[BANK6 ] float 
  1700 ;;  t_l             4   52[BANK6 ] float 
  1701 ;;  s_l             4   48[BANK6 ] float 
  1702 ;;  __xc8_float_    4  184[BANK6 ] struct .
  1703 ;;  z               4  180[BANK6 ] float 
  1704 ;;  t               4  176[BANK6 ] float 
  1705 ;;  j               4  172[BANK6 ] long 
  1706 ;;  ix              4  168[BANK6 ] long 
  1707 ;;  k               4  160[BANK6 ] long 
  1708 ;;  p_h             4  156[BANK6 ] float 
  1709 ;;  iy              4  152[BANK6 ] long 
  1710 ;;  is              4  144[BANK6 ] long 
  1711 ;;  sn              4  136[BANK6 ] float 
  1712 ;;  hy              4  132[BANK6 ] long 
  1713 ;;  t1              4  128[BANK6 ] float 
  1714 ;;  n               4  124[BANK6 ] long 
  1715 ;;  v               4  120[BANK6 ] float 
  1716 ;;  u               4  116[BANK6 ] float 
  1717 ;;  ax              4  112[BANK6 ] float 
  1718 ;;  p_l             4  100[BANK6 ] float 
  1719 ;;  hx              4   96[BANK6 ] long 
  1720 ;;  s               4   92[BANK6 ] float 
  1721 ;;  yisint          4   80[BANK6 ] long 
  1722 ;;  r               4   76[BANK6 ] float 
  1723 ;;  w               4   68[BANK6 ] float 
  1724 ;;  i               4   44[BANK6 ] long 
  1725 ;;  y1              4   40[BANK6 ] float 
  1726 ;;  z_l             4   36[BANK6 ] float 
  1727 ;;  z_h             4   32[BANK6 ] float 
  1728 ;;  t2              4   28[BANK6 ] float 
  1729 ;; Return value:  Size  Location     Type
  1730 ;;                  4   36[BANK5 ] float 
  1731 ;; Registers used:
  1732 ;;		wreg, status,2, status,0, tblptrl, tblptrh, tblptru, prodl, prodh, cstack
  1733 ;; Tracked objects:
  1734 ;;		On entry : 0/0
  1735 ;;		On exit  : 0/0
  1736 ;;		Unchanged: 0/0
  1737 ;; Data sizes:     COMRAM   BANK5   BANK6   BANK7   BANK8   BANK9  BANK10  BANK11  BANK12  BANK13  BANK14  BANK15  BANK1
      +6  BANK17  BANK18  BANK19  BANK20  BANK21  BANK22  BANK23  BANK24  BANK25  BANK26  BANK27  BANK28  BANK29  BANK30  BANK3
      +1  BANK32  BANK33  BANK34  BANK35  BANK36
  1738 ;;      Params:         0       8       0       0       0       0       0       0       0       0       0       0       
      +0       0       0       0       0       0       0       0       0       0       0       0       0       0       0       
      +0       0       0       0       0       0
  1739 ;;      Locals:         0       0     188       0       0       0       0       0       0       0       0       0       
      +0       0       0       0       0       0       0       0       0       0       0       0       0       0       0       
      +0       0       0       0       0       0
  1740 ;;      Temps:          9       0       0       0       0       0       0       0       0       0       0       0       
      +0       0       0       0       0       0       0       0       0       0       0       0       0       0       0       
      +0       0       0       0       0       0
  1741 ;;      Totals:         9       8     188       0       0       0       0       0       0       0       0       0       
      +0       0       0       0       0       0       0       0       0       0       0       0       0       0       0       
      +0       0       0       0       0       0
  1742 ;;Total ram usage:      205 bytes
  1743 ;; Hardware stack levels used: 1
  1744 ;; Hardware stack levels required when called: 4
  1745 ;; This function calls:
  1746 ;;		___fladd
  1747 ;;		___fldiv
  1748 ;;		___flge
  1749 ;;		___flmul
  1750 ;;		___flneg
  1751 ;;		___flsub
  1752 ;;		___xxtofl
  1753 ;;		_fabsf
  1754 ;;		_scalbnf
  1755 ;;		_sqrtf
  1756 ;; This function is called by:
  1757 ;;		_main
  1758 ;; This function uses a non-reentrant model
  1759 ;;
  1760                           
  1761                           	psect	text6
  1762   0026A0                     __ptext6:
  1763                           	callstack 0
  1764   0026A0                     _powf:
  1765                           	callstack 122
  1766   0026A0  C584  F6B8         	movff	powf@x,powf@__xc8_float_word
  1767   0026A4  C585  F6B9         	movff	powf@x+1,powf@__xc8_float_word+1
  1768   0026A8  C586  F6BA         	movff	powf@x+2,powf@__xc8_float_word+2
  1769   0026AC  C587  F6BB         	movff	powf@x+3,powf@__xc8_float_word+3
  1770   0026B0  C6B8  F660         	movff	powf@__xc8_float_word,powf@hx
  1771   0026B4  C6B9  F661         	movff	powf@__xc8_float_word+1,powf@hx+1
  1772   0026B8  C6BA  F662         	movff	powf@__xc8_float_word+2,powf@hx+2
  1773   0026BC  C6BB  F663         	movff	powf@__xc8_float_word+3,powf@hx+3
  1774   0026C0  C588  F6B8         	movff	powf@y,powf@__xc8_float_word
  1775   0026C4  C589  F6B9         	movff	powf@y+1,powf@__xc8_float_word+1
  1776   0026C8  C58A  F6BA         	movff	powf@y+2,powf@__xc8_float_word+2
  1777   0026CC  C58B  F6BB         	movff	powf@y+3,powf@__xc8_float_word+3
  1778   0026D0  C6B8  F684         	movff	powf@__xc8_float_word,powf@hy
  1779   0026D4  C6B9  F685         	movff	powf@__xc8_float_word+1,powf@hy+1
  1780   0026D8  C6BA  F686         	movff	powf@__xc8_float_word+2,powf@hy+2
  1781   0026DC  C6BB  F687         	movff	powf@__xc8_float_word+3,powf@hy+3
  1782   0026E0  0EFF               	movlw	255
  1783   0026E2  0106               	movlb	6	; () banked
  1784   0026E4  1560               	andwf	powf@hx& (0+255),w,b
  1785   0026E6  6FA8               	movwf	powf@ix& (0+255),b
  1786   0026E8  0EFF               	movlw	255
  1787   0026EA  1561               	andwf	(powf@hx+1)& (0+255),w,b
  1788   0026EC  6FA9               	movwf	(powf@ix+1)& (0+255),b
  1789   0026EE  0EFF               	movlw	255
  1790   0026F0  1562               	andwf	(powf@hx+2)& (0+255),w,b
  1791   0026F2  6FAA               	movwf	(powf@ix+2)& (0+255),b
  1792   0026F4  0E7F               	movlw	127
  1793   0026F6  1563               	andwf	(powf@hx+3)& (0+255),w,b
  1794   0026F8  6FAB               	movwf	(powf@ix+3)& (0+255),b
  1795   0026FA  0EFF               	movlw	255
  1796   0026FC  1584               	andwf	powf@hy& (0+255),w,b
  1797   0026FE  6F98               	movwf	powf@iy& (0+255),b
  1798   002700  0EFF               	movlw	255
  1799   002702  1585               	andwf	(powf@hy+1)& (0+255),w,b
  1800   002704  6F99               	movwf	(powf@iy+1)& (0+255),b
  1801   002706  0EFF               	movlw	255
  1802   002708  1586               	andwf	(powf@hy+2)& (0+255),w,b
  1803   00270A  6F9A               	movwf	(powf@iy+2)& (0+255),b
  1804   00270C  0E7F               	movlw	127
  1805   00270E  1587               	andwf	(powf@hy+3)& (0+255),w,b
  1806   002710  6F9B               	movwf	(powf@iy+3)& (0+255),b
  1807   002712  5198               	movf	powf@iy& (0+255),w,b
  1808   002714  1199               	iorwf	(powf@iy+1)& (0+255),w,b
  1809   002716  119A               	iorwf	(powf@iy+2)& (0+255),w,b
  1810   002718  119B               	iorwf	(powf@iy+3)& (0+255),w,b
  1811   00271A  A4D8               	btfss	status,2,c
  1812   00271C  EF92  F013         	goto	u3301
  1813   002720  EF94  F013         	goto	u3300
  1814   002724                     u3301:
  1815   002724  EF9F  F013         	goto	l3589
  1816   002728                     u3300:
  1817   002728                     
  1818                           ; BSR set to: 6
  1819   002728  0E00               	movlw	0
  1820   00272A  0105               	movlb	5	; () banked
  1821   00272C  6F84               	movwf	?_powf& (0+255),b
  1822   00272E  0E00               	movlw	0
  1823   002730  6F85               	movwf	(?_powf+1)& (0+255),b
  1824   002732  0E80               	movlw	128
  1825   002734  6F86               	movwf	(?_powf+2)& (0+255),b
  1826   002736  0E3F               	movlw	63
  1827   002738  6F87               	movwf	(?_powf+3)& (0+255),b
  1828   00273A  EFDB  F027         	goto	l1172
  1829   00273E                     l3589:
  1830                           
  1831                           ; BSR set to: 6
  1832   00273E  0E80               	movlw	128
  1833   002740  1962               	xorwf	(powf@hx+2)& (0+255),w,b
  1834   002742  E109               	bnz	u3311
  1835   002744  0E3F               	movlw	63
  1836   002746  1963               	xorwf	(powf@hx+3)& (0+255),w,b
  1837   002748  1160               	iorwf	powf@hx& (0+255),w,b
  1838   00274A  1161               	iorwf	(powf@hx+1)& (0+255),w,b
  1839   00274C  A4D8               	btfss	status,2,c
  1840   00274E  EFAB  F013         	goto	u3311
  1841   002752  EFAD  F013         	goto	u3310
  1842   002756                     u3311:
  1843   002756  EFB8  F013         	goto	l3595
  1844   00275A                     u3310:
  1845   00275A                     
  1846                           ; BSR set to: 6
  1847   00275A  0E00               	movlw	0
  1848   00275C  0105               	movlb	5	; () banked
  1849   00275E  6F84               	movwf	?_powf& (0+255),b
  1850   002760  0E00               	movlw	0
  1851   002762  6F85               	movwf	(?_powf+1)& (0+255),b
  1852   002764  0E80               	movlw	128
  1853   002766  6F86               	movwf	(?_powf+2)& (0+255),b
  1854   002768  0E3F               	movlw	63
  1855   00276A  6F87               	movwf	(?_powf+3)& (0+255),b
  1856   00276C  EFDB  F027         	goto	l1172
  1857   002770                     l3595:
  1858                           
  1859                           ; BSR set to: 6
  1860   002770  BFAB               	btfsc	(powf@ix+3)& (0+255),7,b
  1861   002772  EFC9  F013         	goto	u3320
  1862   002776  05A8               	decf	powf@ix& (0+255),w,b
  1863   002778  0E00               	movlw	0
  1864   00277A  59A9               	subwfb	(powf@ix+1)& (0+255),w,b
  1865   00277C  0E80               	movlw	128
  1866   00277E  59AA               	subwfb	(powf@ix+2)& (0+255),w,b
  1867   002780  0E7F               	movlw	127
  1868   002782  59AB               	subwfb	(powf@ix+3)& (0+255),w,b
  1869   002784  B0D8               	btfsc	status,0,c
  1870   002786  EFC7  F013         	goto	u3321
  1871   00278A  EFC9  F013         	goto	u3320
  1872   00278E                     u3321:
  1873   00278E  EFDA  F013         	goto	l3599
  1874   002792                     u3320:
  1875   002792                     
  1876                           ; BSR set to: 6
  1877   002792  BF9B               	btfsc	(powf@iy+3)& (0+255),7,b
  1878   002794  EFD8  F013         	goto	u3331
  1879   002798  0598               	decf	powf@iy& (0+255),w,b
  1880   00279A  0E00               	movlw	0
  1881   00279C  5999               	subwfb	(powf@iy+1)& (0+255),w,b
  1882   00279E  0E80               	movlw	128
  1883   0027A0  599A               	subwfb	(powf@iy+2)& (0+255),w,b
  1884   0027A2  0E7F               	movlw	127
  1885   0027A4  599B               	subwfb	(powf@iy+3)& (0+255),w,b
  1886   0027A6  A0D8               	btfss	status,0,c
  1887   0027A8  EFD8  F013         	goto	u3331
  1888   0027AC  EFDA  F013         	goto	u3330
  1889   0027B0                     u3331:
  1890   0027B0  EFF6  F013         	goto	l3603
  1891   0027B4                     u3330:
  1892   0027B4                     l3599:
  1893                           
  1894                           ; BSR set to: 6
  1895   0027B4  C584  F501         	movff	powf@x,___fladd@b
  1896   0027B8  C585  F502         	movff	powf@x+1,___fladd@b+1
  1897   0027BC  C586  F503         	movff	powf@x+2,___fladd@b+2
  1898   0027C0  C587  F504         	movff	powf@x+3,___fladd@b+3
  1899   0027C4  C588  F505         	movff	powf@y,___fladd@a
  1900   0027C8  C589  F506         	movff	powf@y+1,___fladd@a+1
  1901   0027CC  C58A  F507         	movff	powf@y+2,___fladd@a+2
  1902   0027D0  C58B  F508         	movff	powf@y+3,___fladd@a+3
  1903   0027D4  EC3C  F02A         	call	___fladd	;wreg free
  1904   0027D8  C501  F584         	movff	?___fladd,?_powf
  1905   0027DC  C502  F585         	movff	?___fladd+1,?_powf+1
  1906   0027E0  C503  F586         	movff	?___fladd+2,?_powf+2
  1907   0027E4  C504  F587         	movff	?___fladd+3,?_powf+3
  1908   0027E8  EFDB  F027         	goto	l1172
  1909   0027EC                     l3603:
  1910                           
  1911                           ; BSR set to: 6
  1912   0027EC  0E00               	movlw	0
  1913   0027EE  6F50               	movwf	powf@yisint& (0+255),b
  1914   0027F0  0E00               	movlw	0
  1915   0027F2  6F51               	movwf	(powf@yisint+1)& (0+255),b
  1916   0027F4  0E00               	movlw	0
  1917   0027F6  6F52               	movwf	(powf@yisint+2)& (0+255),b
  1918   0027F8  0E00               	movlw	0
  1919   0027FA  6F53               	movwf	(powf@yisint+3)& (0+255),b
  1920   0027FC                     
  1921                           ; BSR set to: 6
  1922   0027FC  BF63               	btfsc	(powf@hx+3)& (0+255),7,b
  1923   0027FE  EF05  F014         	goto	u3340
  1924   002802  EF03  F014         	goto	u3341
  1925   002806                     u3341:
  1926   002806  EFB0  F014         	goto	l1177
  1927   00280A                     u3340:
  1928   00280A                     
  1929                           ; BSR set to: 6
  1930   00280A  BF9B               	btfsc	(powf@iy+3)& (0+255),7,b
  1931   00280C  EF11  F014         	goto	u3351
  1932   002810  0E80               	movlw	128
  1933   002812  5D9A               	subwf	(powf@iy+2)& (0+255),w,b
  1934   002814  0E4B               	movlw	75
  1935   002816  599B               	subwfb	(powf@iy+3)& (0+255),w,b
  1936   002818  A0D8               	btfss	status,0,c
  1937   00281A  EF11  F014         	goto	u3351
  1938   00281E  EF13  F014         	goto	u3350
  1939   002822                     u3351:
  1940   002822  EF1D  F014         	goto	l3611
  1941   002826                     u3350:
  1942   002826                     
  1943                           ; BSR set to: 6
  1944   002826  0E02               	movlw	2
  1945   002828  6F50               	movwf	powf@yisint& (0+255),b
  1946   00282A  0E00               	movlw	0
  1947   00282C  6F51               	movwf	(powf@yisint+1)& (0+255),b
  1948   00282E  0E00               	movlw	0
  1949   002830  6F52               	movwf	(powf@yisint+2)& (0+255),b
  1950   002832  0E00               	movlw	0
  1951   002834  6F53               	movwf	(powf@yisint+3)& (0+255),b
  1952   002836  EFB0  F014         	goto	l1177
  1953   00283A                     l3611:
  1954                           
  1955                           ; BSR set to: 6
  1956   00283A  BF9B               	btfsc	(powf@iy+3)& (0+255),7,b
  1957   00283C  EF29  F014         	goto	u3361
  1958   002840  0E80               	movlw	128
  1959   002842  5D9A               	subwf	(powf@iy+2)& (0+255),w,b
  1960   002844  0E3F               	movlw	63
  1961   002846  599B               	subwfb	(powf@iy+3)& (0+255),w,b
  1962   002848  A0D8               	btfss	status,0,c
  1963   00284A  EF29  F014         	goto	u3361
  1964   00284E  EF2B  F014         	goto	u3360
  1965   002852                     u3361:
  1966   002852  EFB0  F014         	goto	l1177
  1967   002856                     u3360:
  1968   002856                     
  1969                           ; BSR set to: 6
  1970   002856  0E17               	movlw	23
  1971   002858  6E4B               	movwf	??_powf^(0+1280),c
  1972   00285A  C698  F54C         	movff	powf@iy,??_powf+1
  1973   00285E  C699  F54D         	movff	powf@iy+1,??_powf+2
  1974   002862  C69A  F54E         	movff	powf@iy+2,??_powf+3
  1975   002866  C69B  F54F         	movff	powf@iy+3,??_powf+4
  1976   00286A                     u3375:
  1977   00286A  664B               	tstfsz	??_powf^(0+1280),c
  1978   00286C  EF3A  F014         	goto	u3376
  1979   002870  EF42  F014         	goto	u3377
  1980   002874                     u3376:
  1981   002874  344F               	rlcf	(??_powf+4)^(0+1280),w,c
  1982   002876  324F               	rrcf	(??_powf+4)^(0+1280),f,c
  1983   002878  324E               	rrcf	(??_powf+3)^(0+1280),f,c
  1984   00287A  324D               	rrcf	(??_powf+2)^(0+1280),f,c
  1985   00287C  324C               	rrcf	(??_powf+1)^(0+1280),f,c
  1986   00287E  2E4B               	decfsz	??_powf^(0+1280),f,c
  1987   002880  EF35  F014         	goto	u3375
  1988   002884                     u3377:
  1989   002884  0E81               	movlw	129
  1990   002886  244C               	addwf	(??_powf+1)^(0+1280),w,c
  1991   002888  0106               	movlb	6	; () banked
  1992   00288A  6FA0               	movwf	powf@k& (0+255),b
  1993   00288C  0EFF               	movlw	255
  1994   00288E  204D               	addwfc	(??_powf+2)^(0+1280),w,c
  1995   002890  6FA1               	movwf	(powf@k+1)& (0+255),b
  1996   002892  0EFF               	movlw	255
  1997   002894  204E               	addwfc	(??_powf+3)^(0+1280),w,c
  1998   002896  6FA2               	movwf	(powf@k+2)& (0+255),b
  1999   002898  0EFF               	movlw	255
  2000   00289A  204F               	addwfc	(??_powf+4)^(0+1280),w,c
  2001   00289C  6FA3               	movwf	(powf@k+3)& (0+255),b
  2002   00289E  51A0               	movf	powf@k& (0+255),w,b
  2003   0028A0  0817               	sublw	23
  2004   0028A2  6E4B               	movwf	??_powf^(0+1280),c
  2005   0028A4  C698  F54C         	movff	powf@iy,??_powf+1
  2006   0028A8  C699  F54D         	movff	powf@iy+1,??_powf+2
  2007   0028AC  C69A  F54E         	movff	powf@iy+2,??_powf+3
  2008   0028B0  C69B  F54F         	movff	powf@iy+3,??_powf+4
  2009   0028B4                     u3385:
  2010   0028B4  664B               	tstfsz	??_powf^(0+1280),c
  2011   0028B6  EF5F  F014         	goto	u3386
  2012   0028BA  EF67  F014         	goto	u3387
  2013   0028BE                     u3386:
  2014   0028BE  344F               	rlcf	(??_powf+4)^(0+1280),w,c
  2015   0028C0  324F               	rrcf	(??_powf+4)^(0+1280),f,c
  2016   0028C2  324E               	rrcf	(??_powf+3)^(0+1280),f,c
  2017   0028C4  324D               	rrcf	(??_powf+2)^(0+1280),f,c
  2018   0028C6  324C               	rrcf	(??_powf+1)^(0+1280),f,c
  2019   0028C8  2E4B               	decfsz	??_powf^(0+1280),f,c
  2020   0028CA  EF5A  F014         	goto	u3385
  2021   0028CE                     u3387:
  2022   0028CE  C54C  F6AC         	movff	??_powf+1,powf@j
  2023   0028D2  C54D  F6AD         	movff	??_powf+2,powf@j+1
  2024   0028D6  C54E  F6AE         	movff	??_powf+3,powf@j+2
  2025   0028DA  C54F  F6AF         	movff	??_powf+4,powf@j+3
  2026   0028DE  0106               	movlb	6	; () banked
  2027   0028E0  51A0               	movf	powf@k& (0+255),w,b
  2028   0028E2  0817               	sublw	23
  2029   0028E4  6E4B               	movwf	??_powf^(0+1280),c
  2030   0028E6  C6AC  F54C         	movff	powf@j,??_powf+1
  2031   0028EA  C6AD  F54D         	movff	powf@j+1,??_powf+2
  2032   0028EE  C6AE  F54E         	movff	powf@j+2,??_powf+3
  2033   0028F2  C6AF  F54F         	movff	powf@j+3,??_powf+4
  2034   0028F6  2A4B               	incf	??_powf^(0+1280),f,c
  2035   0028F8  EF83  F014         	goto	u3390
  2036   0028FC                     u3395:
  2037   0028FC  90D8               	bcf	status,0,c
  2038   0028FE  364C               	rlcf	(??_powf+1)^(0+1280),f,c
  2039   002900  364D               	rlcf	(??_powf+2)^(0+1280),f,c
  2040   002902  364E               	rlcf	(??_powf+3)^(0+1280),f,c
  2041   002904  364F               	rlcf	(??_powf+4)^(0+1280),f,c
  2042   002906                     u3390:
  2043   002906  2E4B               	decfsz	??_powf^(0+1280),f,c
  2044   002908  EF7E  F014         	goto	u3395
  2045   00290C  5198               	movf	powf@iy& (0+255),w,b
  2046   00290E  184C               	xorwf	(??_powf+1)^(0+1280),w,c
  2047   002910  E10D               	bnz	u3401
  2048   002912  5199               	movf	(powf@iy+1)& (0+255),w,b
  2049   002914  184D               	xorwf	(??_powf+2)^(0+1280),w,c
  2050   002916  E10A               	bnz	u3401
  2051   002918  519A               	movf	(powf@iy+2)& (0+255),w,b
  2052   00291A  184E               	xorwf	(??_powf+3)^(0+1280),w,c
  2053   00291C  E107               	bnz	u3401
  2054   00291E  519B               	movf	(powf@iy+3)& (0+255),w,b
  2055   002920  184F               	xorwf	(??_powf+4)^(0+1280),w,c
  2056   002922  A4D8               	btfss	status,2,c
  2057   002924  EF96  F014         	goto	u3401
  2058   002928  EF98  F014         	goto	u3400
  2059   00292C                     u3401:
  2060   00292C  EFB0  F014         	goto	l1177
  2061   002930                     u3400:
  2062   002930                     
  2063                           ; BSR set to: 6
  2064   002930  0E01               	movlw	1
  2065   002932  15AC               	andwf	powf@j& (0+255),w,b
  2066   002934  6E4B               	movwf	??_powf^(0+1280),c
  2067   002936  0E00               	movlw	0
  2068   002938  15AD               	andwf	(powf@j+1)& (0+255),w,b
  2069   00293A  6E4C               	movwf	(??_powf+1)^(0+1280),c
  2070   00293C  0E00               	movlw	0
  2071   00293E  15AE               	andwf	(powf@j+2)& (0+255),w,b
  2072   002940  6E4D               	movwf	(??_powf+2)^(0+1280),c
  2073   002942  0E00               	movlw	0
  2074   002944  15AF               	andwf	(powf@j+3)& (0+255),w,b
  2075   002946  6E4E               	movwf	(??_powf+3)^(0+1280),c
  2076   002948  504B               	movf	??_powf^(0+1280),w,c
  2077   00294A  0802               	sublw	2
  2078   00294C  6F50               	movwf	powf@yisint& (0+255),b
  2079   00294E  0E00               	movlw	0
  2080   002950  544C               	subfwb	(??_powf+1)^(0+1280),w,c
  2081   002952  6F51               	movwf	(powf@yisint+1)& (0+255),b
  2082   002954  0E00               	movlw	0
  2083   002956  544D               	subfwb	(??_powf+2)^(0+1280),w,c
  2084   002958  6F52               	movwf	(powf@yisint+2)& (0+255),b
  2085   00295A  0E00               	movlw	0
  2086   00295C  544E               	subfwb	(??_powf+3)^(0+1280),w,c
  2087   00295E  6F53               	movwf	(powf@yisint+3)& (0+255),b
  2088   002960                     l1177:
  2089                           
  2090                           ; BSR set to: 6
  2091   002960  0E80               	movlw	128
  2092   002962  199A               	xorwf	(powf@iy+2)& (0+255),w,b
  2093   002964  E109               	bnz	u3411
  2094   002966  0E7F               	movlw	127
  2095   002968  199B               	xorwf	(powf@iy+3)& (0+255),w,b
  2096   00296A  1198               	iorwf	powf@iy& (0+255),w,b
  2097   00296C  1199               	iorwf	(powf@iy+1)& (0+255),w,b
  2098   00296E  A4D8               	btfss	status,2,c
  2099   002970  EFBC  F014         	goto	u3411
  2100   002974  EFBE  F014         	goto	u3410
  2101   002978                     u3411:
  2102   002978  EF2A  F015         	goto	l3641
  2103   00297C                     u3410:
  2104   00297C                     
  2105                           ; BSR set to: 6
  2106   00297C  0E80               	movlw	128
  2107   00297E  19AA               	xorwf	(powf@ix+2)& (0+255),w,b
  2108   002980  E109               	bnz	u3421
  2109   002982  0E3F               	movlw	63
  2110   002984  19AB               	xorwf	(powf@ix+3)& (0+255),w,b
  2111   002986  11A8               	iorwf	powf@ix& (0+255),w,b
  2112   002988  11A9               	iorwf	(powf@ix+1)& (0+255),w,b
  2113   00298A  A4D8               	btfss	status,2,c
  2114   00298C  EFCA  F014         	goto	u3421
  2115   002990  EFCC  F014         	goto	u3420
  2116   002994                     u3421:
  2117   002994  EFD7  F014         	goto	l3625
  2118   002998                     u3420:
  2119   002998                     
  2120                           ; BSR set to: 6
  2121   002998  0E00               	movlw	0
  2122   00299A  0105               	movlb	5	; () banked
  2123   00299C  6F84               	movwf	?_powf& (0+255),b
  2124   00299E  0E00               	movlw	0
  2125   0029A0  6F85               	movwf	(?_powf+1)& (0+255),b
  2126   0029A2  0E80               	movlw	128
  2127   0029A4  6F86               	movwf	(?_powf+2)& (0+255),b
  2128   0029A6  0E3F               	movlw	63
  2129   0029A8  6F87               	movwf	(?_powf+3)& (0+255),b
  2130   0029AA  EFDB  F027         	goto	l1172
  2131   0029AE                     l3625:
  2132                           
  2133                           ; BSR set to: 6
  2134   0029AE  BFAB               	btfsc	(powf@ix+3)& (0+255),7,b
  2135   0029B0  EFE6  F014         	goto	u3431
  2136   0029B4  05A8               	decf	powf@ix& (0+255),w,b
  2137   0029B6  0E00               	movlw	0
  2138   0029B8  59A9               	subwfb	(powf@ix+1)& (0+255),w,b
  2139   0029BA  0E80               	movlw	128
  2140   0029BC  59AA               	subwfb	(powf@ix+2)& (0+255),w,b
  2141   0029BE  0E3F               	movlw	63
  2142   0029C0  59AB               	subwfb	(powf@ix+3)& (0+255),w,b
  2143   0029C2  A0D8               	btfss	status,0,c
  2144   0029C4  EFE6  F014         	goto	u3431
  2145   0029C8  EFE8  F014         	goto	u3430
  2146   0029CC                     u3431:
  2147   0029CC  EF04  F015         	goto	l3633
  2148   0029D0                     u3430:
  2149   0029D0                     
  2150                           ; BSR set to: 6
  2151   0029D0  BF87               	btfsc	(powf@hy+3)& (0+255),7,b
  2152   0029D2  EFEF  F014         	goto	u3440
  2153   0029D6  EFED  F014         	goto	u3441
  2154   0029DA                     u3441:
  2155   0029DA  EFFA  F014         	goto	l1187
  2156   0029DE                     u3440:
  2157   0029DE                     
  2158                           ; BSR set to: 6
  2159   0029DE  0E00               	movlw	0
  2160   0029E0  0105               	movlb	5	; () banked
  2161   0029E2  6F84               	movwf	?_powf& (0+255),b
  2162   0029E4  0E00               	movlw	0
  2163   0029E6  6F85               	movwf	(?_powf+1)& (0+255),b
  2164   0029E8  0E00               	movlw	0
  2165   0029EA  6F86               	movwf	(?_powf+2)& (0+255),b
  2166   0029EC  0E00               	movlw	0
  2167   0029EE  6F87               	movwf	(?_powf+3)& (0+255),b
  2168   0029F0  EFDB  F027         	goto	l1172
  2169   0029F4                     l1187:
  2170                           
  2171                           ; BSR set to: 6
  2172   0029F4  C588  F584         	movff	powf@y,?_powf
  2173   0029F8  C589  F585         	movff	powf@y+1,?_powf+1
  2174   0029FC  C58A  F586         	movff	powf@y+2,?_powf+2
  2175   002A00  C58B  F587         	movff	powf@y+3,?_powf+3
  2176   002A04  EFDB  F027         	goto	l1172
  2177   002A08                     l3633:
  2178                           
  2179                           ; BSR set to: 6
  2180   002A08  BF87               	btfsc	(powf@hy+3)& (0+255),7,b
  2181   002A0A  EF0B  F015         	goto	u3450
  2182   002A0E  EF09  F015         	goto	u3451
  2183   002A12                     u3451:
  2184   002A12  EF1F  F015         	goto	l3637
  2185   002A16                     u3450:
  2186   002A16                     
  2187                           ; BSR set to: 6
  2188   002A16  C588  F501         	movff	powf@y,___flneg@f1
  2189   002A1A  C589  F502         	movff	powf@y+1,___flneg@f1+1
  2190   002A1E  C58A  F503         	movff	powf@y+2,___flneg@f1+2
  2191   002A22  C58B  F504         	movff	powf@y+3,___flneg@f1+3
  2192   002A26  EC58  F035         	call	___flneg	;wreg free
  2193   002A2A  C501  F584         	movff	?___flneg,?_powf
  2194   002A2E  C502  F585         	movff	?___flneg+1,?_powf+1
  2195   002A32  C503  F586         	movff	?___flneg+2,?_powf+2
  2196   002A36  C504  F587         	movff	?___flneg+3,?_powf+3
  2197   002A3A  EFDB  F027         	goto	l1172
  2198   002A3E                     l3637:
  2199                           
  2200                           ; BSR set to: 6
  2201   002A3E  0E00               	movlw	0
  2202   002A40  0105               	movlb	5	; () banked
  2203   002A42  6F84               	movwf	?_powf& (0+255),b
  2204   002A44  0E00               	movlw	0
  2205   002A46  6F85               	movwf	(?_powf+1)& (0+255),b
  2206   002A48  0E00               	movlw	0
  2207   002A4A  6F86               	movwf	(?_powf+2)& (0+255),b
  2208   002A4C  0E00               	movlw	0
  2209   002A4E  6F87               	movwf	(?_powf+3)& (0+255),b
  2210   002A50  EFDB  F027         	goto	l1172
  2211   002A54                     l3641:
  2212                           
  2213                           ; BSR set to: 6
  2214   002A54  0E80               	movlw	128
  2215   002A56  199A               	xorwf	(powf@iy+2)& (0+255),w,b
  2216   002A58  E109               	bnz	u3461
  2217   002A5A  0E3F               	movlw	63
  2218   002A5C  199B               	xorwf	(powf@iy+3)& (0+255),w,b
  2219   002A5E  1198               	iorwf	powf@iy& (0+255),w,b
  2220   002A60  1199               	iorwf	(powf@iy+1)& (0+255),w,b
  2221   002A62  A4D8               	btfss	status,2,c
  2222   002A64  EF36  F015         	goto	u3461
  2223   002A68  EF38  F015         	goto	u3460
  2224   002A6C                     u3461:
  2225   002A6C  EF65  F015         	goto	l3647
  2226   002A70                     u3460:
  2227   002A70                     
  2228                           ; BSR set to: 6
  2229   002A70  BF87               	btfsc	(powf@hy+3)& (0+255),7,b
  2230   002A72  EF3F  F015         	goto	u3470
  2231   002A76  EF3D  F015         	goto	u3471
  2232   002A7A                     u3471:
  2233   002A7A  EF5B  F015         	goto	l1197
  2234   002A7E                     u3470:
  2235   002A7E                     
  2236                           ; BSR set to: 6
  2237   002A7E  0E00               	movlw	0
  2238   002A80  6E32               	movwf	___fldiv@b^(0+1280),c
  2239   002A82  0E00               	movlw	0
  2240   002A84  6E33               	movwf	(___fldiv@b+1)^(0+1280),c
  2241   002A86  0E80               	movlw	128
  2242   002A88  6E34               	movwf	(___fldiv@b+2)^(0+1280),c
  2243   002A8A  0E3F               	movlw	63
  2244   002A8C  6E35               	movwf	(___fldiv@b+3)^(0+1280),c
  2245   002A8E  C584  F536         	movff	powf@x,___fldiv@a
  2246   002A92  C585  F537         	movff	powf@x+1,___fldiv@a+1
  2247   002A96  C586  F538         	movff	powf@x+2,___fldiv@a+2
  2248   002A9A  C587  F539         	movff	powf@x+3,___fldiv@a+3
  2249   002A9E  ECB1  F02E         	call	___fldiv	;wreg free
  2250   002AA2  C532  F584         	movff	?___fldiv,?_powf
  2251   002AA6  C533  F585         	movff	?___fldiv+1,?_powf+1
  2252   002AAA  C534  F586         	movff	?___fldiv+2,?_powf+2
  2253   002AAE  C535  F587         	movff	?___fldiv+3,?_powf+3
  2254   002AB2  EFDB  F027         	goto	l1172
  2255   002AB6                     l1197:
  2256                           
  2257                           ; BSR set to: 6
  2258   002AB6  C584  F584         	movff	powf@x,?_powf
  2259   002ABA  C585  F585         	movff	powf@x+1,?_powf+1
  2260   002ABE  C586  F586         	movff	powf@x+2,?_powf+2
  2261   002AC2  C587  F587         	movff	powf@x+3,?_powf+3
  2262   002AC6  EFDB  F027         	goto	l1172
  2263   002ACA                     l3647:
  2264                           
  2265                           ; BSR set to: 6
  2266   002ACA  0E40               	movlw	64
  2267   002ACC  1987               	xorwf	(powf@hy+3)& (0+255),w,b
  2268   002ACE  1184               	iorwf	powf@hy& (0+255),w,b
  2269   002AD0  1185               	iorwf	(powf@hy+1)& (0+255),w,b
  2270   002AD2  1186               	iorwf	(powf@hy+2)& (0+255),w,b
  2271   002AD4  A4D8               	btfss	status,2,c
  2272   002AD6  EF6F  F015         	goto	u3481
  2273   002ADA  EF71  F015         	goto	u3480
  2274   002ADE                     u3481:
  2275   002ADE  EF8D  F015         	goto	l3653
  2276   002AE2                     u3480:
  2277   002AE2                     
  2278                           ; BSR set to: 6
  2279   002AE2  C584  F511         	movff	powf@x,___flmul@b
  2280   002AE6  C585  F512         	movff	powf@x+1,___flmul@b+1
  2281   002AEA  C586  F513         	movff	powf@x+2,___flmul@b+2
  2282   002AEE  C587  F514         	movff	powf@x+3,___flmul@b+3
  2283   002AF2  C584  F515         	movff	powf@x,___flmul@a
  2284   002AF6  C585  F516         	movff	powf@x+1,___flmul@a+1
  2285   002AFA  C586  F517         	movff	powf@x+2,___flmul@a+2
  2286   002AFE  C587  F518         	movff	powf@x+3,___flmul@a+3
  2287   002B02  EC9C  F02C         	call	___flmul	;wreg free
  2288   002B06  C511  F584         	movff	?___flmul,?_powf
  2289   002B0A  C512  F585         	movff	?___flmul+1,?_powf+1
  2290   002B0E  C513  F586         	movff	?___flmul+2,?_powf+2
  2291   002B12  C514  F587         	movff	?___flmul+3,?_powf+3
  2292   002B16  EFDB  F027         	goto	l1172
  2293   002B1A                     l3653:
  2294                           
  2295                           ; BSR set to: 6
  2296   002B1A  0E3F               	movlw	63
  2297   002B1C  1987               	xorwf	(powf@hy+3)& (0+255),w,b
  2298   002B1E  1184               	iorwf	powf@hy& (0+255),w,b
  2299   002B20  1185               	iorwf	(powf@hy+1)& (0+255),w,b
  2300   002B22  1186               	iorwf	(powf@hy+2)& (0+255),w,b
  2301   002B24  A4D8               	btfss	status,2,c
  2302   002B26  EF97  F015         	goto	u3491
  2303   002B2A  EF99  F015         	goto	u3490
  2304   002B2E                     u3491:
  2305   002B2E  EFB4  F015         	goto	l3661
  2306   002B32                     u3490:
  2307   002B32                     
  2308                           ; BSR set to: 6
  2309   002B32  BF63               	btfsc	(powf@hx+3)& (0+255),7,b
  2310   002B34  EF9E  F015         	goto	u3501
  2311   002B38  EFA0  F015         	goto	u3500
  2312   002B3C                     u3501:
  2313   002B3C  EFB4  F015         	goto	l3661
  2314   002B40                     u3500:
  2315   002B40                     
  2316                           ; BSR set to: 6
  2317   002B40  C584  F53E         	movff	powf@x,sqrtf@x
  2318   002B44  C585  F53F         	movff	powf@x+1,sqrtf@x+1
  2319   002B48  C586  F540         	movff	powf@x+2,sqrtf@x+2
  2320   002B4C  C587  F541         	movff	powf@x+3,sqrtf@x+3
  2321   002B50  ECDC  F027         	call	_sqrtf	;wreg free
  2322   002B54  C53E  F584         	movff	?_sqrtf,?_powf
  2323   002B58  C53F  F585         	movff	?_sqrtf+1,?_powf+1
  2324   002B5C  C540  F586         	movff	?_sqrtf+2,?_powf+2
  2325   002B60  C541  F587         	movff	?_sqrtf+3,?_powf+3
  2326   002B64  EFDB  F027         	goto	l1172
  2327   002B68                     l3661:
  2328                           
  2329                           ; BSR set to: 6
  2330   002B68  C584  F501         	movff	powf@x,fabsf@x
  2331   002B6C  C585  F502         	movff	powf@x+1,fabsf@x+1
  2332   002B70  C586  F503         	movff	powf@x+2,fabsf@x+2
  2333   002B74  C587  F504         	movff	powf@x+3,fabsf@x+3
  2334   002B78  EC74  F035         	call	_fabsf	;wreg free
  2335   002B7C  C501  F670         	movff	?_fabsf,powf@ax
  2336   002B80  C502  F671         	movff	?_fabsf+1,powf@ax+1
  2337   002B84  C503  F672         	movff	?_fabsf+2,powf@ax+2
  2338   002B88  C504  F673         	movff	?_fabsf+3,powf@ax+3
  2339   002B8C  0E80               	movlw	128
  2340   002B8E  0106               	movlb	6	; () banked
  2341   002B90  19AA               	xorwf	(powf@ix+2)& (0+255),w,b
  2342   002B92  E10B               	bnz	u3510
  2343   002B94  0E7F               	movlw	127
  2344   002B96  19AB               	xorwf	(powf@ix+3)& (0+255),w,b
  2345   002B98  11A8               	iorwf	powf@ix& (0+255),w,b
  2346   002B9A  11A9               	iorwf	(powf@ix+1)& (0+255),w,b
  2347   002B9C  B4D8               	btfsc	status,2,c
  2348   002B9E  EFD3  F015         	goto	u3511
  2349   002BA2  EFD5  F015         	goto	u3510
  2350   002BA6                     u3511:
  2351   002BA6  EFEE  F015         	goto	l1205
  2352   002BAA                     u3510:
  2353   002BAA                     
  2354                           ; BSR set to: 6
  2355   002BAA  51A8               	movf	powf@ix& (0+255),w,b
  2356   002BAC  11A9               	iorwf	(powf@ix+1)& (0+255),w,b
  2357   002BAE  11AA               	iorwf	(powf@ix+2)& (0+255),w,b
  2358   002BB0  11AB               	iorwf	(powf@ix+3)& (0+255),w,b
  2359   002BB2  B4D8               	btfsc	status,2,c
  2360   002BB4  EFDE  F015         	goto	u3521
  2361   002BB8  EFE0  F015         	goto	u3520
  2362   002BBC                     u3521:
  2363   002BBC  EFEE  F015         	goto	l1205
  2364   002BC0                     u3520:
  2365   002BC0                     
  2366                           ; BSR set to: 6
  2367   002BC0  0E80               	movlw	128
  2368   002BC2  19AA               	xorwf	(powf@ix+2)& (0+255),w,b
  2369   002BC4  E109               	bnz	u3531
  2370   002BC6  0E3F               	movlw	63
  2371   002BC8  19AB               	xorwf	(powf@ix+3)& (0+255),w,b
  2372   002BCA  11A8               	iorwf	powf@ix& (0+255),w,b
  2373   002BCC  11A9               	iorwf	(powf@ix+1)& (0+255),w,b
  2374   002BCE  A4D8               	btfss	status,2,c
  2375   002BD0  EFEC  F015         	goto	u3531
  2376   002BD4  EFEE  F015         	goto	u3530
  2377   002BD8                     u3531:
  2378   002BD8  EFAD  F016         	goto	l3689
  2379   002BDC                     u3530:
  2380   002BDC                     l1205:
  2381                           
  2382                           ; BSR set to: 6
  2383   002BDC  C670  F6B4         	movff	powf@ax,powf@z
  2384   002BE0  C671  F6B5         	movff	powf@ax+1,powf@z+1
  2385   002BE4  C672  F6B6         	movff	powf@ax+2,powf@z+2
  2386   002BE8  C673  F6B7         	movff	powf@ax+3,powf@z+3
  2387   002BEC                     
  2388                           ; BSR set to: 6
  2389   002BEC  BF87               	btfsc	(powf@hy+3)& (0+255),7,b
  2390   002BEE  EFFD  F015         	goto	u3540
  2391   002BF2  EFFB  F015         	goto	u3541
  2392   002BF6                     u3541:
  2393   002BF6  EF17  F016         	goto	l3673
  2394   002BFA                     u3540:
  2395   002BFA                     
  2396                           ; BSR set to: 6
  2397   002BFA  0E00               	movlw	0
  2398   002BFC  6E32               	movwf	___fldiv@b^(0+1280),c
  2399   002BFE  0E00               	movlw	0
  2400   002C00  6E33               	movwf	(___fldiv@b+1)^(0+1280),c
  2401   002C02  0E80               	movlw	128
  2402   002C04  6E34               	movwf	(___fldiv@b+2)^(0+1280),c
  2403   002C06  0E3F               	movlw	63
  2404   002C08  6E35               	movwf	(___fldiv@b+3)^(0+1280),c
  2405   002C0A  C6B4  F536         	movff	powf@z,___fldiv@a
  2406   002C0E  C6B5  F537         	movff	powf@z+1,___fldiv@a+1
  2407   002C12  C6B6  F538         	movff	powf@z+2,___fldiv@a+2
  2408   002C16  C6B7  F539         	movff	powf@z+3,___fldiv@a+3
  2409   002C1A  ECB1  F02E         	call	___fldiv	;wreg free
  2410   002C1E  C532  F6B4         	movff	?___fldiv,powf@z
  2411   002C22  C533  F6B5         	movff	?___fldiv+1,powf@z+1
  2412   002C26  C534  F6B6         	movff	?___fldiv+2,powf@z+2
  2413   002C2A  C535  F6B7         	movff	?___fldiv+3,powf@z+3
  2414   002C2E                     l3673:
  2415   002C2E  0106               	movlb	6	; () banked
  2416   002C30  BF63               	btfsc	(powf@hx+3)& (0+255),7,b
  2417   002C32  EF1F  F016         	goto	u3550
  2418   002C36  EF1D  F016         	goto	u3551
  2419   002C3A                     u3551:
  2420   002C3A  EFA3  F016         	goto	l3685
  2421   002C3E                     u3550:
  2422   002C3E                     
  2423                           ; BSR set to: 6
  2424   002C3E  0E00               	movlw	0
  2425   002C40  25A8               	addwf	powf@ix& (0+255),w,b
  2426   002C42  6E4B               	movwf	??_powf^(0+1280),c
  2427   002C44  0E00               	movlw	0
  2428   002C46  21A9               	addwfc	(powf@ix+1)& (0+255),w,b
  2429   002C48  6E4C               	movwf	(??_powf+1)^(0+1280),c
  2430   002C4A  0E80               	movlw	128
  2431   002C4C  21AA               	addwfc	(powf@ix+2)& (0+255),w,b
  2432   002C4E  6E4D               	movwf	(??_powf+2)^(0+1280),c
  2433   002C50  0EC0               	movlw	192
  2434   002C52  21AB               	addwfc	(powf@ix+3)& (0+255),w,b
  2435   002C54  6E4E               	movwf	(??_powf+3)^(0+1280),c
  2436   002C56  5150               	movf	powf@yisint& (0+255),w,b
  2437   002C58  104B               	iorwf	??_powf^(0+1280),w,c
  2438   002C5A  6E4F               	movwf	(??_powf+4)^(0+1280),c
  2439   002C5C  5151               	movf	(powf@yisint+1)& (0+255),w,b
  2440   002C5E  104C               	iorwf	(??_powf+1)^(0+1280),w,c
  2441   002C60  6E50               	movwf	(??_powf+5)^(0+1280),c
  2442   002C62  5152               	movf	(powf@yisint+2)& (0+255),w,b
  2443   002C64  104D               	iorwf	(??_powf+2)^(0+1280),w,c
  2444   002C66  6E51               	movwf	(??_powf+6)^(0+1280),c
  2445   002C68  5153               	movf	(powf@yisint+3)& (0+255),w,b
  2446   002C6A  104E               	iorwf	(??_powf+3)^(0+1280),w,c
  2447   002C6C  6E52               	movwf	(??_powf+7)^(0+1280),c
  2448   002C6E  504F               	movf	(??_powf+4)^(0+1280),w,c
  2449   002C70  1050               	iorwf	(??_powf+5)^(0+1280),w,c
  2450   002C72  1051               	iorwf	(??_powf+6)^(0+1280),w,c
  2451   002C74  1052               	iorwf	(??_powf+7)^(0+1280),w,c
  2452   002C76  A4D8               	btfss	status,2,c
  2453   002C78  EF40  F016         	goto	u3561
  2454   002C7C  EF42  F016         	goto	u3560
  2455   002C80                     u3561:
  2456   002C80  EF86  F016         	goto	l3681
  2457   002C84                     u3560:
  2458   002C84                     
  2459                           ; BSR set to: 6
  2460   002C84  0E00               	movlw	0
  2461   002C86  6E5E               	movwf	(_errno+1)^(0+1280),c
  2462   002C88  0E21               	movlw	33
  2463   002C8A  6E5D               	movwf	_errno^(0+1280),c
  2464   002C8C                     
  2465                           ; BSR set to: 6
  2466   002C8C  C6B4  F52E         	movff	powf@z,___flsub@a
  2467   002C90  C6B5  F52F         	movff	powf@z+1,___flsub@a+1
  2468   002C94  C6B6  F530         	movff	powf@z+2,___flsub@a+2
  2469   002C98  C6B7  F531         	movff	powf@z+3,___flsub@a+3
  2470   002C9C  C6B4  F52A         	movff	powf@z,___flsub@b
  2471   002CA0  C6B5  F52B         	movff	powf@z+1,___flsub@b+1
  2472   002CA4  C6B6  F52C         	movff	powf@z+2,___flsub@b+2
  2473   002CA8  C6B7  F52D         	movff	powf@z+3,___flsub@b+3
  2474   002CAC  EC15  F035         	call	___flsub	;wreg free
  2475   002CB0  C52A  F532         	movff	?___flsub,___fldiv@b
  2476   002CB4  C52B  F533         	movff	?___flsub+1,___fldiv@b+1
  2477   002CB8  C52C  F534         	movff	?___flsub+2,___fldiv@b+2
  2478   002CBC  C52D  F535         	movff	?___flsub+3,___fldiv@b+3
  2479   002CC0  C6B4  F52E         	movff	powf@z,___flsub@a
  2480   002CC4  C6B5  F52F         	movff	powf@z+1,___flsub@a+1
  2481   002CC8  C6B6  F530         	movff	powf@z+2,___flsub@a+2
  2482   002CCC  C6B7  F531         	movff	powf@z+3,___flsub@a+3
  2483   002CD0  C6B4  F52A         	movff	powf@z,___flsub@b
  2484   002CD4  C6B5  F52B         	movff	powf@z+1,___flsub@b+1
  2485   002CD8  C6B6  F52C         	movff	powf@z+2,___flsub@b+2
  2486   002CDC  C6B7  F52D         	movff	powf@z+3,___flsub@b+3
  2487   002CE0  EC15  F035         	call	___flsub	;wreg free
  2488   002CE4  C52A  F536         	movff	?___flsub,___fldiv@a
  2489   002CE8  C52B  F537         	movff	?___flsub+1,___fldiv@a+1
  2490   002CEC  C52C  F538         	movff	?___flsub+2,___fldiv@a+2
  2491   002CF0  C52D  F539         	movff	?___flsub+3,___fldiv@a+3
  2492   002CF4  ECB1  F02E         	call	___fldiv	;wreg free
  2493   002CF8  C532  F6B4         	movff	?___fldiv,powf@z
  2494   002CFC  C533  F6B5         	movff	?___fldiv+1,powf@z+1
  2495   002D00  C534  F6B6         	movff	?___fldiv+2,powf@z+2
  2496   002D04  C535  F6B7         	movff	?___fldiv+3,powf@z+3
  2497   002D08  EFA3  F016         	goto	l3685
  2498   002D0C                     l3681:
  2499                           
  2500                           ; BSR set to: 6
  2501   002D0C  0550               	decf	powf@yisint& (0+255),w,b
  2502   002D0E  1151               	iorwf	(powf@yisint+1)& (0+255),w,b
  2503   002D10  1152               	iorwf	(powf@yisint+2)& (0+255),w,b
  2504   002D12  1153               	iorwf	(powf@yisint+3)& (0+255),w,b
  2505   002D14  A4D8               	btfss	status,2,c
  2506   002D16  EF8F  F016         	goto	u3571
  2507   002D1A  EF91  F016         	goto	u3570
  2508   002D1E                     u3571:
  2509   002D1E  EFA3  F016         	goto	l3685
  2510   002D22                     u3570:
  2511   002D22                     
  2512                           ; BSR set to: 6
  2513   002D22  C6B4  F501         	movff	powf@z,___flneg@f1
  2514   002D26  C6B5  F502         	movff	powf@z+1,___flneg@f1+1
  2515   002D2A  C6B6  F503         	movff	powf@z+2,___flneg@f1+2
  2516   002D2E  C6B7  F504         	movff	powf@z+3,___flneg@f1+3
  2517   002D32  EC58  F035         	call	___flneg	;wreg free
  2518   002D36  C501  F6B4         	movff	?___flneg,powf@z
  2519   002D3A  C502  F6B5         	movff	?___flneg+1,powf@z+1
  2520   002D3E  C503  F6B6         	movff	?___flneg+2,powf@z+2
  2521   002D42  C504  F6B7         	movff	?___flneg+3,powf@z+3
  2522   002D46                     l3685:
  2523   002D46  C6B4  F584         	movff	powf@z,?_powf
  2524   002D4A  C6B5  F585         	movff	powf@z+1,?_powf+1
  2525   002D4E  C6B6  F586         	movff	powf@z+2,?_powf+2
  2526   002D52  C6B7  F587         	movff	powf@z+3,?_powf+3
  2527   002D56  EFDB  F027         	goto	l1172
  2528   002D5A                     l3689:
  2529                           
  2530                           ; BSR set to: 6
  2531   002D5A  0E00               	movlw	0
  2532   002D5C  6F88               	movwf	powf@sn& (0+255),b
  2533   002D5E  0E00               	movlw	0
  2534   002D60  6F89               	movwf	(powf@sn+1)& (0+255),b
  2535   002D62  0E80               	movlw	128
  2536   002D64  6F8A               	movwf	(powf@sn+2)& (0+255),b
  2537   002D66  0E3F               	movlw	63
  2538   002D68  6F8B               	movwf	(powf@sn+3)& (0+255),b
  2539   002D6A                     
  2540                           ; BSR set to: 6
  2541   002D6A  BF63               	btfsc	(powf@hx+3)& (0+255),7,b
  2542   002D6C  EFBC  F016         	goto	u3580
  2543   002D70  EFBA  F016         	goto	u3581
  2544   002D74                     u3581:
  2545   002D74  EF1E  F017         	goto	l3705
  2546   002D78                     u3580:
  2547   002D78                     
  2548                           ; BSR set to: 6
  2549   002D78  5150               	movf	powf@yisint& (0+255),w,b
  2550   002D7A  1151               	iorwf	(powf@yisint+1)& (0+255),w,b
  2551   002D7C  1152               	iorwf	(powf@yisint+2)& (0+255),w,b
  2552   002D7E  1153               	iorwf	(powf@yisint+3)& (0+255),w,b
  2553   002D80  A4D8               	btfss	status,2,c
  2554   002D82  EFC5  F016         	goto	u3591
  2555   002D86  EFC7  F016         	goto	u3590
  2556   002D8A                     u3591:
  2557   002D8A  EF0B  F017         	goto	l3701
  2558   002D8E                     u3590:
  2559   002D8E                     
  2560                           ; BSR set to: 6
  2561   002D8E  0E00               	movlw	0
  2562   002D90  6E5E               	movwf	(_errno+1)^(0+1280),c
  2563   002D92  0E21               	movlw	33
  2564   002D94  6E5D               	movwf	_errno^(0+1280),c
  2565   002D96                     
  2566                           ; BSR set to: 6
  2567   002D96  C584  F52E         	movff	powf@x,___flsub@a
  2568   002D9A  C585  F52F         	movff	powf@x+1,___flsub@a+1
  2569   002D9E  C586  F530         	movff	powf@x+2,___flsub@a+2
  2570   002DA2  C587  F531         	movff	powf@x+3,___flsub@a+3
  2571   002DA6  C584  F52A         	movff	powf@x,___flsub@b
  2572   002DAA  C585  F52B         	movff	powf@x+1,___flsub@b+1
  2573   002DAE  C586  F52C         	movff	powf@x+2,___flsub@b+2
  2574   002DB2  C587  F52D         	movff	powf@x+3,___flsub@b+3
  2575   002DB6  EC15  F035         	call	___flsub	;wreg free
  2576   002DBA  C52A  F532         	movff	?___flsub,___fldiv@b
  2577   002DBE  C52B  F533         	movff	?___flsub+1,___fldiv@b+1
  2578   002DC2  C52C  F534         	movff	?___flsub+2,___fldiv@b+2
  2579   002DC6  C52D  F535         	movff	?___flsub+3,___fldiv@b+3
  2580   002DCA  C584  F52E         	movff	powf@x,___flsub@a
  2581   002DCE  C585  F52F         	movff	powf@x+1,___flsub@a+1
  2582   002DD2  C586  F530         	movff	powf@x+2,___flsub@a+2
  2583   002DD6  C587  F531         	movff	powf@x+3,___flsub@a+3
  2584   002DDA  C584  F52A         	movff	powf@x,___flsub@b
  2585   002DDE  C585  F52B         	movff	powf@x+1,___flsub@b+1
  2586   002DE2  C586  F52C         	movff	powf@x+2,___flsub@b+2
  2587   002DE6  C587  F52D         	movff	powf@x+3,___flsub@b+3
  2588   002DEA  EC15  F035         	call	___flsub	;wreg free
  2589   002DEE  C52A  F536         	movff	?___flsub,___fldiv@a
  2590   002DF2  C52B  F537         	movff	?___flsub+1,___fldiv@a+1
  2591   002DF6  C52C  F538         	movff	?___flsub+2,___fldiv@a+2
  2592   002DFA  C52D  F539         	movff	?___flsub+3,___fldiv@a+3
  2593   002DFE  ECB1  F02E         	call	___fldiv	;wreg free
  2594   002E02  C532  F584         	movff	?___fldiv,?_powf
  2595   002E06  C533  F585         	movff	?___fldiv+1,?_powf+1
  2596   002E0A  C534  F586         	movff	?___fldiv+2,?_powf+2
  2597   002E0E  C535  F587         	movff	?___fldiv+3,?_powf+3
  2598   002E12  EFDB  F027         	goto	l1172
  2599   002E16                     l3701:
  2600                           
  2601                           ; BSR set to: 6
  2602   002E16  0550               	decf	powf@yisint& (0+255),w,b
  2603   002E18  1151               	iorwf	(powf@yisint+1)& (0+255),w,b
  2604   002E1A  1152               	iorwf	(powf@yisint+2)& (0+255),w,b
  2605   002E1C  1153               	iorwf	(powf@yisint+3)& (0+255),w,b
  2606   002E1E  A4D8               	btfss	status,2,c
  2607   002E20  EF14  F017         	goto	u3601
  2608   002E24  EF16  F017         	goto	u3600
  2609   002E28                     u3601:
  2610   002E28  EF1E  F017         	goto	l3705
  2611   002E2C                     u3600:
  2612   002E2C                     
  2613                           ; BSR set to: 6
  2614   002E2C  0E00               	movlw	0
  2615   002E2E  6F88               	movwf	powf@sn& (0+255),b
  2616   002E30  0E00               	movlw	0
  2617   002E32  6F89               	movwf	(powf@sn+1)& (0+255),b
  2618   002E34  0E80               	movlw	128
  2619   002E36  6F8A               	movwf	(powf@sn+2)& (0+255),b
  2620   002E38  0EBF               	movlw	191
  2621   002E3A  6F8B               	movwf	(powf@sn+3)& (0+255),b
  2622   002E3C                     l3705:
  2623                           
  2624                           ; BSR set to: 6
  2625   002E3C  BF9B               	btfsc	(powf@iy+3)& (0+255),7,b
  2626   002E3E  EF2D  F017         	goto	u3611
  2627   002E42  0598               	decf	powf@iy& (0+255),w,b
  2628   002E44  0E00               	movlw	0
  2629   002E46  5999               	subwfb	(powf@iy+1)& (0+255),w,b
  2630   002E48  0E00               	movlw	0
  2631   002E4A  599A               	subwfb	(powf@iy+2)& (0+255),w,b
  2632   002E4C  0E4D               	movlw	77
  2633   002E4E  599B               	subwfb	(powf@iy+3)& (0+255),w,b
  2634   002E50  A0D8               	btfss	status,0,c
  2635   002E52  EF2D  F017         	goto	u3611
  2636   002E56  EF2F  F017         	goto	u3610
  2637   002E5A                     u3611:
  2638   002E5A  EFB4  F019         	goto	l3753
  2639   002E5E                     u3610:
  2640   002E5E                     
  2641                           ; BSR set to: 6
  2642   002E5E  BFAB               	btfsc	(powf@ix+3)& (0+255),7,b
  2643   002E60  EF41  F017         	goto	u3620
  2644   002E64  0EF8               	movlw	248
  2645   002E66  5DA8               	subwf	powf@ix& (0+255),w,b
  2646   002E68  0EFF               	movlw	255
  2647   002E6A  59A9               	subwfb	(powf@ix+1)& (0+255),w,b
  2648   002E6C  0E7F               	movlw	127
  2649   002E6E  59AA               	subwfb	(powf@ix+2)& (0+255),w,b
  2650   002E70  0E3F               	movlw	63
  2651   002E72  59AB               	subwfb	(powf@ix+3)& (0+255),w,b
  2652   002E74  B0D8               	btfsc	status,0,c
  2653   002E76  EF3F  F017         	goto	u3621
  2654   002E7A  EF41  F017         	goto	u3620
  2655   002E7E                     u3621:
  2656   002E7E  EFB4  F017         	goto	l3717
  2657   002E82                     u3620:
  2658   002E82                     
  2659                           ; BSR set to: 6
  2660   002E82  BF87               	btfsc	(powf@hy+3)& (0+255),7,b
  2661   002E84  EF46  F017         	goto	u3631
  2662   002E88  EF48  F017         	goto	u3630
  2663   002E8C                     u3631:
  2664   002E8C  EF7E  F017         	goto	l3713
  2665   002E90                     u3630:
  2666   002E90                     
  2667                           ; BSR set to: 6
  2668   002E90  0E60               	movlw	96
  2669   002E92  6E15               	movwf	___flmul@a^(0+1280),c
  2670   002E94  0E42               	movlw	66
  2671   002E96  6E16               	movwf	(___flmul@a+1)^(0+1280),c
  2672   002E98  0EA2               	movlw	162
  2673   002E9A  6E17               	movwf	(___flmul@a+2)^(0+1280),c
  2674   002E9C  0E0D               	movlw	13
  2675   002E9E  6E18               	movwf	(___flmul@a+3)^(0+1280),c
  2676   002EA0  C688  F511         	movff	powf@sn,___flmul@b
  2677   002EA4  C689  F512         	movff	powf@sn+1,___flmul@b+1
  2678   002EA8  C68A  F513         	movff	powf@sn+2,___flmul@b+2
  2679   002EAC  C68B  F514         	movff	powf@sn+3,___flmul@b+3
  2680   002EB0  EC9C  F02C         	call	___flmul	;wreg free
  2681   002EB4  C511  F6A4         	movff	?___flmul,_powf$1539
  2682   002EB8  C512  F6A5         	movff	?___flmul+1,_powf$1539+1
  2683   002EBC  C513  F6A6         	movff	?___flmul+2,_powf$1539+2
  2684   002EC0  C514  F6A7         	movff	?___flmul+3,_powf$1539+3
  2685   002EC4  C6A4  F511         	movff	_powf$1539,___flmul@b
  2686   002EC8  C6A5  F512         	movff	_powf$1539+1,___flmul@b+1
  2687   002ECC  C6A6  F513         	movff	_powf$1539+2,___flmul@b+2
  2688   002ED0  C6A7  F514         	movff	_powf$1539+3,___flmul@b+3
  2689   002ED4  0E60               	movlw	96
  2690   002ED6  6E15               	movwf	___flmul@a^(0+1280),c
  2691   002ED8  0E42               	movlw	66
  2692   002EDA  6E16               	movwf	(___flmul@a+1)^(0+1280),c
  2693   002EDC  0EA2               	movlw	162
  2694   002EDE  6E17               	movwf	(___flmul@a+2)^(0+1280),c
  2695   002EE0  0E0D               	movlw	13
  2696   002EE2  6E18               	movwf	(___flmul@a+3)^(0+1280),c
  2697   002EE4  EC9C  F02C         	call	___flmul	;wreg free
  2698   002EE8  C511  F584         	movff	?___flmul,?_powf
  2699   002EEC  C512  F585         	movff	?___flmul+1,?_powf+1
  2700   002EF0  C513  F586         	movff	?___flmul+2,?_powf+2
  2701   002EF4  C514  F587         	movff	?___flmul+3,?_powf+3
  2702   002EF8  EFDB  F027         	goto	l1172
  2703   002EFC                     l3713:
  2704                           
  2705                           ; BSR set to: 6
  2706   002EFC  0ECA               	movlw	202
  2707   002EFE  6E15               	movwf	___flmul@a^(0+1280),c
  2708   002F00  0EF2               	movlw	242
  2709   002F02  6E16               	movwf	(___flmul@a+1)^(0+1280),c
  2710   002F04  0E49               	movlw	73
  2711   002F06  6E17               	movwf	(___flmul@a+2)^(0+1280),c
  2712   002F08  0E71               	movlw	113
  2713   002F0A  6E18               	movwf	(___flmul@a+3)^(0+1280),c
  2714   002F0C  C688  F511         	movff	powf@sn,___flmul@b
  2715   002F10  C689  F512         	movff	powf@sn+1,___flmul@b+1
  2716   002F14  C68A  F513         	movff	powf@sn+2,___flmul@b+2
  2717   002F18  C68B  F514         	movff	powf@sn+3,___flmul@b+3
  2718   002F1C  EC9C  F02C         	call	___flmul	;wreg free
  2719   002F20  C511  F6A4         	movff	?___flmul,_powf$1539
  2720   002F24  C512  F6A5         	movff	?___flmul+1,_powf$1539+1
  2721   002F28  C513  F6A6         	movff	?___flmul+2,_powf$1539+2
  2722   002F2C  C514  F6A7         	movff	?___flmul+3,_powf$1539+3
  2723   002F30  C6A4  F511         	movff	_powf$1539,___flmul@b
  2724   002F34  C6A5  F512         	movff	_powf$1539+1,___flmul@b+1
  2725   002F38  C6A6  F513         	movff	_powf$1539+2,___flmul@b+2
  2726   002F3C  C6A7  F514         	movff	_powf$1539+3,___flmul@b+3
  2727   002F40  0ECA               	movlw	202
  2728   002F42  6E15               	movwf	___flmul@a^(0+1280),c
  2729   002F44  0EF2               	movlw	242
  2730   002F46  6E16               	movwf	(___flmul@a+1)^(0+1280),c
  2731   002F48  0E49               	movlw	73
  2732   002F4A  6E17               	movwf	(___flmul@a+2)^(0+1280),c
  2733   002F4C  0E71               	movlw	113
  2734   002F4E  6E18               	movwf	(___flmul@a+3)^(0+1280),c
  2735   002F50  EC9C  F02C         	call	___flmul	;wreg free
  2736   002F54  C511  F584         	movff	?___flmul,?_powf
  2737   002F58  C512  F585         	movff	?___flmul+1,?_powf+1
  2738   002F5C  C513  F586         	movff	?___flmul+2,?_powf+2
  2739   002F60  C514  F587         	movff	?___flmul+3,?_powf+3
  2740   002F64  EFDB  F027         	goto	l1172
  2741   002F68                     l3717:
  2742                           
  2743                           ; BSR set to: 6
  2744   002F68  BFAB               	btfsc	(powf@ix+3)& (0+255),7,b
  2745   002F6A  EFC4  F017         	goto	u3641
  2746   002F6E  0E08               	movlw	8
  2747   002F70  5DA8               	subwf	powf@ix& (0+255),w,b
  2748   002F72  0E00               	movlw	0
  2749   002F74  59A9               	subwfb	(powf@ix+1)& (0+255),w,b
  2750   002F76  0E80               	movlw	128
  2751   002F78  59AA               	subwfb	(powf@ix+2)& (0+255),w,b
  2752   002F7A  0E3F               	movlw	63
  2753   002F7C  59AB               	subwfb	(powf@ix+3)& (0+255),w,b
  2754   002F7E  A0D8               	btfss	status,0,c
  2755   002F80  EFC4  F017         	goto	u3641
  2756   002F84  EFC6  F017         	goto	u3640
  2757   002F88                     u3641:
  2758   002F88  EF41  F018         	goto	l3727
  2759   002F8C                     u3640:
  2760   002F8C                     
  2761                           ; BSR set to: 6
  2762   002F8C  BF87               	btfsc	(powf@hy+3)& (0+255),7,b
  2763   002F8E  EFD5  F017         	goto	u3650
  2764   002F92  5187               	movf	(powf@hy+3)& (0+255),w,b
  2765   002F94  1186               	iorwf	(powf@hy+2)& (0+255),w,b
  2766   002F96  1185               	iorwf	(powf@hy+1)& (0+255),w,b
  2767   002F98  E106               	bnz	u3651
  2768   002F9A  0584               	decf	powf@hy& (0+255),w,b
  2769   002F9C  B0D8               	btfsc	status,0,c
  2770   002F9E  EFD3  F017         	goto	u3651
  2771   002FA2  EFD5  F017         	goto	u3650
  2772   002FA6                     u3651:
  2773   002FA6  EF0B  F018         	goto	l3723
  2774   002FAA                     u3650:
  2775   002FAA                     
  2776                           ; BSR set to: 6
  2777   002FAA  0E60               	movlw	96
  2778   002FAC  6E15               	movwf	___flmul@a^(0+1280),c
  2779   002FAE  0E42               	movlw	66
  2780   002FB0  6E16               	movwf	(___flmul@a+1)^(0+1280),c
  2781   002FB2  0EA2               	movlw	162
  2782   002FB4  6E17               	movwf	(___flmul@a+2)^(0+1280),c
  2783   002FB6  0E0D               	movlw	13
  2784   002FB8  6E18               	movwf	(___flmul@a+3)^(0+1280),c
  2785   002FBA  C688  F511         	movff	powf@sn,___flmul@b
  2786   002FBE  C689  F512         	movff	powf@sn+1,___flmul@b+1
  2787   002FC2  C68A  F513         	movff	powf@sn+2,___flmul@b+2
  2788   002FC6  C68B  F514         	movff	powf@sn+3,___flmul@b+3
  2789   002FCA  EC9C  F02C         	call	___flmul	;wreg free
  2790   002FCE  C511  F6A4         	movff	?___flmul,_powf$1539
  2791   002FD2  C512  F6A5         	movff	?___flmul+1,_powf$1539+1
  2792   002FD6  C513  F6A6         	movff	?___flmul+2,_powf$1539+2
  2793   002FDA  C514  F6A7         	movff	?___flmul+3,_powf$1539+3
  2794   002FDE  C6A4  F511         	movff	_powf$1539,___flmul@b
  2795   002FE2  C6A5  F512         	movff	_powf$1539+1,___flmul@b+1
  2796   002FE6  C6A6  F513         	movff	_powf$1539+2,___flmul@b+2
  2797   002FEA  C6A7  F514         	movff	_powf$1539+3,___flmul@b+3
  2798   002FEE  0E60               	movlw	96
  2799   002FF0  6E15               	movwf	___flmul@a^(0+1280),c
  2800   002FF2  0E42               	movlw	66
  2801   002FF4  6E16               	movwf	(___flmul@a+1)^(0+1280),c
  2802   002FF6  0EA2               	movlw	162
  2803   002FF8  6E17               	movwf	(___flmul@a+2)^(0+1280),c
  2804   002FFA  0E0D               	movlw	13
  2805   002FFC  6E18               	movwf	(___flmul@a+3)^(0+1280),c
  2806   002FFE  EC9C  F02C         	call	___flmul	;wreg free
  2807   003002  C511  F584         	movff	?___flmul,?_powf
  2808   003006  C512  F585         	movff	?___flmul+1,?_powf+1
  2809   00300A  C513  F586         	movff	?___flmul+2,?_powf+2
  2810   00300E  C514  F587         	movff	?___flmul+3,?_powf+3
  2811   003012  EFDB  F027         	goto	l1172
  2812   003016                     l3723:
  2813                           
  2814                           ; BSR set to: 6
  2815   003016  0ECA               	movlw	202
  2816   003018  6E15               	movwf	___flmul@a^(0+1280),c
  2817   00301A  0EF2               	movlw	242
  2818   00301C  6E16               	movwf	(___flmul@a+1)^(0+1280),c
  2819   00301E  0E49               	movlw	73
  2820   003020  6E17               	movwf	(___flmul@a+2)^(0+1280),c
  2821   003022  0E71               	movlw	113
  2822   003024  6E18               	movwf	(___flmul@a+3)^(0+1280),c
  2823   003026  C688  F511         	movff	powf@sn,___flmul@b
  2824   00302A  C689  F512         	movff	powf@sn+1,___flmul@b+1
  2825   00302E  C68A  F513         	movff	powf@sn+2,___flmul@b+2
  2826   003032  C68B  F514         	movff	powf@sn+3,___flmul@b+3
  2827   003036  EC9C  F02C         	call	___flmul	;wreg free
  2828   00303A  C511  F6A4         	movff	?___flmul,_powf$1539
  2829   00303E  C512  F6A5         	movff	?___flmul+1,_powf$1539+1
  2830   003042  C513  F6A6         	movff	?___flmul+2,_powf$1539+2
  2831   003046  C514  F6A7         	movff	?___flmul+3,_powf$1539+3
  2832   00304A  C6A4  F511         	movff	_powf$1539,___flmul@b
  2833   00304E  C6A5  F512         	movff	_powf$1539+1,___flmul@b+1
  2834   003052  C6A6  F513         	movff	_powf$1539+2,___flmul@b+2
  2835   003056  C6A7  F514         	movff	_powf$1539+3,___flmul@b+3
  2836   00305A  0ECA               	movlw	202
  2837   00305C  6E15               	movwf	___flmul@a^(0+1280),c
  2838   00305E  0EF2               	movlw	242
  2839   003060  6E16               	movwf	(___flmul@a+1)^(0+1280),c
  2840   003062  0E49               	movlw	73
  2841   003064  6E17               	movwf	(___flmul@a+2)^(0+1280),c
  2842   003066  0E71               	movlw	113
  2843   003068  6E18               	movwf	(___flmul@a+3)^(0+1280),c
  2844   00306A  EC9C  F02C         	call	___flmul	;wreg free
  2845   00306E  C511  F584         	movff	?___flmul,?_powf
  2846   003072  C512  F585         	movff	?___flmul+1,?_powf+1
  2847   003076  C513  F586         	movff	?___flmul+2,?_powf+2
  2848   00307A  C514  F587         	movff	?___flmul+3,?_powf+3
  2849   00307E  EFDB  F027         	goto	l1172
  2850   003082                     l3727:
  2851                           
  2852                           ; BSR set to: 6
  2853   003082  C670  F501         	movff	powf@ax,___fladd@b
  2854   003086  C671  F502         	movff	powf@ax+1,___fladd@b+1
  2855   00308A  C672  F503         	movff	powf@ax+2,___fladd@b+2
  2856   00308E  C673  F504         	movff	powf@ax+3,___fladd@b+3
  2857   003092  0E00               	movlw	0
  2858   003094  6E05               	movwf	___fladd@a^(0+1280),c
  2859   003096  0E00               	movlw	0
  2860   003098  6E06               	movwf	(___fladd@a+1)^(0+1280),c
  2861   00309A  0E80               	movlw	128
  2862   00309C  6E07               	movwf	(___fladd@a+2)^(0+1280),c
  2863   00309E  0EBF               	movlw	191
  2864   0030A0  6E08               	movwf	(___fladd@a+3)^(0+1280),c
  2865   0030A2  EC3C  F02A         	call	___fladd	;wreg free
  2866   0030A6  C501  F6B0         	movff	?___fladd,powf@t
  2867   0030AA  C502  F6B1         	movff	?___fladd+1,powf@t+1
  2868   0030AE  C503  F6B2         	movff	?___fladd+2,powf@t+2
  2869   0030B2  C504  F6B3         	movff	?___fladd+3,powf@t+3
  2870   0030B6  0E00               	movlw	0
  2871   0030B8  6E15               	movwf	___flmul@a^(0+1280),c
  2872   0030BA  0E00               	movlw	0
  2873   0030BC  6E16               	movwf	(___flmul@a+1)^(0+1280),c
  2874   0030BE  0E80               	movlw	128
  2875   0030C0  6E17               	movwf	(___flmul@a+2)^(0+1280),c
  2876   0030C2  0E3E               	movlw	62
  2877   0030C4  6E18               	movwf	(___flmul@a+3)^(0+1280),c
  2878   0030C6  C6B0  F511         	movff	powf@t,___flmul@b
  2879   0030CA  C6B1  F512         	movff	powf@t+1,___flmul@b+1
  2880   0030CE  C6B2  F513         	movff	powf@t+2,___flmul@b+2
  2881   0030D2  C6B3  F514         	movff	powf@t+3,___flmul@b+3
  2882   0030D6  EC9C  F02C         	call	___flmul	;wreg free
  2883   0030DA  C511  F52E         	movff	?___flmul,___flsub@a
  2884   0030DE  C512  F52F         	movff	?___flmul+1,___flsub@a+1
  2885   0030E2  C513  F530         	movff	?___flmul+2,___flsub@a+2
  2886   0030E6  C514  F531         	movff	?___flmul+3,___flsub@a+3
  2887   0030EA  0EAB               	movlw	171
  2888   0030EC  6E2A               	movwf	___flsub@b^(0+1280),c
  2889   0030EE  0EAA               	movlw	170
  2890   0030F0  6E2B               	movwf	(___flsub@b+1)^(0+1280),c
  2891   0030F2  0EAA               	movlw	170
  2892   0030F4  6E2C               	movwf	(___flsub@b+2)^(0+1280),c
  2893   0030F6  0E3E               	movlw	62
  2894   0030F8  6E2D               	movwf	(___flsub@b+3)^(0+1280),c
  2895   0030FA  EC15  F035         	call	___flsub	;wreg free
  2896   0030FE  C52A  F6A4         	movff	?___flsub,_powf$1539
  2897   003102  C52B  F6A5         	movff	?___flsub+1,_powf$1539+1
  2898   003106  C52C  F6A6         	movff	?___flsub+2,_powf$1539+2
  2899   00310A  C52D  F6A7         	movff	?___flsub+3,_powf$1539+3
  2900   00310E  C6B0  F515         	movff	powf@t,___flmul@a
  2901   003112  C6B1  F516         	movff	powf@t+1,___flmul@a+1
  2902   003116  C6B2  F517         	movff	powf@t+2,___flmul@a+2
  2903   00311A  C6B3  F518         	movff	powf@t+3,___flmul@a+3
  2904   00311E  C6B0  F511         	movff	powf@t,___flmul@b
  2905   003122  C6B1  F512         	movff	powf@t+1,___flmul@b+1
  2906   003126  C6B2  F513         	movff	powf@t+2,___flmul@b+2
  2907   00312A  C6B3  F514         	movff	powf@t+3,___flmul@b+3
  2908   00312E  EC9C  F02C         	call	___flmul	;wreg free
  2909   003132  C511  F654         	movff	?___flmul,_powf$1540
  2910   003136  C512  F655         	movff	?___flmul+1,_powf$1540+1
  2911   00313A  C513  F656         	movff	?___flmul+2,_powf$1540+2
  2912   00313E  C514  F657         	movff	?___flmul+3,_powf$1540+3
  2913   003142  C6B0  F515         	movff	powf@t,___flmul@a
  2914   003146  C6B1  F516         	movff	powf@t+1,___flmul@a+1
  2915   00314A  C6B2  F517         	movff	powf@t+2,___flmul@a+2
  2916   00314E  C6B3  F518         	movff	powf@t+3,___flmul@a+3
  2917   003152  C6A4  F511         	movff	_powf$1539,___flmul@b
  2918   003156  C6A5  F512         	movff	_powf$1539+1,___flmul@b+1
  2919   00315A  C6A6  F513         	movff	_powf$1539+2,___flmul@b+2
  2920   00315E  C6A7  F514         	movff	_powf$1539+3,___flmul@b+3
  2921   003162  EC9C  F02C         	call	___flmul	;wreg free
  2922   003166  C511  F52E         	movff	?___flmul,___flsub@a
  2923   00316A  C512  F52F         	movff	?___flmul+1,___flsub@a+1
  2924   00316E  C513  F530         	movff	?___flmul+2,___flsub@a+2
  2925   003172  C514  F531         	movff	?___flmul+3,___flsub@a+3
  2926   003176  0E00               	movlw	0
  2927   003178  6E2A               	movwf	___flsub@b^(0+1280),c
  2928   00317A  0E00               	movlw	0
  2929   00317C  6E2B               	movwf	(___flsub@b+1)^(0+1280),c
  2930   00317E  0E00               	movlw	0
  2931   003180  6E2C               	movwf	(___flsub@b+2)^(0+1280),c
  2932   003182  0E3F               	movlw	63
  2933   003184  6E2D               	movwf	(___flsub@b+3)^(0+1280),c
  2934   003186  EC15  F035         	call	___flsub	;wreg free
  2935   00318A  C52A  F648         	movff	?___flsub,_powf$1541
  2936   00318E  C52B  F649         	movff	?___flsub+1,_powf$1541+1
  2937   003192  C52C  F64A         	movff	?___flsub+2,_powf$1541+2
  2938   003196  C52D  F64B         	movff	?___flsub+3,_powf$1541+3
  2939   00319A  C654  F511         	movff	_powf$1540,___flmul@b
  2940   00319E  C655  F512         	movff	_powf$1540+1,___flmul@b+1
  2941   0031A2  C656  F513         	movff	_powf$1540+2,___flmul@b+2
  2942   0031A6  C657  F514         	movff	_powf$1540+3,___flmul@b+3
  2943   0031AA  C648  F515         	movff	_powf$1541,___flmul@a
  2944   0031AE  C649  F516         	movff	_powf$1541+1,___flmul@a+1
  2945   0031B2  C64A  F517         	movff	_powf$1541+2,___flmul@a+2
  2946   0031B6  C64B  F518         	movff	_powf$1541+3,___flmul@a+3
  2947   0031BA  EC9C  F02C         	call	___flmul	;wreg free
  2948   0031BE  C511  F644         	movff	?___flmul,powf@w
  2949   0031C2  C512  F645         	movff	?___flmul+1,powf@w+1
  2950   0031C6  C513  F646         	movff	?___flmul+2,powf@w+2
  2951   0031CA  C514  F647         	movff	?___flmul+3,powf@w+3
  2952   0031CE  C6B0  F511         	movff	powf@t,___flmul@b
  2953   0031D2  C6B1  F512         	movff	powf@t+1,___flmul@b+1
  2954   0031D6  C6B2  F513         	movff	powf@t+2,___flmul@b+2
  2955   0031DA  C6B3  F514         	movff	powf@t+3,___flmul@b+3
  2956   0031DE  0E00               	movlw	0
  2957   0031E0  6E15               	movwf	___flmul@a^(0+1280),c
  2958   0031E2  0EAA               	movlw	170
  2959   0031E4  6E16               	movwf	(___flmul@a+1)^(0+1280),c
  2960   0031E6  0EB8               	movlw	184
  2961   0031E8  6E17               	movwf	(___flmul@a+2)^(0+1280),c
  2962   0031EA  0E3F               	movlw	63
  2963   0031EC  6E18               	movwf	(___flmul@a+3)^(0+1280),c
  2964   0031EE  EC9C  F02C         	call	___flmul	;wreg free
  2965   0031F2  C511  F674         	movff	?___flmul,powf@u
  2966   0031F6  C512  F675         	movff	?___flmul+1,powf@u+1
  2967   0031FA  C513  F676         	movff	?___flmul+2,powf@u+2
  2968   0031FE  C514  F677         	movff	?___flmul+3,powf@u+3
  2969   003202  0E70               	movlw	112
  2970   003204  6E15               	movwf	___flmul@a^(0+1280),c
  2971   003206  0EA5               	movlw	165
  2972   003208  6E16               	movwf	(___flmul@a+1)^(0+1280),c
  2973   00320A  0EEC               	movlw	236
  2974   00320C  6E17               	movwf	(___flmul@a+2)^(0+1280),c
  2975   00320E  0E36               	movlw	54
  2976   003210  6E18               	movwf	(___flmul@a+3)^(0+1280),c
  2977   003212  C6B0  F511         	movff	powf@t,___flmul@b
  2978   003216  C6B1  F512         	movff	powf@t+1,___flmul@b+1
  2979   00321A  C6B2  F513         	movff	powf@t+2,___flmul@b+2
  2980   00321E  C6B3  F514         	movff	powf@t+3,___flmul@b+3
  2981   003222  EC9C  F02C         	call	___flmul	;wreg free
  2982   003226  C511  F52A         	movff	?___flmul,___flsub@b
  2983   00322A  C512  F52B         	movff	?___flmul+1,___flsub@b+1
  2984   00322E  C513  F52C         	movff	?___flmul+2,___flsub@b+2
  2985   003232  C514  F52D         	movff	?___flmul+3,___flsub@b+3
  2986   003236  0E3B               	movlw	59
  2987   003238  6E15               	movwf	___flmul@a^(0+1280),c
  2988   00323A  0EAA               	movlw	170
  2989   00323C  6E16               	movwf	(___flmul@a+1)^(0+1280),c
  2990   00323E  0EB8               	movlw	184
  2991   003240  6E17               	movwf	(___flmul@a+2)^(0+1280),c
  2992   003242  0E3F               	movlw	63
  2993   003244  6E18               	movwf	(___flmul@a+3)^(0+1280),c
  2994   003246  C644  F511         	movff	powf@w,___flmul@b
  2995   00324A  C645  F512         	movff	powf@w+1,___flmul@b+1
  2996   00324E  C646  F513         	movff	powf@w+2,___flmul@b+2
  2997   003252  C647  F514         	movff	powf@w+3,___flmul@b+3
  2998   003256  EC9C  F02C         	call	___flmul	;wreg free
  2999   00325A  C511  F52E         	movff	?___flmul,___flsub@a
  3000   00325E  C512  F52F         	movff	?___flmul+1,___flsub@a+1
  3001   003262  C513  F530         	movff	?___flmul+2,___flsub@a+2
  3002   003266  C514  F531         	movff	?___flmul+3,___flsub@a+3
  3003   00326A  EC15  F035         	call	___flsub	;wreg free
  3004   00326E  C52A  F678         	movff	?___flsub,powf@v
  3005   003272  C52B  F679         	movff	?___flsub+1,powf@v+1
  3006   003276  C52C  F67A         	movff	?___flsub+2,powf@v+2
  3007   00327A  C52D  F67B         	movff	?___flsub+3,powf@v+3
  3008   00327E  C674  F501         	movff	powf@u,___fladd@b
  3009   003282  C675  F502         	movff	powf@u+1,___fladd@b+1
  3010   003286  C676  F503         	movff	powf@u+2,___fladd@b+2
  3011   00328A  C677  F504         	movff	powf@u+3,___fladd@b+3
  3012   00328E  C678  F505         	movff	powf@v,___fladd@a
  3013   003292  C679  F506         	movff	powf@v+1,___fladd@a+1
  3014   003296  C67A  F507         	movff	powf@v+2,___fladd@a+2
  3015   00329A  C67B  F508         	movff	powf@v+3,___fladd@a+3
  3016   00329E  EC3C  F02A         	call	___fladd	;wreg free
  3017   0032A2  C501  F680         	movff	?___fladd,powf@t1
  3018   0032A6  C502  F681         	movff	?___fladd+1,powf@t1+1
  3019   0032AA  C503  F682         	movff	?___fladd+2,powf@t1+2
  3020   0032AE  C504  F683         	movff	?___fladd+3,powf@t1+3
  3021   0032B2  C680  F6B8         	movff	powf@t1,powf@__xc8_float_word
  3022   0032B6  C681  F6B9         	movff	powf@t1+1,powf@__xc8_float_word+1
  3023   0032BA  C682  F6BA         	movff	powf@t1+2,powf@__xc8_float_word+2
  3024   0032BE  C683  F6BB         	movff	powf@t1+3,powf@__xc8_float_word+3
  3025   0032C2  C6B8  F690         	movff	powf@__xc8_float_word,powf@is
  3026   0032C6  C6B9  F691         	movff	powf@__xc8_float_word+1,powf@is+1
  3027   0032CA  C6BA  F692         	movff	powf@__xc8_float_word+2,powf@is+2
  3028   0032CE  C6BB  F693         	movff	powf@__xc8_float_word+3,powf@is+3
  3029   0032D2  0E00               	movlw	0
  3030   0032D4  0106               	movlb	6	; () banked
  3031   0032D6  1590               	andwf	powf@is& (0+255),w,b
  3032   0032D8  6FB8               	movwf	powf@__xc8_float_word& (0+255),b
  3033   0032DA  0EF0               	movlw	240
  3034   0032DC  1591               	andwf	(powf@is+1)& (0+255),w,b
  3035   0032DE  6FB9               	movwf	(powf@__xc8_float_word+1)& (0+255),b
  3036   0032E0  0EFF               	movlw	255
  3037   0032E2  1592               	andwf	(powf@is+2)& (0+255),w,b
  3038   0032E4  6FBA               	movwf	(powf@__xc8_float_word+2)& (0+255),b
  3039   0032E6  0EFF               	movlw	255
  3040   0032E8  1593               	andwf	(powf@is+3)& (0+255),w,b
  3041   0032EA  6FBB               	movwf	(powf@__xc8_float_word+3)& (0+255),b
  3042   0032EC                     
  3043                           ; BSR set to: 6
  3044   0032EC  C6B8  F680         	movff	powf@__xc8_float_word,powf@t1
  3045   0032F0  C6B9  F681         	movff	powf@__xc8_float_word+1,powf@t1+1
  3046   0032F4  C6BA  F682         	movff	powf@__xc8_float_word+2,powf@t1+2
  3047   0032F8  C6BB  F683         	movff	powf@__xc8_float_word+3,powf@t1+3
  3048   0032FC                     
  3049                           ; BSR set to: 6
  3050   0032FC  C674  F52E         	movff	powf@u,___flsub@a
  3051   003300  C675  F52F         	movff	powf@u+1,___flsub@a+1
  3052   003304  C676  F530         	movff	powf@u+2,___flsub@a+2
  3053   003308  C677  F531         	movff	powf@u+3,___flsub@a+3
  3054   00330C  C680  F52A         	movff	powf@t1,___flsub@b
  3055   003310  C681  F52B         	movff	powf@t1+1,___flsub@b+1
  3056   003314  C682  F52C         	movff	powf@t1+2,___flsub@b+2
  3057   003318  C683  F52D         	movff	powf@t1+3,___flsub@b+3
  3058   00331C  EC15  F035         	call	___flsub	;wreg free
  3059   003320  C52A  F694         	movff	?___flsub,_powf$1542
  3060   003324  C52B  F695         	movff	?___flsub+1,_powf$1542+1
  3061   003328  C52C  F696         	movff	?___flsub+2,_powf$1542+2
  3062   00332C  C52D  F697         	movff	?___flsub+3,_powf$1542+3
  3063   003330  C678  F52A         	movff	powf@v,___flsub@b
  3064   003334  C679  F52B         	movff	powf@v+1,___flsub@b+1
  3065   003338  C67A  F52C         	movff	powf@v+2,___flsub@b+2
  3066   00333C  C67B  F52D         	movff	powf@v+3,___flsub@b+3
  3067   003340  C694  F52E         	movff	_powf$1542,___flsub@a
  3068   003344  C695  F52F         	movff	_powf$1542+1,___flsub@a+1
  3069   003348  C696  F530         	movff	_powf$1542+2,___flsub@a+2
  3070   00334C  C697  F531         	movff	_powf$1542+3,___flsub@a+3
  3071   003350  EC15  F035         	call	___flsub	;wreg free
  3072   003354  C52A  F61C         	movff	?___flsub,powf@t2
  3073   003358  C52B  F61D         	movff	?___flsub+1,powf@t2+1
  3074   00335C  C52C  F61E         	movff	?___flsub+2,powf@t2+2
  3075   003360  C52D  F61F         	movff	?___flsub+3,powf@t2+3
  3076   003364  EF0E  F021         	goto	l3909
  3077   003368                     l3753:
  3078                           
  3079                           ; BSR set to: 6
  3080   003368  0E00               	movlw	0
  3081   00336A  6F7C               	movwf	powf@n& (0+255),b
  3082   00336C  0E00               	movlw	0
  3083   00336E  6F7D               	movwf	(powf@n+1)& (0+255),b
  3084   003370  0E00               	movlw	0
  3085   003372  6F7E               	movwf	(powf@n+2)& (0+255),b
  3086   003374  0E00               	movlw	0
  3087   003376  6F7F               	movwf	(powf@n+3)& (0+255),b
  3088   003378                     
  3089                           ; BSR set to: 6
  3090   003378  BFAB               	btfsc	(powf@ix+3)& (0+255),7,b
  3091   00337A  EFCA  F019         	goto	u3660
  3092   00337E  51AB               	movf	(powf@ix+3)& (0+255),w,b
  3093   003380  E107               	bnz	u3661
  3094   003382  0E80               	movlw	128
  3095   003384  5DAA               	subwf	(powf@ix+2)& (0+255),w,b
  3096   003386  B0D8               	btfsc	status,0,c
  3097   003388  EFC8  F019         	goto	u3661
  3098   00338C  EFCA  F019         	goto	u3660
  3099   003390                     u3661:
  3100   003390  EFFD  F019         	goto	l3765
  3101   003394                     u3660:
  3102   003394                     
  3103                           ; BSR set to: 6
  3104   003394  C670  F511         	movff	powf@ax,___flmul@b
  3105   003398  C671  F512         	movff	powf@ax+1,___flmul@b+1
  3106   00339C  C672  F513         	movff	powf@ax+2,___flmul@b+2
  3107   0033A0  C673  F514         	movff	powf@ax+3,___flmul@b+3
  3108   0033A4  0E00               	movlw	0
  3109   0033A6  6E15               	movwf	___flmul@a^(0+1280),c
  3110   0033A8  0E00               	movlw	0
  3111   0033AA  6E16               	movwf	(___flmul@a+1)^(0+1280),c
  3112   0033AC  0E80               	movlw	128
  3113   0033AE  6E17               	movwf	(___flmul@a+2)^(0+1280),c
  3114   0033B0  0E4B               	movlw	75
  3115   0033B2  6E18               	movwf	(___flmul@a+3)^(0+1280),c
  3116   0033B4  EC9C  F02C         	call	___flmul	;wreg free
  3117   0033B8  C511  F670         	movff	?___flmul,powf@ax
  3118   0033BC  C512  F671         	movff	?___flmul+1,powf@ax+1
  3119   0033C0  C513  F672         	movff	?___flmul+2,powf@ax+2
  3120   0033C4  C514  F673         	movff	?___flmul+3,powf@ax+3
  3121   0033C8  0EE8               	movlw	232
  3122   0033CA  0106               	movlb	6	; () banked
  3123   0033CC  277C               	addwf	powf@n& (0+255),f,b
  3124   0033CE  0EFF               	movlw	255
  3125   0033D0  237D               	addwfc	(powf@n+1)& (0+255),f,b
  3126   0033D2  0EFF               	movlw	255
  3127   0033D4  237E               	addwfc	(powf@n+2)& (0+255),f,b
  3128   0033D6  0EFF               	movlw	255
  3129   0033D8  237F               	addwfc	(powf@n+3)& (0+255),f,b
  3130   0033DA                     
  3131                           ; BSR set to: 6
  3132   0033DA  C670  F6B8         	movff	powf@ax,powf@__xc8_float_word
  3133   0033DE  C671  F6B9         	movff	powf@ax+1,powf@__xc8_float_word+1
  3134   0033E2  C672  F6BA         	movff	powf@ax+2,powf@__xc8_float_word+2
  3135   0033E6  C673  F6BB         	movff	powf@ax+3,powf@__xc8_float_word+3
  3136   0033EA                     
  3137                           ; BSR set to: 6
  3138   0033EA  C6B8  F6A8         	movff	powf@__xc8_float_word,powf@ix
  3139   0033EE  C6B9  F6A9         	movff	powf@__xc8_float_word+1,powf@ix+1
  3140   0033F2  C6BA  F6AA         	movff	powf@__xc8_float_word+2,powf@ix+2
  3141   0033F6  C6BB  F6AB         	movff	powf@__xc8_float_word+3,powf@ix+3
  3142   0033FA                     l3765:
  3143                           
  3144                           ; BSR set to: 6
  3145   0033FA  0E17               	movlw	23
  3146   0033FC  6E4B               	movwf	??_powf^(0+1280),c
  3147   0033FE  C6A8  F54C         	movff	powf@ix,??_powf+1
  3148   003402  C6A9  F54D         	movff	powf@ix+1,??_powf+2
  3149   003406  C6AA  F54E         	movff	powf@ix+2,??_powf+3
  3150   00340A  C6AB  F54F         	movff	powf@ix+3,??_powf+4
  3151   00340E                     u3675:
  3152   00340E  664B               	tstfsz	??_powf^(0+1280),c
  3153   003410  EF0C  F01A         	goto	u3676
  3154   003414  EF14  F01A         	goto	u3677
  3155   003418                     u3676:
  3156   003418  344F               	rlcf	(??_powf+4)^(0+1280),w,c
  3157   00341A  324F               	rrcf	(??_powf+4)^(0+1280),f,c
  3158   00341C  324E               	rrcf	(??_powf+3)^(0+1280),f,c
  3159   00341E  324D               	rrcf	(??_powf+2)^(0+1280),f,c
  3160   003420  324C               	rrcf	(??_powf+1)^(0+1280),f,c
  3161   003422  2E4B               	decfsz	??_powf^(0+1280),f,c
  3162   003424  EF07  F01A         	goto	u3675
  3163   003428                     u3677:
  3164   003428  0E81               	movlw	129
  3165   00342A  244C               	addwf	(??_powf+1)^(0+1280),w,c
  3166   00342C  6E50               	movwf	(??_powf+5)^(0+1280),c
  3167   00342E  0EFF               	movlw	255
  3168   003430  204D               	addwfc	(??_powf+2)^(0+1280),w,c
  3169   003432  6E51               	movwf	(??_powf+6)^(0+1280),c
  3170   003434  0EFF               	movlw	255
  3171   003436  204E               	addwfc	(??_powf+3)^(0+1280),w,c
  3172   003438  6E52               	movwf	(??_powf+7)^(0+1280),c
  3173   00343A  0EFF               	movlw	255
  3174   00343C  204F               	addwfc	(??_powf+4)^(0+1280),w,c
  3175   00343E  6E53               	movwf	(??_powf+8)^(0+1280),c
  3176   003440  5050               	movf	(??_powf+5)^(0+1280),w,c
  3177   003442  0106               	movlb	6	; () banked
  3178   003444  277C               	addwf	powf@n& (0+255),f,b
  3179   003446  5051               	movf	(??_powf+6)^(0+1280),w,c
  3180   003448  237D               	addwfc	(powf@n+1)& (0+255),f,b
  3181   00344A  5052               	movf	(??_powf+7)^(0+1280),w,c
  3182   00344C  237E               	addwfc	(powf@n+2)& (0+255),f,b
  3183   00344E  5053               	movf	(??_powf+8)^(0+1280),w,c
  3184   003450  237F               	addwfc	(powf@n+3)& (0+255),f,b
  3185   003452                     
  3186                           ; BSR set to: 6
  3187   003452  0EFF               	movlw	255
  3188   003454  15A8               	andwf	powf@ix& (0+255),w,b
  3189   003456  6FAC               	movwf	powf@j& (0+255),b
  3190   003458  0EFF               	movlw	255
  3191   00345A  15A9               	andwf	(powf@ix+1)& (0+255),w,b
  3192   00345C  6FAD               	movwf	(powf@j+1)& (0+255),b
  3193   00345E  0E7F               	movlw	127
  3194   003460  15AA               	andwf	(powf@ix+2)& (0+255),w,b
  3195   003462  6FAE               	movwf	(powf@j+2)& (0+255),b
  3196   003464  0E00               	movlw	0
  3197   003466  15AB               	andwf	(powf@ix+3)& (0+255),w,b
  3198   003468  6FAF               	movwf	(powf@j+3)& (0+255),b
  3199   00346A                     
  3200                           ; BSR set to: 6
  3201   00346A  0E00               	movlw	0
  3202   00346C  11AC               	iorwf	powf@j& (0+255),w,b
  3203   00346E  6FA8               	movwf	powf@ix& (0+255),b
  3204   003470  0E00               	movlw	0
  3205   003472  11AD               	iorwf	(powf@j+1)& (0+255),w,b
  3206   003474  6FA9               	movwf	(powf@ix+1)& (0+255),b
  3207   003476  0E80               	movlw	128
  3208   003478  11AE               	iorwf	(powf@j+2)& (0+255),w,b
  3209   00347A  6FAA               	movwf	(powf@ix+2)& (0+255),b
  3210   00347C  0E3F               	movlw	63
  3211   00347E  11AF               	iorwf	(powf@j+3)& (0+255),w,b
  3212   003480  6FAB               	movwf	(powf@ix+3)& (0+255),b
  3213   003482                     
  3214                           ; BSR set to: 6
  3215   003482  BFAF               	btfsc	(powf@j+3)& (0+255),7,b
  3216   003484  EF53  F01A         	goto	u3680
  3217   003488  51AF               	movf	(powf@j+3)& (0+255),w,b
  3218   00348A  E10B               	bnz	u3681
  3219   00348C  0E72               	movlw	114
  3220   00348E  5DAC               	subwf	powf@j& (0+255),w,b
  3221   003490  0EC4               	movlw	196
  3222   003492  59AD               	subwfb	(powf@j+1)& (0+255),w,b
  3223   003494  0E1C               	movlw	28
  3224   003496  59AE               	subwfb	(powf@j+2)& (0+255),w,b
  3225   003498  B0D8               	btfsc	status,0,c
  3226   00349A  EF51  F01A         	goto	u3681
  3227   00349E  EF53  F01A         	goto	u3680
  3228   0034A2                     u3681:
  3229   0034A2  EF5D  F01A         	goto	l3775
  3230   0034A6                     u3680:
  3231   0034A6                     
  3232                           ; BSR set to: 6
  3233   0034A6  0E00               	movlw	0
  3234   0034A8  6FA0               	movwf	powf@k& (0+255),b
  3235   0034AA  0E00               	movlw	0
  3236   0034AC  6FA1               	movwf	(powf@k+1)& (0+255),b
  3237   0034AE  0E00               	movlw	0
  3238   0034B0  6FA2               	movwf	(powf@k+2)& (0+255),b
  3239   0034B2  0E00               	movlw	0
  3240   0034B4  6FA3               	movwf	(powf@k+3)& (0+255),b
  3241   0034B6  EF8F  F01A         	goto	l3785
  3242   0034BA                     l3775:
  3243                           
  3244                           ; BSR set to: 6
  3245   0034BA  BFAF               	btfsc	(powf@j+3)& (0+255),7,b
  3246   0034BC  EF6F  F01A         	goto	u3690
  3247   0034C0  51AF               	movf	(powf@j+3)& (0+255),w,b
  3248   0034C2  E10B               	bnz	u3691
  3249   0034C4  0ED7               	movlw	215
  3250   0034C6  5DAC               	subwf	powf@j& (0+255),w,b
  3251   0034C8  0EB3               	movlw	179
  3252   0034CA  59AD               	subwfb	(powf@j+1)& (0+255),w,b
  3253   0034CC  0E5D               	movlw	93
  3254   0034CE  59AE               	subwfb	(powf@j+2)& (0+255),w,b
  3255   0034D0  B0D8               	btfsc	status,0,c
  3256   0034D2  EF6D  F01A         	goto	u3691
  3257   0034D6  EF6F  F01A         	goto	u3690
  3258   0034DA                     u3691:
  3259   0034DA  EF79  F01A         	goto	l3779
  3260   0034DE                     u3690:
  3261   0034DE                     
  3262                           ; BSR set to: 6
  3263   0034DE  0E01               	movlw	1
  3264   0034E0  6FA0               	movwf	powf@k& (0+255),b
  3265   0034E2  0E00               	movlw	0
  3266   0034E4  6FA1               	movwf	(powf@k+1)& (0+255),b
  3267   0034E6  0E00               	movlw	0
  3268   0034E8  6FA2               	movwf	(powf@k+2)& (0+255),b
  3269   0034EA  0E00               	movlw	0
  3270   0034EC  6FA3               	movwf	(powf@k+3)& (0+255),b
  3271   0034EE  EF8F  F01A         	goto	l3785
  3272   0034F2                     l3779:
  3273                           
  3274                           ; BSR set to: 6
  3275   0034F2  0E00               	movlw	0
  3276   0034F4  6FA0               	movwf	powf@k& (0+255),b
  3277   0034F6  0E00               	movlw	0
  3278   0034F8  6FA1               	movwf	(powf@k+1)& (0+255),b
  3279   0034FA  0E00               	movlw	0
  3280   0034FC  6FA2               	movwf	(powf@k+2)& (0+255),b
  3281   0034FE  0E00               	movlw	0
  3282   003500  6FA3               	movwf	(powf@k+3)& (0+255),b
  3283   003502                     
  3284                           ; BSR set to: 6
  3285   003502  0E01               	movlw	1
  3286   003504  277C               	addwf	powf@n& (0+255),f,b
  3287   003506  0E00               	movlw	0
  3288   003508  237D               	addwfc	(powf@n+1)& (0+255),f,b
  3289   00350A  237E               	addwfc	(powf@n+2)& (0+255),f,b
  3290   00350C  237F               	addwfc	(powf@n+3)& (0+255),f,b
  3291   00350E                     
  3292                           ; BSR set to: 6
  3293   00350E  0E00               	movlw	0
  3294   003510  27A8               	addwf	powf@ix& (0+255),f,b
  3295   003512  0E00               	movlw	0
  3296   003514  23A9               	addwfc	(powf@ix+1)& (0+255),f,b
  3297   003516  0E80               	movlw	128
  3298   003518  23AA               	addwfc	(powf@ix+2)& (0+255),f,b
  3299   00351A  0EFF               	movlw	255
  3300   00351C  23AB               	addwfc	(powf@ix+3)& (0+255),f,b
  3301   00351E                     l3785:
  3302                           
  3303                           ; BSR set to: 6
  3304   00351E  C6A8  F6B8         	movff	powf@ix,powf@__xc8_float_word
  3305   003522  C6A9  F6B9         	movff	powf@ix+1,powf@__xc8_float_word+1
  3306   003526  C6AA  F6BA         	movff	powf@ix+2,powf@__xc8_float_word+2
  3307   00352A  C6AB  F6BB         	movff	powf@ix+3,powf@__xc8_float_word+3
  3308   00352E                     
  3309                           ; BSR set to: 6
  3310   00352E  C6B8  F670         	movff	powf@__xc8_float_word,powf@ax
  3311   003532  C6B9  F671         	movff	powf@__xc8_float_word+1,powf@ax+1
  3312   003536  C6BA  F672         	movff	powf@__xc8_float_word+2,powf@ax+2
  3313   00353A  C6BB  F673         	movff	powf@__xc8_float_word+3,powf@ax+3
  3314   00353E                     
  3315                           ; BSR set to: 6
  3316   00353E  C670  F52A         	movff	powf@ax,___flsub@b
  3317   003542  C671  F52B         	movff	powf@ax+1,___flsub@b+1
  3318   003546  C672  F52C         	movff	powf@ax+2,___flsub@b+2
  3319   00354A  C673  F52D         	movff	powf@ax+3,___flsub@b+3
  3320   00354E  C6A0  F54B         	movff	powf@k,??_powf
  3321   003552  C6A1  F54C         	movff	powf@k+1,??_powf+1
  3322   003556  90D8               	bcf	status,0,c
  3323   003558  364B               	rlcf	??_powf^(0+1280),f,c
  3324   00355A  364C               	rlcf	(??_powf+1)^(0+1280),f,c
  3325   00355C  90D8               	bcf	status,0,c
  3326   00355E  364B               	rlcf	??_powf^(0+1280),f,c
  3327   003560  364C               	rlcf	(??_powf+1)^(0+1280),f,c
  3328   003562  0E89               	movlw	low _bp
  3329   003564  244B               	addwf	??_powf^(0+1280),w,c
  3330   003566  6EF6               	movwf	tblptrl,c
  3331   003568  0E26               	movlw	high _bp
  3332   00356A  204C               	addwfc	(??_powf+1)^(0+1280),w,c
  3333   00356C  6EF7               	movwf	tblptrh,c
  3334   00356E                     	if	1	;There are 3 active tblptr bytes
  3335   00356E  6AF8               	clrf	tblptru,c
  3336   003570  0E00               	movlw	low (__mediumconst shr (0+16))
  3337   003572  22F8               	addwfc	tblptru,f,c
  3338   003574                     	endif
  3339   003574  0009               	tblrd		*+
  3340   003576  C4F5 F52E          	movff	tablat,___flsub@a
  3341   00357A  0009               	tblrd		*+
  3342   00357C  C4F5 F52F          	movff	tablat,___flsub@a+1
  3343   003580  0009               	tblrd		*+
  3344   003582  C4F5 F530          	movff	tablat,___flsub@a+2
  3345   003586  000A               	tblrd		*-
  3346   003588  C4F5 F531          	movff	tablat,___flsub@a+3
  3347   00358C  EC15  F035         	call	___flsub	;wreg free
  3348   003590  C52A  F674         	movff	?___flsub,powf@u
  3349   003594  C52B  F675         	movff	?___flsub+1,powf@u+1
  3350   003598  C52C  F676         	movff	?___flsub+2,powf@u+2
  3351   00359C  C52D  F677         	movff	?___flsub+3,powf@u+3
  3352   0035A0  0E00               	movlw	0
  3353   0035A2  6E32               	movwf	___fldiv@b^(0+1280),c
  3354   0035A4  0E00               	movlw	0
  3355   0035A6  6E33               	movwf	(___fldiv@b+1)^(0+1280),c
  3356   0035A8  0E80               	movlw	128
  3357   0035AA  6E34               	movwf	(___fldiv@b+2)^(0+1280),c
  3358   0035AC  0E3F               	movlw	63
  3359   0035AE  6E35               	movwf	(___fldiv@b+3)^(0+1280),c
  3360   0035B0  C670  F505         	movff	powf@ax,___fladd@a
  3361   0035B4  C671  F506         	movff	powf@ax+1,___fladd@a+1
  3362   0035B8  C672  F507         	movff	powf@ax+2,___fladd@a+2
  3363   0035BC  C673  F508         	movff	powf@ax+3,___fladd@a+3
  3364   0035C0  C6A0  F54B         	movff	powf@k,??_powf
  3365   0035C4  C6A1  F54C         	movff	powf@k+1,??_powf+1
  3366   0035C8  90D8               	bcf	status,0,c
  3367   0035CA  364B               	rlcf	??_powf^(0+1280),f,c
  3368   0035CC  364C               	rlcf	(??_powf+1)^(0+1280),f,c
  3369   0035CE  90D8               	bcf	status,0,c
  3370   0035D0  364B               	rlcf	??_powf^(0+1280),f,c
  3371   0035D2  364C               	rlcf	(??_powf+1)^(0+1280),f,c
  3372   0035D4  0E89               	movlw	low _bp
  3373   0035D6  244B               	addwf	??_powf^(0+1280),w,c
  3374   0035D8  6EF6               	movwf	tblptrl,c
  3375   0035DA  0E26               	movlw	high _bp
  3376   0035DC  204C               	addwfc	(??_powf+1)^(0+1280),w,c
  3377   0035DE  6EF7               	movwf	tblptrh,c
  3378   0035E0                     	if	1	;There are 3 active tblptr bytes
  3379   0035E0  6AF8               	clrf	tblptru,c
  3380   0035E2  0E00               	movlw	low (__mediumconst shr (0+16))
  3381   0035E4  22F8               	addwfc	tblptru,f,c
  3382   0035E6                     	endif
  3383   0035E6  0009               	tblrd		*+
  3384   0035E8  C4F5 F501          	movff	tablat,___fladd@b
  3385   0035EC  0009               	tblrd		*+
  3386   0035EE  C4F5 F502          	movff	tablat,___fladd@b+1
  3387   0035F2  0009               	tblrd		*+
  3388   0035F4  C4F5 F503          	movff	tablat,___fladd@b+2
  3389   0035F8  000A               	tblrd		*-
  3390   0035FA  C4F5 F504          	movff	tablat,___fladd@b+3
  3391   0035FE  EC3C  F02A         	call	___fladd	;wreg free
  3392   003602  C501  F536         	movff	?___fladd,___fldiv@a
  3393   003606  C502  F537         	movff	?___fladd+1,___fldiv@a+1
  3394   00360A  C503  F538         	movff	?___fladd+2,___fldiv@a+2
  3395   00360E  C504  F539         	movff	?___fladd+3,___fldiv@a+3
  3396   003612  ECB1  F02E         	call	___fldiv	;wreg free
  3397   003616  C532  F678         	movff	?___fldiv,powf@v
  3398   00361A  C533  F679         	movff	?___fldiv+1,powf@v+1
  3399   00361E  C534  F67A         	movff	?___fldiv+2,powf@v+2
  3400   003622  C535  F67B         	movff	?___fldiv+3,powf@v+3
  3401   003626  C674  F511         	movff	powf@u,___flmul@b
  3402   00362A  C675  F512         	movff	powf@u+1,___flmul@b+1
  3403   00362E  C676  F513         	movff	powf@u+2,___flmul@b+2
  3404   003632  C677  F514         	movff	powf@u+3,___flmul@b+3
  3405   003636  C678  F515         	movff	powf@v,___flmul@a
  3406   00363A  C679  F516         	movff	powf@v+1,___flmul@a+1
  3407   00363E  C67A  F517         	movff	powf@v+2,___flmul@a+2
  3408   003642  C67B  F518         	movff	powf@v+3,___flmul@a+3
  3409   003646  EC9C  F02C         	call	___flmul	;wreg free
  3410   00364A  C511  F65C         	movff	?___flmul,powf@s
  3411   00364E  C512  F65D         	movff	?___flmul+1,powf@s+1
  3412   003652  C513  F65E         	movff	?___flmul+2,powf@s+2
  3413   003656  C514  F65F         	movff	?___flmul+3,powf@s+3
  3414   00365A  C65C  F66C         	movff	powf@s,powf@s_h
  3415   00365E  C65D  F66D         	movff	powf@s+1,powf@s_h+1
  3416   003662  C65E  F66E         	movff	powf@s+2,powf@s_h+2
  3417   003666  C65F  F66F         	movff	powf@s+3,powf@s_h+3
  3418   00366A  C66C  F6B8         	movff	powf@s_h,powf@__xc8_float_word
  3419   00366E  C66D  F6B9         	movff	powf@s_h+1,powf@__xc8_float_word+1
  3420   003672  C66E  F6BA         	movff	powf@s_h+2,powf@__xc8_float_word+2
  3421   003676  C66F  F6BB         	movff	powf@s_h+3,powf@__xc8_float_word+3
  3422   00367A  C6B8  F690         	movff	powf@__xc8_float_word,powf@is
  3423   00367E  C6B9  F691         	movff	powf@__xc8_float_word+1,powf@is+1
  3424   003682  C6BA  F692         	movff	powf@__xc8_float_word+2,powf@is+2
  3425   003686  C6BB  F693         	movff	powf@__xc8_float_word+3,powf@is+3
  3426   00368A  0E00               	movlw	0
  3427   00368C  0106               	movlb	6	; () banked
  3428   00368E  1590               	andwf	powf@is& (0+255),w,b
  3429   003690  6FB8               	movwf	powf@__xc8_float_word& (0+255),b
  3430   003692  0EF0               	movlw	240
  3431   003694  1591               	andwf	(powf@is+1)& (0+255),w,b
  3432   003696  6FB9               	movwf	(powf@__xc8_float_word+1)& (0+255),b
  3433   003698  0EFF               	movlw	255
  3434   00369A  1592               	andwf	(powf@is+2)& (0+255),w,b
  3435   00369C  6FBA               	movwf	(powf@__xc8_float_word+2)& (0+255),b
  3436   00369E  0EFF               	movlw	255
  3437   0036A0  1593               	andwf	(powf@is+3)& (0+255),w,b
  3438   0036A2  6FBB               	movwf	(powf@__xc8_float_word+3)& (0+255),b
  3439   0036A4                     
  3440                           ; BSR set to: 6
  3441   0036A4  C6B8  F66C         	movff	powf@__xc8_float_word,powf@s_h
  3442   0036A8  C6B9  F66D         	movff	powf@__xc8_float_word+1,powf@s_h+1
  3443   0036AC  C6BA  F66E         	movff	powf@__xc8_float_word+2,powf@s_h+2
  3444   0036B0  C6BB  F66F         	movff	powf@__xc8_float_word+3,powf@s_h+3
  3445   0036B4                     
  3446                           ; BSR set to: 6
  3447   0036B4  C6A8  F54B         	movff	powf@ix,??_powf
  3448   0036B8  C6A9  F54C         	movff	powf@ix+1,??_powf+1
  3449   0036BC  C6AA  F54D         	movff	powf@ix+2,??_powf+2
  3450   0036C0  C6AB  F54E         	movff	powf@ix+3,??_powf+3
  3451   0036C4  344E               	rlcf	(??_powf+3)^(0+1280),w,c
  3452   0036C6  324E               	rrcf	(??_powf+3)^(0+1280),f,c
  3453   0036C8  324D               	rrcf	(??_powf+2)^(0+1280),f,c
  3454   0036CA  324C               	rrcf	(??_powf+1)^(0+1280),f,c
  3455   0036CC  324B               	rrcf	??_powf^(0+1280),f,c
  3456   0036CE  0E00               	movlw	0
  3457   0036D0  144B               	andwf	??_powf^(0+1280),w,c
  3458   0036D2  6E4F               	movwf	(??_powf+4)^(0+1280),c
  3459   0036D4  0EF0               	movlw	240
  3460   0036D6  144C               	andwf	(??_powf+1)^(0+1280),w,c
  3461   0036D8  6E50               	movwf	(??_powf+5)^(0+1280),c
  3462   0036DA  0EFF               	movlw	255
  3463   0036DC  144D               	andwf	(??_powf+2)^(0+1280),w,c
  3464   0036DE  6E51               	movwf	(??_powf+6)^(0+1280),c
  3465   0036E0  0EFF               	movlw	255
  3466   0036E2  144E               	andwf	(??_powf+3)^(0+1280),w,c
  3467   0036E4  6E52               	movwf	(??_powf+7)^(0+1280),c
  3468   0036E6  0E00               	movlw	0
  3469   0036E8  104F               	iorwf	(??_powf+4)^(0+1280),w,c
  3470   0036EA  6F90               	movwf	powf@is& (0+255),b
  3471   0036EC  0E00               	movlw	0
  3472   0036EE  1050               	iorwf	(??_powf+5)^(0+1280),w,c
  3473   0036F0  6F91               	movwf	(powf@is+1)& (0+255),b
  3474   0036F2  0E00               	movlw	0
  3475   0036F4  1051               	iorwf	(??_powf+6)^(0+1280),w,c
  3476   0036F6  6F92               	movwf	(powf@is+2)& (0+255),b
  3477   0036F8  0E20               	movlw	32
  3478   0036FA  1052               	iorwf	(??_powf+7)^(0+1280),w,c
  3479   0036FC  6F93               	movwf	(powf@is+3)& (0+255),b
  3480   0036FE                     
  3481                           ; BSR set to: 6
  3482   0036FE  C6A0  F54B         	movff	powf@k,??_powf
  3483   003702  C6A1  F54C         	movff	powf@k+1,??_powf+1
  3484   003706  C6A2  F54D         	movff	powf@k+2,??_powf+2
  3485   00370A  C6A3  F54E         	movff	powf@k+3,??_powf+3
  3486   00370E  0E15               	movlw	21
  3487   003710                     u3705:
  3488   003710  90D8               	bcf	status,0,c
  3489   003712  364B               	rlcf	??_powf^(0+1280),f,c
  3490   003714  364C               	rlcf	(??_powf+1)^(0+1280),f,c
  3491   003716  364D               	rlcf	(??_powf+2)^(0+1280),f,c
  3492   003718  364E               	rlcf	(??_powf+3)^(0+1280),f,c
  3493   00371A  2EE8               	decfsz	wreg,f,c
  3494   00371C  EF88  F01B         	goto	u3705
  3495   003720  5190               	movf	powf@is& (0+255),w,b
  3496   003722  244B               	addwf	??_powf^(0+1280),w,c
  3497   003724  6E4F               	movwf	(??_powf+4)^(0+1280),c
  3498   003726  5191               	movf	(powf@is+1)& (0+255),w,b
  3499   003728  204C               	addwfc	(??_powf+1)^(0+1280),w,c
  3500   00372A  6E50               	movwf	(??_powf+5)^(0+1280),c
  3501   00372C  5192               	movf	(powf@is+2)& (0+255),w,b
  3502   00372E  204D               	addwfc	(??_powf+2)^(0+1280),w,c
  3503   003730  6E51               	movwf	(??_powf+6)^(0+1280),c
  3504   003732  5193               	movf	(powf@is+3)& (0+255),w,b
  3505   003734  204E               	addwfc	(??_powf+3)^(0+1280),w,c
  3506   003736  6E52               	movwf	(??_powf+7)^(0+1280),c
  3507   003738  0E00               	movlw	0
  3508   00373A  244F               	addwf	(??_powf+4)^(0+1280),w,c
  3509   00373C  6FB8               	movwf	powf@__xc8_float_word& (0+255),b
  3510   00373E  0E00               	movlw	0
  3511   003740  2050               	addwfc	(??_powf+5)^(0+1280),w,c
  3512   003742  6FB9               	movwf	(powf@__xc8_float_word+1)& (0+255),b
  3513   003744  0E40               	movlw	64
  3514   003746  2051               	addwfc	(??_powf+6)^(0+1280),w,c
  3515   003748  6FBA               	movwf	(powf@__xc8_float_word+2)& (0+255),b
  3516   00374A  0E00               	movlw	0
  3517   00374C  2052               	addwfc	(??_powf+7)^(0+1280),w,c
  3518   00374E  6FBB               	movwf	(powf@__xc8_float_word+3)& (0+255),b
  3519   003750                     
  3520                           ; BSR set to: 6
  3521   003750  C6B8  F668         	movff	powf@__xc8_float_word,powf@t_h
  3522   003754  C6B9  F669         	movff	powf@__xc8_float_word+1,powf@t_h+1
  3523   003758  C6BA  F66A         	movff	powf@__xc8_float_word+2,powf@t_h+2
  3524   00375C  C6BB  F66B         	movff	powf@__xc8_float_word+3,powf@t_h+3
  3525   003760                     
  3526                           ; BSR set to: 6
  3527   003760  C6A0  F54B         	movff	powf@k,??_powf
  3528   003764  C6A1  F54C         	movff	powf@k+1,??_powf+1
  3529   003768  90D8               	bcf	status,0,c
  3530   00376A  364B               	rlcf	??_powf^(0+1280),f,c
  3531   00376C  364C               	rlcf	(??_powf+1)^(0+1280),f,c
  3532   00376E  90D8               	bcf	status,0,c
  3533   003770  364B               	rlcf	??_powf^(0+1280),f,c
  3534   003772  364C               	rlcf	(??_powf+1)^(0+1280),f,c
  3535   003774  0E89               	movlw	low _bp
  3536   003776  244B               	addwf	??_powf^(0+1280),w,c
  3537   003778  6EF6               	movwf	tblptrl,c
  3538   00377A  0E26               	movlw	high _bp
  3539   00377C  204C               	addwfc	(??_powf+1)^(0+1280),w,c
  3540   00377E  6EF7               	movwf	tblptrh,c
  3541   003780                     	if	1	;There are 3 active tblptr bytes
  3542   003780  6AF8               	clrf	tblptru,c
  3543   003782  0E00               	movlw	low (__mediumconst shr (0+16))
  3544   003784  22F8               	addwfc	tblptru,f,c
  3545   003786                     	endif
  3546   003786  0009               	tblrd		*+
  3547   003788  C4F5 F52E          	movff	tablat,___flsub@a
  3548   00378C  0009               	tblrd		*+
  3549   00378E  C4F5 F52F          	movff	tablat,___flsub@a+1
  3550   003792  0009               	tblrd		*+
  3551   003794  C4F5 F530          	movff	tablat,___flsub@a+2
  3552   003798  000A               	tblrd		*-
  3553   00379A  C4F5 F531          	movff	tablat,___flsub@a+3
  3554   00379E  C668  F52A         	movff	powf@t_h,___flsub@b
  3555   0037A2  C669  F52B         	movff	powf@t_h+1,___flsub@b+1
  3556   0037A6  C66A  F52C         	movff	powf@t_h+2,___flsub@b+2
  3557   0037AA  C66B  F52D         	movff	powf@t_h+3,___flsub@b+3
  3558   0037AE  EC15  F035         	call	___flsub	;wreg free
  3559   0037B2  C52A  F694         	movff	?___flsub,_powf$1542
  3560   0037B6  C52B  F695         	movff	?___flsub+1,_powf$1542+1
  3561   0037BA  C52C  F696         	movff	?___flsub+2,_powf$1542+2
  3562   0037BE  C52D  F697         	movff	?___flsub+3,_powf$1542+3
  3563   0037C2  C670  F52A         	movff	powf@ax,___flsub@b
  3564   0037C6  C671  F52B         	movff	powf@ax+1,___flsub@b+1
  3565   0037CA  C672  F52C         	movff	powf@ax+2,___flsub@b+2
  3566   0037CE  C673  F52D         	movff	powf@ax+3,___flsub@b+3
  3567   0037D2  C694  F52E         	movff	_powf$1542,___flsub@a
  3568   0037D6  C695  F52F         	movff	_powf$1542+1,___flsub@a+1
  3569   0037DA  C696  F530         	movff	_powf$1542+2,___flsub@a+2
  3570   0037DE  C697  F531         	movff	_powf$1542+3,___flsub@a+3
  3571   0037E2  EC15  F035         	call	___flsub	;wreg free
  3572   0037E6  C52A  F634         	movff	?___flsub,powf@t_l
  3573   0037EA  C52B  F635         	movff	?___flsub+1,powf@t_l+1
  3574   0037EE  C52C  F636         	movff	?___flsub+2,powf@t_l+2
  3575   0037F2  C52D  F637         	movff	?___flsub+3,powf@t_l+3
  3576   0037F6  C668  F515         	movff	powf@t_h,___flmul@a
  3577   0037FA  C669  F516         	movff	powf@t_h+1,___flmul@a+1
  3578   0037FE  C66A  F517         	movff	powf@t_h+2,___flmul@a+2
  3579   003802  C66B  F518         	movff	powf@t_h+3,___flmul@a+3
  3580   003806  C66C  F511         	movff	powf@s_h,___flmul@b
  3581   00380A  C66D  F512         	movff	powf@s_h+1,___flmul@b+1
  3582   00380E  C66E  F513         	movff	powf@s_h+2,___flmul@b+2
  3583   003812  C66F  F514         	movff	powf@s_h+3,___flmul@b+3
  3584   003816  EC9C  F02C         	call	___flmul	;wreg free
  3585   00381A  C511  F52E         	movff	?___flmul,___flsub@a
  3586   00381E  C512  F52F         	movff	?___flmul+1,___flsub@a+1
  3587   003822  C513  F530         	movff	?___flmul+2,___flsub@a+2
  3588   003826  C514  F531         	movff	?___flmul+3,___flsub@a+3
  3589   00382A  C674  F52A         	movff	powf@u,___flsub@b
  3590   00382E  C675  F52B         	movff	powf@u+1,___flsub@b+1
  3591   003832  C676  F52C         	movff	powf@u+2,___flsub@b+2
  3592   003836  C677  F52D         	movff	powf@u+3,___flsub@b+3
  3593   00383A  EC15  F035         	call	___flsub	;wreg free
  3594   00383E  C52A  F694         	movff	?___flsub,_powf$1542
  3595   003842  C52B  F695         	movff	?___flsub+1,_powf$1542+1
  3596   003846  C52C  F696         	movff	?___flsub+2,_powf$1542+2
  3597   00384A  C52D  F697         	movff	?___flsub+3,_powf$1542+3
  3598   00384E  C634  F515         	movff	powf@t_l,___flmul@a
  3599   003852  C635  F516         	movff	powf@t_l+1,___flmul@a+1
  3600   003856  C636  F517         	movff	powf@t_l+2,___flmul@a+2
  3601   00385A  C637  F518         	movff	powf@t_l+3,___flmul@a+3
  3602   00385E  C66C  F511         	movff	powf@s_h,___flmul@b
  3603   003862  C66D  F512         	movff	powf@s_h+1,___flmul@b+1
  3604   003866  C66E  F513         	movff	powf@s_h+2,___flmul@b+2
  3605   00386A  C66F  F514         	movff	powf@s_h+3,___flmul@b+3
  3606   00386E  EC9C  F02C         	call	___flmul	;wreg free
  3607   003872  C511  F52E         	movff	?___flmul,___flsub@a
  3608   003876  C512  F52F         	movff	?___flmul+1,___flsub@a+1
  3609   00387A  C513  F530         	movff	?___flmul+2,___flsub@a+2
  3610   00387E  C514  F531         	movff	?___flmul+3,___flsub@a+3
  3611   003882  C694  F52A         	movff	_powf$1542,___flsub@b
  3612   003886  C695  F52B         	movff	_powf$1542+1,___flsub@b+1
  3613   00388A  C696  F52C         	movff	_powf$1542+2,___flsub@b+2
  3614   00388E  C697  F52D         	movff	_powf$1542+3,___flsub@b+3
  3615   003892  EC15  F035         	call	___flsub	;wreg free
  3616   003896  C52A  F654         	movff	?___flsub,_powf$1540
  3617   00389A  C52B  F655         	movff	?___flsub+1,_powf$1540+1
  3618   00389E  C52C  F656         	movff	?___flsub+2,_powf$1540+2
  3619   0038A2  C52D  F657         	movff	?___flsub+3,_powf$1540+3
  3620   0038A6  C654  F511         	movff	_powf$1540,___flmul@b
  3621   0038AA  C655  F512         	movff	_powf$1540+1,___flmul@b+1
  3622   0038AE  C656  F513         	movff	_powf$1540+2,___flmul@b+2
  3623   0038B2  C657  F514         	movff	_powf$1540+3,___flmul@b+3
  3624   0038B6  C678  F515         	movff	powf@v,___flmul@a
  3625   0038BA  C679  F516         	movff	powf@v+1,___flmul@a+1
  3626   0038BE  C67A  F517         	movff	powf@v+2,___flmul@a+2
  3627   0038C2  C67B  F518         	movff	powf@v+3,___flmul@a+3
  3628   0038C6  EC9C  F02C         	call	___flmul	;wreg free
  3629   0038CA  C511  F630         	movff	?___flmul,powf@s_l
  3630   0038CE  C512  F631         	movff	?___flmul+1,powf@s_l+1
  3631   0038D2  C513  F632         	movff	?___flmul+2,powf@s_l+2
  3632   0038D6  C514  F633         	movff	?___flmul+3,powf@s_l+3
  3633   0038DA  C65C  F511         	movff	powf@s,___flmul@b
  3634   0038DE  C65D  F512         	movff	powf@s+1,___flmul@b+1
  3635   0038E2  C65E  F513         	movff	powf@s+2,___flmul@b+2
  3636   0038E6  C65F  F514         	movff	powf@s+3,___flmul@b+3
  3637   0038EA  C65C  F515         	movff	powf@s,___flmul@a
  3638   0038EE  C65D  F516         	movff	powf@s+1,___flmul@a+1
  3639   0038F2  C65E  F517         	movff	powf@s+2,___flmul@a+2
  3640   0038F6  C65F  F518         	movff	powf@s+3,___flmul@a+3
  3641   0038FA  EC9C  F02C         	call	___flmul	;wreg free
  3642   0038FE  C511  F68C         	movff	?___flmul,powf@s2
  3643   003902  C512  F68D         	movff	?___flmul+1,powf@s2+1
  3644   003906  C513  F68E         	movff	?___flmul+2,powf@s2+2
  3645   00390A  C514  F68F         	movff	?___flmul+3,powf@s2+3
  3646   00390E  0E55               	movlw	85
  3647   003910  6E05               	movwf	___fladd@a^(0+1280),c
  3648   003912  0E32               	movlw	50
  3649   003914  6E06               	movwf	(___fladd@a+1)^(0+1280),c
  3650   003916  0E6C               	movlw	108
  3651   003918  6E07               	movwf	(___fladd@a+2)^(0+1280),c
  3652   00391A  0E3E               	movlw	62
  3653   00391C  6E08               	movwf	(___fladd@a+3)^(0+1280),c
  3654   00391E  0E42               	movlw	66
  3655   003920  6E15               	movwf	___flmul@a^(0+1280),c
  3656   003922  0EF1               	movlw	241
  3657   003924  6E16               	movwf	(___flmul@a+1)^(0+1280),c
  3658   003926  0E53               	movlw	83
  3659   003928  6E17               	movwf	(___flmul@a+2)^(0+1280),c
  3660   00392A  0E3E               	movlw	62
  3661   00392C  6E18               	movwf	(___flmul@a+3)^(0+1280),c
  3662   00392E  C68C  F511         	movff	powf@s2,___flmul@b
  3663   003932  C68D  F512         	movff	powf@s2+1,___flmul@b+1
  3664   003936  C68E  F513         	movff	powf@s2+2,___flmul@b+2
  3665   00393A  C68F  F514         	movff	powf@s2+3,___flmul@b+3
  3666   00393E  EC9C  F02C         	call	___flmul	;wreg free
  3667   003942  C511  F501         	movff	?___flmul,___fladd@b
  3668   003946  C512  F502         	movff	?___flmul+1,___fladd@b+1
  3669   00394A  C513  F503         	movff	?___flmul+2,___fladd@b+2
  3670   00394E  C514  F504         	movff	?___flmul+3,___fladd@b+3
  3671   003952  EC3C  F02A         	call	___fladd	;wreg free
  3672   003956  C501  F6A4         	movff	?___fladd,_powf$1539
  3673   00395A  C502  F6A5         	movff	?___fladd+1,_powf$1539+1
  3674   00395E  C503  F6A6         	movff	?___fladd+2,_powf$1539+2
  3675   003962  C504  F6A7         	movff	?___fladd+3,_powf$1539+3
  3676   003966  0E05               	movlw	5
  3677   003968  6E05               	movwf	___fladd@a^(0+1280),c
  3678   00396A  0EA3               	movlw	163
  3679   00396C  6E06               	movwf	(___fladd@a+1)^(0+1280),c
  3680   00396E  0E8B               	movlw	139
  3681   003970  6E07               	movwf	(___fladd@a+2)^(0+1280),c
  3682   003972  0E3E               	movlw	62
  3683   003974  6E08               	movwf	(___fladd@a+3)^(0+1280),c
  3684   003976  C68C  F515         	movff	powf@s2,___flmul@a
  3685   00397A  C68D  F516         	movff	powf@s2+1,___flmul@a+1
  3686   00397E  C68E  F517         	movff	powf@s2+2,___flmul@a+2
  3687   003982  C68F  F518         	movff	powf@s2+3,___flmul@a+3
  3688   003986  C6A4  F511         	movff	_powf$1539,___flmul@b
  3689   00398A  C6A5  F512         	movff	_powf$1539+1,___flmul@b+1
  3690   00398E  C6A6  F513         	movff	_powf$1539+2,___flmul@b+2
  3691   003992  C6A7  F514         	movff	_powf$1539+3,___flmul@b+3
  3692   003996  EC9C  F02C         	call	___flmul	;wreg free
  3693   00399A  C511  F501         	movff	?___flmul,___fladd@b
  3694   00399E  C512  F502         	movff	?___flmul+1,___fladd@b+1
  3695   0039A2  C513  F503         	movff	?___flmul+2,___fladd@b+2
  3696   0039A6  C514  F504         	movff	?___flmul+3,___fladd@b+3
  3697   0039AA  EC3C  F02A         	call	___fladd	;wreg free
  3698   0039AE  C501  F654         	movff	?___fladd,_powf$1540
  3699   0039B2  C502  F655         	movff	?___fladd+1,_powf$1540+1
  3700   0039B6  C503  F656         	movff	?___fladd+2,_powf$1540+2
  3701   0039BA  C504  F657         	movff	?___fladd+3,_powf$1540+3
  3702   0039BE  0EAB               	movlw	171
  3703   0039C0  6E05               	movwf	___fladd@a^(0+1280),c
  3704   0039C2  0EAA               	movlw	170
  3705   0039C4  6E06               	movwf	(___fladd@a+1)^(0+1280),c
  3706   0039C6  0EAA               	movlw	170
  3707   0039C8  6E07               	movwf	(___fladd@a+2)^(0+1280),c
  3708   0039CA  0E3E               	movlw	62
  3709   0039CC  6E08               	movwf	(___fladd@a+3)^(0+1280),c
  3710   0039CE  C68C  F515         	movff	powf@s2,___flmul@a
  3711   0039D2  C68D  F516         	movff	powf@s2+1,___flmul@a+1
  3712   0039D6  C68E  F517         	movff	powf@s2+2,___flmul@a+2
  3713   0039DA  C68F  F518         	movff	powf@s2+3,___flmul@a+3
  3714   0039DE  C654  F511         	movff	_powf$1540,___flmul@b
  3715   0039E2  C655  F512         	movff	_powf$1540+1,___flmul@b+1
  3716   0039E6  C656  F513         	movff	_powf$1540+2,___flmul@b+2
  3717   0039EA  C657  F514         	movff	_powf$1540+3,___flmul@b+3
  3718   0039EE  EC9C  F02C         	call	___flmul	;wreg free
  3719   0039F2  C511  F501         	movff	?___flmul,___fladd@b
  3720   0039F6  C512  F502         	movff	?___flmul+1,___fladd@b+1
  3721   0039FA  C513  F503         	movff	?___flmul+2,___fladd@b+2
  3722   0039FE  C514  F504         	movff	?___flmul+3,___fladd@b+3
  3723   003A02  EC3C  F02A         	call	___fladd	;wreg free
  3724   003A06  C501  F648         	movff	?___fladd,_powf$1541
  3725   003A0A  C502  F649         	movff	?___fladd+1,_powf$1541+1
  3726   003A0E  C503  F64A         	movff	?___fladd+2,_powf$1541+2
  3727   003A12  C504  F64B         	movff	?___fladd+3,_powf$1541+3
  3728   003A16  0EB7               	movlw	183
  3729   003A18  6E05               	movwf	___fladd@a^(0+1280),c
  3730   003A1A  0E6D               	movlw	109
  3731   003A1C  6E06               	movwf	(___fladd@a+1)^(0+1280),c
  3732   003A1E  0EDB               	movlw	219
  3733   003A20  6E07               	movwf	(___fladd@a+2)^(0+1280),c
  3734   003A22  0E3E               	movlw	62
  3735   003A24  6E08               	movwf	(___fladd@a+3)^(0+1280),c
  3736   003A26  C68C  F515         	movff	powf@s2,___flmul@a
  3737   003A2A  C68D  F516         	movff	powf@s2+1,___flmul@a+1
  3738   003A2E  C68E  F517         	movff	powf@s2+2,___flmul@a+2
  3739   003A32  C68F  F518         	movff	powf@s2+3,___flmul@a+3
  3740   003A36  C648  F511         	movff	_powf$1541,___flmul@b
  3741   003A3A  C649  F512         	movff	_powf$1541+1,___flmul@b+1
  3742   003A3E  C64A  F513         	movff	_powf$1541+2,___flmul@b+2
  3743   003A42  C64B  F514         	movff	_powf$1541+3,___flmul@b+3
  3744   003A46  EC9C  F02C         	call	___flmul	;wreg free
  3745   003A4A  C511  F501         	movff	?___flmul,___fladd@b
  3746   003A4E  C512  F502         	movff	?___flmul+1,___fladd@b+1
  3747   003A52  C513  F503         	movff	?___flmul+2,___fladd@b+2
  3748   003A56  C514  F504         	movff	?___flmul+3,___fladd@b+3
  3749   003A5A  EC3C  F02A         	call	___fladd	;wreg free
  3750   003A5E  C501  F638         	movff	?___fladd,_powf$1543
  3751   003A62  C502  F639         	movff	?___fladd+1,_powf$1543+1
  3752   003A66  C503  F63A         	movff	?___fladd+2,_powf$1543+2
  3753   003A6A  C504  F63B         	movff	?___fladd+3,_powf$1543+3
  3754   003A6E  0E9A               	movlw	154
  3755   003A70  6E05               	movwf	___fladd@a^(0+1280),c
  3756   003A72  0E99               	movlw	153
  3757   003A74  6E06               	movwf	(___fladd@a+1)^(0+1280),c
  3758   003A76  0E19               	movlw	25
  3759   003A78  6E07               	movwf	(___fladd@a+2)^(0+1280),c
  3760   003A7A  0E3F               	movlw	63
  3761   003A7C  6E08               	movwf	(___fladd@a+3)^(0+1280),c
  3762   003A7E  C68C  F515         	movff	powf@s2,___flmul@a
  3763   003A82  C68D  F516         	movff	powf@s2+1,___flmul@a+1
  3764   003A86  C68E  F517         	movff	powf@s2+2,___flmul@a+2
  3765   003A8A  C68F  F518         	movff	powf@s2+3,___flmul@a+3
  3766   003A8E  C638  F511         	movff	_powf$1543,___flmul@b
  3767   003A92  C639  F512         	movff	_powf$1543+1,___flmul@b+1
  3768   003A96  C63A  F513         	movff	_powf$1543+2,___flmul@b+2
  3769   003A9A  C63B  F514         	movff	_powf$1543+3,___flmul@b+3
  3770   003A9E  EC9C  F02C         	call	___flmul	;wreg free
  3771   003AA2  C511  F501         	movff	?___flmul,___fladd@b
  3772   003AA6  C512  F502         	movff	?___flmul+1,___fladd@b+1
  3773   003AAA  C513  F503         	movff	?___flmul+2,___fladd@b+2
  3774   003AAE  C514  F504         	movff	?___flmul+3,___fladd@b+3
  3775   003AB2  EC3C  F02A         	call	___fladd	;wreg free
  3776   003AB6  C501  F600         	movff	?___fladd,_powf$1544
  3777   003ABA  C502  F601         	movff	?___fladd+1,_powf$1544+1
  3778   003ABE  C503  F602         	movff	?___fladd+2,_powf$1544+2
  3779   003AC2  C504  F603         	movff	?___fladd+3,_powf$1544+3
  3780   003AC6  C68C  F515         	movff	powf@s2,___flmul@a
  3781   003ACA  C68D  F516         	movff	powf@s2+1,___flmul@a+1
  3782   003ACE  C68E  F517         	movff	powf@s2+2,___flmul@a+2
  3783   003AD2  C68F  F518         	movff	powf@s2+3,___flmul@a+3
  3784   003AD6  C68C  F511         	movff	powf@s2,___flmul@b
  3785   003ADA  C68D  F512         	movff	powf@s2+1,___flmul@b+1
  3786   003ADE  C68E  F513         	movff	powf@s2+2,___flmul@b+2
  3787   003AE2  C68F  F514         	movff	powf@s2+3,___flmul@b+3
  3788   003AE6  EC9C  F02C         	call	___flmul	;wreg free
  3789   003AEA  C511  F604         	movff	?___flmul,_powf$1545
  3790   003AEE  C512  F605         	movff	?___flmul+1,_powf$1545+1
  3791   003AF2  C513  F606         	movff	?___flmul+2,_powf$1545+2
  3792   003AF6  C514  F607         	movff	?___flmul+3,_powf$1545+3
  3793   003AFA  C600  F511         	movff	_powf$1544,___flmul@b
  3794   003AFE  C601  F512         	movff	_powf$1544+1,___flmul@b+1
  3795   003B02  C602  F513         	movff	_powf$1544+2,___flmul@b+2
  3796   003B06  C603  F514         	movff	_powf$1544+3,___flmul@b+3
  3797   003B0A  C604  F515         	movff	_powf$1545,___flmul@a
  3798   003B0E  C605  F516         	movff	_powf$1545+1,___flmul@a+1
  3799   003B12  C606  F517         	movff	_powf$1545+2,___flmul@a+2
  3800   003B16  C607  F518         	movff	_powf$1545+3,___flmul@a+3
  3801   003B1A  EC9C  F02C         	call	___flmul	;wreg free
  3802   003B1E  C511  F64C         	movff	?___flmul,powf@r
  3803   003B22  C512  F64D         	movff	?___flmul+1,powf@r+1
  3804   003B26  C513  F64E         	movff	?___flmul+2,powf@r+2
  3805   003B2A  C514  F64F         	movff	?___flmul+3,powf@r+3
  3806   003B2E  C630  F515         	movff	powf@s_l,___flmul@a
  3807   003B32  C631  F516         	movff	powf@s_l+1,___flmul@a+1
  3808   003B36  C632  F517         	movff	powf@s_l+2,___flmul@a+2
  3809   003B3A  C633  F518         	movff	powf@s_l+3,___flmul@a+3
  3810   003B3E  C65C  F505         	movff	powf@s,___fladd@a
  3811   003B42  C65D  F506         	movff	powf@s+1,___fladd@a+1
  3812   003B46  C65E  F507         	movff	powf@s+2,___fladd@a+2
  3813   003B4A  C65F  F508         	movff	powf@s+3,___fladd@a+3
  3814   003B4E  C66C  F501         	movff	powf@s_h,___fladd@b
  3815   003B52  C66D  F502         	movff	powf@s_h+1,___fladd@b+1
  3816   003B56  C66E  F503         	movff	powf@s_h+2,___fladd@b+2
  3817   003B5A  C66F  F504         	movff	powf@s_h+3,___fladd@b+3
  3818   003B5E  EC3C  F02A         	call	___fladd	;wreg free
  3819   003B62  C501  F511         	movff	?___fladd,___flmul@b
  3820   003B66  C502  F512         	movff	?___fladd+1,___flmul@b+1
  3821   003B6A  C503  F513         	movff	?___fladd+2,___flmul@b+2
  3822   003B6E  C504  F514         	movff	?___fladd+3,___flmul@b+3
  3823   003B72  EC9C  F02C         	call	___flmul	;wreg free
  3824   003B76  C511  F658         	movff	?___flmul,_powf$1546
  3825   003B7A  C512  F659         	movff	?___flmul+1,_powf$1546+1
  3826   003B7E  C513  F65A         	movff	?___flmul+2,_powf$1546+2
  3827   003B82  C514  F65B         	movff	?___flmul+3,_powf$1546+3
  3828   003B86  C64C  F501         	movff	powf@r,___fladd@b
  3829   003B8A  C64D  F502         	movff	powf@r+1,___fladd@b+1
  3830   003B8E  C64E  F503         	movff	powf@r+2,___fladd@b+2
  3831   003B92  C64F  F504         	movff	powf@r+3,___fladd@b+3
  3832   003B96  C658  F505         	movff	_powf$1546,___fladd@a
  3833   003B9A  C659  F506         	movff	_powf$1546+1,___fladd@a+1
  3834   003B9E  C65A  F507         	movff	_powf$1546+2,___fladd@a+2
  3835   003BA2  C65B  F508         	movff	_powf$1546+3,___fladd@a+3
  3836   003BA6  EC3C  F02A         	call	___fladd	;wreg free
  3837   003BAA  C501  F64C         	movff	?___fladd,powf@r
  3838   003BAE  C502  F64D         	movff	?___fladd+1,powf@r+1
  3839   003BB2  C503  F64E         	movff	?___fladd+2,powf@r+2
  3840   003BB6  C504  F64F         	movff	?___fladd+3,powf@r+3
  3841   003BBA  C66C  F511         	movff	powf@s_h,___flmul@b
  3842   003BBE  C66D  F512         	movff	powf@s_h+1,___flmul@b+1
  3843   003BC2  C66E  F513         	movff	powf@s_h+2,___flmul@b+2
  3844   003BC6  C66F  F514         	movff	powf@s_h+3,___flmul@b+3
  3845   003BCA  C66C  F515         	movff	powf@s_h,___flmul@a
  3846   003BCE  C66D  F516         	movff	powf@s_h+1,___flmul@a+1
  3847   003BD2  C66E  F517         	movff	powf@s_h+2,___flmul@a+2
  3848   003BD6  C66F  F518         	movff	powf@s_h+3,___flmul@a+3
  3849   003BDA  EC9C  F02C         	call	___flmul	;wreg free
  3850   003BDE  C511  F68C         	movff	?___flmul,powf@s2
  3851   003BE2  C512  F68D         	movff	?___flmul+1,powf@s2+1
  3852   003BE6  C513  F68E         	movff	?___flmul+2,powf@s2+2
  3853   003BEA  C514  F68F         	movff	?___flmul+3,powf@s2+3
  3854   003BEE  0E00               	movlw	0
  3855   003BF0  6E05               	movwf	___fladd@a^(0+1280),c
  3856   003BF2  0E00               	movlw	0
  3857   003BF4  6E06               	movwf	(___fladd@a+1)^(0+1280),c
  3858   003BF6  0E40               	movlw	64
  3859   003BF8  6E07               	movwf	(___fladd@a+2)^(0+1280),c
  3860   003BFA  0E40               	movlw	64
  3861   003BFC  6E08               	movwf	(___fladd@a+3)^(0+1280),c
  3862   003BFE  C68C  F501         	movff	powf@s2,___fladd@b
  3863   003C02  C68D  F502         	movff	powf@s2+1,___fladd@b+1
  3864   003C06  C68E  F503         	movff	powf@s2+2,___fladd@b+2
  3865   003C0A  C68F  F504         	movff	powf@s2+3,___fladd@b+3
  3866   003C0E  EC3C  F02A         	call	___fladd	;wreg free
  3867   003C12  C501  F658         	movff	?___fladd,_powf$1546
  3868   003C16  C502  F659         	movff	?___fladd+1,_powf$1546+1
  3869   003C1A  C503  F65A         	movff	?___fladd+2,_powf$1546+2
  3870   003C1E  C504  F65B         	movff	?___fladd+3,_powf$1546+3
  3871   003C22  C658  F501         	movff	_powf$1546,___fladd@b
  3872   003C26  C659  F502         	movff	_powf$1546+1,___fladd@b+1
  3873   003C2A  C65A  F503         	movff	_powf$1546+2,___fladd@b+2
  3874   003C2E  C65B  F504         	movff	_powf$1546+3,___fladd@b+3
  3875   003C32  C64C  F505         	movff	powf@r,___fladd@a
  3876   003C36  C64D  F506         	movff	powf@r+1,___fladd@a+1
  3877   003C3A  C64E  F507         	movff	powf@r+2,___fladd@a+2
  3878   003C3E  C64F  F508         	movff	powf@r+3,___fladd@a+3
  3879   003C42  EC3C  F02A         	call	___fladd	;wreg free
  3880   003C46  C501  F668         	movff	?___fladd,powf@t_h
  3881   003C4A  C502  F669         	movff	?___fladd+1,powf@t_h+1
  3882   003C4E  C503  F66A         	movff	?___fladd+2,powf@t_h+2
  3883   003C52  C504  F66B         	movff	?___fladd+3,powf@t_h+3
  3884   003C56  C668  F6B8         	movff	powf@t_h,powf@__xc8_float_word
  3885   003C5A  C669  F6B9         	movff	powf@t_h+1,powf@__xc8_float_word+1
  3886   003C5E  C66A  F6BA         	movff	powf@t_h+2,powf@__xc8_float_word+2
  3887   003C62  C66B  F6BB         	movff	powf@t_h+3,powf@__xc8_float_word+3
  3888   003C66  C6B8  F690         	movff	powf@__xc8_float_word,powf@is
  3889   003C6A  C6B9  F691         	movff	powf@__xc8_float_word+1,powf@is+1
  3890   003C6E  C6BA  F692         	movff	powf@__xc8_float_word+2,powf@is+2
  3891   003C72  C6BB  F693         	movff	powf@__xc8_float_word+3,powf@is+3
  3892   003C76  0E00               	movlw	0
  3893   003C78  0106               	movlb	6	; () banked
  3894   003C7A  1590               	andwf	powf@is& (0+255),w,b
  3895   003C7C  6FB8               	movwf	powf@__xc8_float_word& (0+255),b
  3896   003C7E  0EF0               	movlw	240
  3897   003C80  1591               	andwf	(powf@is+1)& (0+255),w,b
  3898   003C82  6FB9               	movwf	(powf@__xc8_float_word+1)& (0+255),b
  3899   003C84  0EFF               	movlw	255
  3900   003C86  1592               	andwf	(powf@is+2)& (0+255),w,b
  3901   003C88  6FBA               	movwf	(powf@__xc8_float_word+2)& (0+255),b
  3902   003C8A  0EFF               	movlw	255
  3903   003C8C  1593               	andwf	(powf@is+3)& (0+255),w,b
  3904   003C8E  6FBB               	movwf	(powf@__xc8_float_word+3)& (0+255),b
  3905   003C90                     
  3906                           ; BSR set to: 6
  3907   003C90  C6B8  F668         	movff	powf@__xc8_float_word,powf@t_h
  3908   003C94  C6B9  F669         	movff	powf@__xc8_float_word+1,powf@t_h+1
  3909   003C98  C6BA  F66A         	movff	powf@__xc8_float_word+2,powf@t_h+2
  3910   003C9C  C6BB  F66B         	movff	powf@__xc8_float_word+3,powf@t_h+3
  3911   003CA0                     
  3912                           ; BSR set to: 6
  3913   003CA0  0E00               	movlw	0
  3914   003CA2  6E05               	movwf	___fladd@a^(0+1280),c
  3915   003CA4  0E00               	movlw	0
  3916   003CA6  6E06               	movwf	(___fladd@a+1)^(0+1280),c
  3917   003CA8  0E40               	movlw	64
  3918   003CAA  6E07               	movwf	(___fladd@a+2)^(0+1280),c
  3919   003CAC  0EC0               	movlw	192
  3920   003CAE  6E08               	movwf	(___fladd@a+3)^(0+1280),c
  3921   003CB0  C668  F501         	movff	powf@t_h,___fladd@b
  3922   003CB4  C669  F502         	movff	powf@t_h+1,___fladd@b+1
  3923   003CB8  C66A  F503         	movff	powf@t_h+2,___fladd@b+2
  3924   003CBC  C66B  F504         	movff	powf@t_h+3,___fladd@b+3
  3925   003CC0  EC3C  F02A         	call	___fladd	;wreg free
  3926   003CC4  C501  F63C         	movff	?___fladd,_powf$1547
  3927   003CC8  C502  F63D         	movff	?___fladd+1,_powf$1547+1
  3928   003CCC  C503  F63E         	movff	?___fladd+2,_powf$1547+2
  3929   003CD0  C504  F63F         	movff	?___fladd+3,_powf$1547+3
  3930   003CD4  C68C  F52E         	movff	powf@s2,___flsub@a
  3931   003CD8  C68D  F52F         	movff	powf@s2+1,___flsub@a+1
  3932   003CDC  C68E  F530         	movff	powf@s2+2,___flsub@a+2
  3933   003CE0  C68F  F531         	movff	powf@s2+3,___flsub@a+3
  3934   003CE4  C63C  F52A         	movff	_powf$1547,___flsub@b
  3935   003CE8  C63D  F52B         	movff	_powf$1547+1,___flsub@b+1
  3936   003CEC  C63E  F52C         	movff	_powf$1547+2,___flsub@b+2
  3937   003CF0  C63F  F52D         	movff	_powf$1547+3,___flsub@b+3
  3938   003CF4  EC15  F035         	call	___flsub	;wreg free
  3939   003CF8  C52A  F640         	movff	?___flsub,_powf$1548
  3940   003CFC  C52B  F641         	movff	?___flsub+1,_powf$1548+1
  3941   003D00  C52C  F642         	movff	?___flsub+2,_powf$1548+2
  3942   003D04  C52D  F643         	movff	?___flsub+3,_powf$1548+3
  3943   003D08  C64C  F52A         	movff	powf@r,___flsub@b
  3944   003D0C  C64D  F52B         	movff	powf@r+1,___flsub@b+1
  3945   003D10  C64E  F52C         	movff	powf@r+2,___flsub@b+2
  3946   003D14  C64F  F52D         	movff	powf@r+3,___flsub@b+3
  3947   003D18  C640  F52E         	movff	_powf$1548,___flsub@a
  3948   003D1C  C641  F52F         	movff	_powf$1548+1,___flsub@a+1
  3949   003D20  C642  F530         	movff	_powf$1548+2,___flsub@a+2
  3950   003D24  C643  F531         	movff	_powf$1548+3,___flsub@a+3
  3951   003D28  EC15  F035         	call	___flsub	;wreg free
  3952   003D2C  C52A  F634         	movff	?___flsub,powf@t_l
  3953   003D30  C52B  F635         	movff	?___flsub+1,powf@t_l+1
  3954   003D34  C52C  F636         	movff	?___flsub+2,powf@t_l+2
  3955   003D38  C52D  F637         	movff	?___flsub+3,powf@t_l+3
  3956   003D3C  C66C  F511         	movff	powf@s_h,___flmul@b
  3957   003D40  C66D  F512         	movff	powf@s_h+1,___flmul@b+1
  3958   003D44  C66E  F513         	movff	powf@s_h+2,___flmul@b+2
  3959   003D48  C66F  F514         	movff	powf@s_h+3,___flmul@b+3
  3960   003D4C  C668  F515         	movff	powf@t_h,___flmul@a
  3961   003D50  C669  F516         	movff	powf@t_h+1,___flmul@a+1
  3962   003D54  C66A  F517         	movff	powf@t_h+2,___flmul@a+2
  3963   003D58  C66B  F518         	movff	powf@t_h+3,___flmul@a+3
  3964   003D5C  EC9C  F02C         	call	___flmul	;wreg free
  3965   003D60  C511  F674         	movff	?___flmul,powf@u
  3966   003D64  C512  F675         	movff	?___flmul+1,powf@u+1
  3967   003D68  C513  F676         	movff	?___flmul+2,powf@u+2
  3968   003D6C  C514  F677         	movff	?___flmul+3,powf@u+3
  3969   003D70  C668  F515         	movff	powf@t_h,___flmul@a
  3970   003D74  C669  F516         	movff	powf@t_h+1,___flmul@a+1
  3971   003D78  C66A  F517         	movff	powf@t_h+2,___flmul@a+2
  3972   003D7C  C66B  F518         	movff	powf@t_h+3,___flmul@a+3
  3973   003D80  C630  F511         	movff	powf@s_l,___flmul@b
  3974   003D84  C631  F512         	movff	powf@s_l+1,___flmul@b+1
  3975   003D88  C632  F513         	movff	powf@s_l+2,___flmul@b+2
  3976   003D8C  C633  F514         	movff	powf@s_l+3,___flmul@b+3
  3977   003D90  EC9C  F02C         	call	___flmul	;wreg free
  3978   003D94  C511  F501         	movff	?___flmul,___fladd@b
  3979   003D98  C512  F502         	movff	?___flmul+1,___fladd@b+1
  3980   003D9C  C513  F503         	movff	?___flmul+2,___fladd@b+2
  3981   003DA0  C514  F504         	movff	?___flmul+3,___fladd@b+3
  3982   003DA4  C65C  F515         	movff	powf@s,___flmul@a
  3983   003DA8  C65D  F516         	movff	powf@s+1,___flmul@a+1
  3984   003DAC  C65E  F517         	movff	powf@s+2,___flmul@a+2
  3985   003DB0  C65F  F518         	movff	powf@s+3,___flmul@a+3
  3986   003DB4  C634  F511         	movff	powf@t_l,___flmul@b
  3987   003DB8  C635  F512         	movff	powf@t_l+1,___flmul@b+1
  3988   003DBC  C636  F513         	movff	powf@t_l+2,___flmul@b+2
  3989   003DC0  C637  F514         	movff	powf@t_l+3,___flmul@b+3
  3990   003DC4  EC9C  F02C         	call	___flmul	;wreg free
  3991   003DC8  C511  F505         	movff	?___flmul,___fladd@a
  3992   003DCC  C512  F506         	movff	?___flmul+1,___fladd@a+1
  3993   003DD0  C513  F507         	movff	?___flmul+2,___fladd@a+2
  3994   003DD4  C514  F508         	movff	?___flmul+3,___fladd@a+3
  3995   003DD8  EC3C  F02A         	call	___fladd	;wreg free
  3996   003DDC  C501  F678         	movff	?___fladd,powf@v
  3997   003DE0  C502  F679         	movff	?___fladd+1,powf@v+1
  3998   003DE4  C503  F67A         	movff	?___fladd+2,powf@v+2
  3999   003DE8  C504  F67B         	movff	?___fladd+3,powf@v+3
  4000   003DEC  C674  F501         	movff	powf@u,___fladd@b
  4001   003DF0  C675  F502         	movff	powf@u+1,___fladd@b+1
  4002   003DF4  C676  F503         	movff	powf@u+2,___fladd@b+2
  4003   003DF8  C677  F504         	movff	powf@u+3,___fladd@b+3
  4004   003DFC  C678  F505         	movff	powf@v,___fladd@a
  4005   003E00  C679  F506         	movff	powf@v+1,___fladd@a+1
  4006   003E04  C67A  F507         	movff	powf@v+2,___fladd@a+2
  4007   003E08  C67B  F508         	movff	powf@v+3,___fladd@a+3
  4008   003E0C  EC3C  F02A         	call	___fladd	;wreg free
  4009   003E10  C501  F69C         	movff	?___fladd,powf@p_h
  4010   003E14  C502  F69D         	movff	?___fladd+1,powf@p_h+1
  4011   003E18  C503  F69E         	movff	?___fladd+2,powf@p_h+2
  4012   003E1C  C504  F69F         	movff	?___fladd+3,powf@p_h+3
  4013   003E20  C69C  F6B8         	movff	powf@p_h,powf@__xc8_float_word
  4014   003E24  C69D  F6B9         	movff	powf@p_h+1,powf@__xc8_float_word+1
  4015   003E28  C69E  F6BA         	movff	powf@p_h+2,powf@__xc8_float_word+2
  4016   003E2C  C69F  F6BB         	movff	powf@p_h+3,powf@__xc8_float_word+3
  4017   003E30  C6B8  F690         	movff	powf@__xc8_float_word,powf@is
  4018   003E34  C6B9  F691         	movff	powf@__xc8_float_word+1,powf@is+1
  4019   003E38  C6BA  F692         	movff	powf@__xc8_float_word+2,powf@is+2
  4020   003E3C  C6BB  F693         	movff	powf@__xc8_float_word+3,powf@is+3
  4021   003E40  0E00               	movlw	0
  4022   003E42  0106               	movlb	6	; () banked
  4023   003E44  1590               	andwf	powf@is& (0+255),w,b
  4024   003E46  6FB8               	movwf	powf@__xc8_float_word& (0+255),b
  4025   003E48  0EF0               	movlw	240
  4026   003E4A  1591               	andwf	(powf@is+1)& (0+255),w,b
  4027   003E4C  6FB9               	movwf	(powf@__xc8_float_word+1)& (0+255),b
  4028   003E4E  0EFF               	movlw	255
  4029   003E50  1592               	andwf	(powf@is+2)& (0+255),w,b
  4030   003E52  6FBA               	movwf	(powf@__xc8_float_word+2)& (0+255),b
  4031   003E54  0EFF               	movlw	255
  4032   003E56  1593               	andwf	(powf@is+3)& (0+255),w,b
  4033   003E58  6FBB               	movwf	(powf@__xc8_float_word+3)& (0+255),b
  4034   003E5A                     
  4035                           ; BSR set to: 6
  4036   003E5A  C6B8  F69C         	movff	powf@__xc8_float_word,powf@p_h
  4037   003E5E  C6B9  F69D         	movff	powf@__xc8_float_word+1,powf@p_h+1
  4038   003E62  C6BA  F69E         	movff	powf@__xc8_float_word+2,powf@p_h+2
  4039   003E66  C6BB  F69F         	movff	powf@__xc8_float_word+3,powf@p_h+3
  4040   003E6A                     
  4041                           ; BSR set to: 6
  4042   003E6A  C674  F52E         	movff	powf@u,___flsub@a
  4043   003E6E  C675  F52F         	movff	powf@u+1,___flsub@a+1
  4044   003E72  C676  F530         	movff	powf@u+2,___flsub@a+2
  4045   003E76  C677  F531         	movff	powf@u+3,___flsub@a+3
  4046   003E7A  C69C  F52A         	movff	powf@p_h,___flsub@b
  4047   003E7E  C69D  F52B         	movff	powf@p_h+1,___flsub@b+1
  4048   003E82  C69E  F52C         	movff	powf@p_h+2,___flsub@b+2
  4049   003E86  C69F  F52D         	movff	powf@p_h+3,___flsub@b+3
  4050   003E8A  EC15  F035         	call	___flsub	;wreg free
  4051   003E8E  C52A  F694         	movff	?___flsub,_powf$1542
  4052   003E92  C52B  F695         	movff	?___flsub+1,_powf$1542+1
  4053   003E96  C52C  F696         	movff	?___flsub+2,_powf$1542+2
  4054   003E9A  C52D  F697         	movff	?___flsub+3,_powf$1542+3
  4055   003E9E  C678  F52A         	movff	powf@v,___flsub@b
  4056   003EA2  C679  F52B         	movff	powf@v+1,___flsub@b+1
  4057   003EA6  C67A  F52C         	movff	powf@v+2,___flsub@b+2
  4058   003EAA  C67B  F52D         	movff	powf@v+3,___flsub@b+3
  4059   003EAE  C694  F52E         	movff	_powf$1542,___flsub@a
  4060   003EB2  C695  F52F         	movff	_powf$1542+1,___flsub@a+1
  4061   003EB6  C696  F530         	movff	_powf$1542+2,___flsub@a+2
  4062   003EBA  C697  F531         	movff	_powf$1542+3,___flsub@a+3
  4063   003EBE  EC15  F035         	call	___flsub	;wreg free
  4064   003EC2  C52A  F664         	movff	?___flsub,powf@p_l
  4065   003EC6  C52B  F665         	movff	?___flsub+1,powf@p_l+1
  4066   003ECA  C52C  F666         	movff	?___flsub+2,powf@p_l+2
  4067   003ECE  C52D  F667         	movff	?___flsub+3,powf@p_l+3
  4068   003ED2  C69C  F511         	movff	powf@p_h,___flmul@b
  4069   003ED6  C69D  F512         	movff	powf@p_h+1,___flmul@b+1
  4070   003EDA  C69E  F513         	movff	powf@p_h+2,___flmul@b+2
  4071   003EDE  C69F  F514         	movff	powf@p_h+3,___flmul@b+3
  4072   003EE2  0E00               	movlw	0
  4073   003EE4  6E15               	movwf	___flmul@a^(0+1280),c
  4074   003EE6  0E40               	movlw	64
  4075   003EE8  6E16               	movwf	(___flmul@a+1)^(0+1280),c
  4076   003EEA  0E76               	movlw	118
  4077   003EEC  6E17               	movwf	(___flmul@a+2)^(0+1280),c
  4078   003EEE  0E3F               	movlw	63
  4079   003EF0  6E18               	movwf	(___flmul@a+3)^(0+1280),c
  4080   003EF2  EC9C  F02C         	call	___flmul	;wreg free
  4081   003EF6  C511  F620         	movff	?___flmul,powf@z_h
  4082   003EFA  C512  F621         	movff	?___flmul+1,powf@z_h+1
  4083   003EFE  C513  F622         	movff	?___flmul+2,powf@z_h+2
  4084   003F02  C514  F623         	movff	?___flmul+3,powf@z_h+3
  4085   003F06  0E4F               	movlw	79
  4086   003F08  6E15               	movwf	___flmul@a^(0+1280),c
  4087   003F0A  0E38               	movlw	56
  4088   003F0C  6E16               	movwf	(___flmul@a+1)^(0+1280),c
  4089   003F0E  0E76               	movlw	118
  4090   003F10  6E17               	movwf	(___flmul@a+2)^(0+1280),c
  4091   003F12  0E3F               	movlw	63
  4092   003F14  6E18               	movwf	(___flmul@a+3)^(0+1280),c
  4093   003F16  C664  F511         	movff	powf@p_l,___flmul@b
  4094   003F1A  C665  F512         	movff	powf@p_l+1,___flmul@b+1
  4095   003F1E  C666  F513         	movff	powf@p_l+2,___flmul@b+2
  4096   003F22  C667  F514         	movff	powf@p_l+3,___flmul@b+3
  4097   003F26  EC9C  F02C         	call	___flmul	;wreg free
  4098   003F2A  C511  F505         	movff	?___flmul,___fladd@a
  4099   003F2E  C512  F506         	movff	?___flmul+1,___fladd@a+1
  4100   003F32  C513  F507         	movff	?___flmul+2,___fladd@a+2
  4101   003F36  C514  F508         	movff	?___flmul+3,___fladd@a+3
  4102   003F3A  0EC6               	movlw	198
  4103   003F3C  6E15               	movwf	___flmul@a^(0+1280),c
  4104   003F3E  0E23               	movlw	35
  4105   003F40  6E16               	movwf	(___flmul@a+1)^(0+1280),c
  4106   003F42  0EF6               	movlw	246
  4107   003F44  6E17               	movwf	(___flmul@a+2)^(0+1280),c
  4108   003F46  0EB8               	movlw	184
  4109   003F48  6E18               	movwf	(___flmul@a+3)^(0+1280),c
  4110   003F4A  C69C  F511         	movff	powf@p_h,___flmul@b
  4111   003F4E  C69D  F512         	movff	powf@p_h+1,___flmul@b+1
  4112   003F52  C69E  F513         	movff	powf@p_h+2,___flmul@b+2
  4113   003F56  C69F  F514         	movff	powf@p_h+3,___flmul@b+3
  4114   003F5A  EC9C  F02C         	call	___flmul	;wreg free
  4115   003F5E  C511  F501         	movff	?___flmul,___fladd@b
  4116   003F62  C512  F502         	movff	?___flmul+1,___fladd@b+1
  4117   003F66  C513  F503         	movff	?___flmul+2,___fladd@b+2
  4118   003F6A  C514  F504         	movff	?___flmul+3,___fladd@b+3
  4119   003F6E  EC3C  F02A         	call	___fladd	;wreg free
  4120   003F72  C501  F658         	movff	?___fladd,_powf$1546
  4121   003F76  C502  F659         	movff	?___fladd+1,_powf$1546+1
  4122   003F7A  C503  F65A         	movff	?___fladd+2,_powf$1546+2
  4123   003F7E  C504  F65B         	movff	?___fladd+3,_powf$1546+3
  4124   003F82  C658  F501         	movff	_powf$1546,___fladd@b
  4125   003F86  C659  F502         	movff	_powf$1546+1,___fladd@b+1
  4126   003F8A  C65A  F503         	movff	_powf$1546+2,___fladd@b+2
  4127   003F8E  C65B  F504         	movff	_powf$1546+3,___fladd@b+3
  4128   003F92  C6A0  F54B         	movff	powf@k,??_powf
  4129   003F96  C6A1  F54C         	movff	powf@k+1,??_powf+1
  4130   003F9A  90D8               	bcf	status,0,c
  4131   003F9C  364B               	rlcf	??_powf^(0+1280),f,c
  4132   003F9E  364C               	rlcf	(??_powf+1)^(0+1280),f,c
  4133   003FA0  90D8               	bcf	status,0,c
  4134   003FA2  364B               	rlcf	??_powf^(0+1280),f,c
  4135   003FA4  364C               	rlcf	(??_powf+1)^(0+1280),f,c
  4136   003FA6  0E1C               	movlw	low _dp_l
  4137   003FA8  244B               	addwf	??_powf^(0+1280),w,c
  4138   003FAA  6EF6               	movwf	tblptrl,c
  4139   003FAC  0E26               	movlw	high _dp_l
  4140   003FAE  204C               	addwfc	(??_powf+1)^(0+1280),w,c
  4141   003FB0  6EF7               	movwf	tblptrh,c
  4142   003FB2                     	if	1	;There are 3 active tblptr bytes
  4143   003FB2  6AF8               	clrf	tblptru,c
  4144   003FB4  0E00               	movlw	low (__mediumconst shr (0+16))
  4145   003FB6  22F8               	addwfc	tblptru,f,c
  4146   003FB8                     	endif
  4147   003FB8  0009               	tblrd		*+
  4148   003FBA  C4F5 F505          	movff	tablat,___fladd@a
  4149   003FBE  0009               	tblrd		*+
  4150   003FC0  C4F5 F506          	movff	tablat,___fladd@a+1
  4151   003FC4  0009               	tblrd		*+
  4152   003FC6  C4F5 F507          	movff	tablat,___fladd@a+2
  4153   003FCA  000A               	tblrd		*-
  4154   003FCC  C4F5 F508          	movff	tablat,___fladd@a+3
  4155   003FD0  EC3C  F02A         	call	___fladd	;wreg free
  4156   003FD4  C501  F624         	movff	?___fladd,powf@z_l
  4157   003FD8  C502  F625         	movff	?___fladd+1,powf@z_l+1
  4158   003FDC  C503  F626         	movff	?___fladd+2,powf@z_l+2
  4159   003FE0  C504  F627         	movff	?___fladd+3,powf@z_l+3
  4160   003FE4  C67C  F501         	movff	powf@n,___xxtofl@val
  4161   003FE8  C67D  F502         	movff	powf@n+1,___xxtofl@val+1
  4162   003FEC  C67E  F503         	movff	powf@n+2,___xxtofl@val+2
  4163   003FF0  C67F  F504         	movff	powf@n+3,___xxtofl@val+3
  4164   003FF4  0E01               	movlw	1
  4165   003FF6  EC98  F031         	call	___xxtofl
  4166   003FFA  C501  F6B0         	movff	?___xxtofl,powf@t
  4167   003FFE  C502  F6B1         	movff	?___xxtofl+1,powf@t+1
  4168   004002  C503  F6B2         	movff	?___xxtofl+2,powf@t+2
  4169   004006  C504  F6B3         	movff	?___xxtofl+3,powf@t+3
  4170   00400A  C624  F505         	movff	powf@z_l,___fladd@a
  4171   00400E  C625  F506         	movff	powf@z_l+1,___fladd@a+1
  4172   004012  C626  F507         	movff	powf@z_l+2,___fladd@a+2
  4173   004016  C627  F508         	movff	powf@z_l+3,___fladd@a+3
  4174   00401A  C620  F501         	movff	powf@z_h,___fladd@b
  4175   00401E  C621  F502         	movff	powf@z_h+1,___fladd@b+1
  4176   004022  C622  F503         	movff	powf@z_h+2,___fladd@b+2
  4177   004026  C623  F504         	movff	powf@z_h+3,___fladd@b+3
  4178   00402A  EC3C  F02A         	call	___fladd	;wreg free
  4179   00402E  C501  F658         	movff	?___fladd,_powf$1546
  4180   004032  C502  F659         	movff	?___fladd+1,_powf$1546+1
  4181   004036  C503  F65A         	movff	?___fladd+2,_powf$1546+2
  4182   00403A  C504  F65B         	movff	?___fladd+3,_powf$1546+3
  4183   00403E  C6A0  F54B         	movff	powf@k,??_powf
  4184   004042  C6A1  F54C         	movff	powf@k+1,??_powf+1
  4185   004046  90D8               	bcf	status,0,c
  4186   004048  364B               	rlcf	??_powf^(0+1280),f,c
  4187   00404A  364C               	rlcf	(??_powf+1)^(0+1280),f,c
  4188   00404C  90D8               	bcf	status,0,c
  4189   00404E  364B               	rlcf	??_powf^(0+1280),f,c
  4190   004050  364C               	rlcf	(??_powf+1)^(0+1280),f,c
  4191   004052  0E24               	movlw	low _dp_h
  4192   004054  244B               	addwf	??_powf^(0+1280),w,c
  4193   004056  6EF6               	movwf	tblptrl,c
  4194   004058  0E26               	movlw	high _dp_h
  4195   00405A  204C               	addwfc	(??_powf+1)^(0+1280),w,c
  4196   00405C  6EF7               	movwf	tblptrh,c
  4197   00405E                     	if	1	;There are 3 active tblptr bytes
  4198   00405E  6AF8               	clrf	tblptru,c
  4199   004060  0E00               	movlw	low (__mediumconst shr (0+16))
  4200   004062  22F8               	addwfc	tblptru,f,c
  4201   004064                     	endif
  4202   004064  0009               	tblrd		*+
  4203   004066  C4F5 F505          	movff	tablat,___fladd@a
  4204   00406A  0009               	tblrd		*+
  4205   00406C  C4F5 F506          	movff	tablat,___fladd@a+1
  4206   004070  0009               	tblrd		*+
  4207   004072  C4F5 F507          	movff	tablat,___fladd@a+2
  4208   004076  000A               	tblrd		*-
  4209   004078  C4F5 F508          	movff	tablat,___fladd@a+3
  4210   00407C  C658  F501         	movff	_powf$1546,___fladd@b
  4211   004080  C659  F502         	movff	_powf$1546+1,___fladd@b+1
  4212   004084  C65A  F503         	movff	_powf$1546+2,___fladd@b+2
  4213   004088  C65B  F504         	movff	_powf$1546+3,___fladd@b+3
  4214   00408C  EC3C  F02A         	call	___fladd	;wreg free
  4215   004090  C501  F608         	movff	?___fladd,_powf$1549
  4216   004094  C502  F609         	movff	?___fladd+1,_powf$1549+1
  4217   004098  C503  F60A         	movff	?___fladd+2,_powf$1549+2
  4218   00409C  C504  F60B         	movff	?___fladd+3,_powf$1549+3
  4219   0040A0  C608  F501         	movff	_powf$1549,___fladd@b
  4220   0040A4  C609  F502         	movff	_powf$1549+1,___fladd@b+1
  4221   0040A8  C60A  F503         	movff	_powf$1549+2,___fladd@b+2
  4222   0040AC  C60B  F504         	movff	_powf$1549+3,___fladd@b+3
  4223   0040B0  C6B0  F505         	movff	powf@t,___fladd@a
  4224   0040B4  C6B1  F506         	movff	powf@t+1,___fladd@a+1
  4225   0040B8  C6B2  F507         	movff	powf@t+2,___fladd@a+2
  4226   0040BC  C6B3  F508         	movff	powf@t+3,___fladd@a+3
  4227   0040C0  EC3C  F02A         	call	___fladd	;wreg free
  4228   0040C4  C501  F680         	movff	?___fladd,powf@t1
  4229   0040C8  C502  F681         	movff	?___fladd+1,powf@t1+1
  4230   0040CC  C503  F682         	movff	?___fladd+2,powf@t1+2
  4231   0040D0  C504  F683         	movff	?___fladd+3,powf@t1+3
  4232   0040D4  C680  F6B8         	movff	powf@t1,powf@__xc8_float_word
  4233   0040D8  C681  F6B9         	movff	powf@t1+1,powf@__xc8_float_word+1
  4234   0040DC  C682  F6BA         	movff	powf@t1+2,powf@__xc8_float_word+2
  4235   0040E0  C683  F6BB         	movff	powf@t1+3,powf@__xc8_float_word+3
  4236   0040E4  C6B8  F690         	movff	powf@__xc8_float_word,powf@is
  4237   0040E8  C6B9  F691         	movff	powf@__xc8_float_word+1,powf@is+1
  4238   0040EC  C6BA  F692         	movff	powf@__xc8_float_word+2,powf@is+2
  4239   0040F0  C6BB  F693         	movff	powf@__xc8_float_word+3,powf@is+3
  4240   0040F4  0E00               	movlw	0
  4241   0040F6  0106               	movlb	6	; () banked
  4242   0040F8  1590               	andwf	powf@is& (0+255),w,b
  4243   0040FA  6FB8               	movwf	powf@__xc8_float_word& (0+255),b
  4244   0040FC  0EF0               	movlw	240
  4245   0040FE  1591               	andwf	(powf@is+1)& (0+255),w,b
  4246   004100  6FB9               	movwf	(powf@__xc8_float_word+1)& (0+255),b
  4247   004102  0EFF               	movlw	255
  4248   004104  1592               	andwf	(powf@is+2)& (0+255),w,b
  4249   004106  6FBA               	movwf	(powf@__xc8_float_word+2)& (0+255),b
  4250   004108  0EFF               	movlw	255
  4251   00410A  1593               	andwf	(powf@is+3)& (0+255),w,b
  4252   00410C  6FBB               	movwf	(powf@__xc8_float_word+3)& (0+255),b
  4253   00410E                     
  4254                           ; BSR set to: 6
  4255   00410E  C6B8  F680         	movff	powf@__xc8_float_word,powf@t1
  4256   004112  C6B9  F681         	movff	powf@__xc8_float_word+1,powf@t1+1
  4257   004116  C6BA  F682         	movff	powf@__xc8_float_word+2,powf@t1+2
  4258   00411A  C6BB  F683         	movff	powf@__xc8_float_word+3,powf@t1+3
  4259   00411E                     
  4260                           ; BSR set to: 6
  4261   00411E  C6B0  F52E         	movff	powf@t,___flsub@a
  4262   004122  C6B1  F52F         	movff	powf@t+1,___flsub@a+1
  4263   004126  C6B2  F530         	movff	powf@t+2,___flsub@a+2
  4264   00412A  C6B3  F531         	movff	powf@t+3,___flsub@a+3
  4265   00412E  C680  F52A         	movff	powf@t1,___flsub@b
  4266   004132  C681  F52B         	movff	powf@t1+1,___flsub@b+1
  4267   004136  C682  F52C         	movff	powf@t1+2,___flsub@b+2
  4268   00413A  C683  F52D         	movff	powf@t1+3,___flsub@b+3
  4269   00413E  EC15  F035         	call	___flsub	;wreg free
  4270   004142  C52A  F694         	movff	?___flsub,_powf$1542
  4271   004146  C52B  F695         	movff	?___flsub+1,_powf$1542+1
  4272   00414A  C52C  F696         	movff	?___flsub+2,_powf$1542+2
  4273   00414E  C52D  F697         	movff	?___flsub+3,_powf$1542+3
  4274   004152  C6A0  F54B         	movff	powf@k,??_powf
  4275   004156  C6A1  F54C         	movff	powf@k+1,??_powf+1
  4276   00415A  90D8               	bcf	status,0,c
  4277   00415C  364B               	rlcf	??_powf^(0+1280),f,c
  4278   00415E  364C               	rlcf	(??_powf+1)^(0+1280),f,c
  4279   004160  90D8               	bcf	status,0,c
  4280   004162  364B               	rlcf	??_powf^(0+1280),f,c
  4281   004164  364C               	rlcf	(??_powf+1)^(0+1280),f,c
  4282   004166  0E24               	movlw	low _dp_h
  4283   004168  244B               	addwf	??_powf^(0+1280),w,c
  4284   00416A  6EF6               	movwf	tblptrl,c
  4285   00416C  0E26               	movlw	high _dp_h
  4286   00416E  204C               	addwfc	(??_powf+1)^(0+1280),w,c
  4287   004170  6EF7               	movwf	tblptrh,c
  4288   004172                     	if	1	;There are 3 active tblptr bytes
  4289   004172  6AF8               	clrf	tblptru,c
  4290   004174  0E00               	movlw	low (__mediumconst shr (0+16))
  4291   004176  22F8               	addwfc	tblptru,f,c
  4292   004178                     	endif
  4293   004178  0009               	tblrd		*+
  4294   00417A  C4F5 F52E          	movff	tablat,___flsub@a
  4295   00417E  0009               	tblrd		*+
  4296   004180  C4F5 F52F          	movff	tablat,___flsub@a+1
  4297   004184  0009               	tblrd		*+
  4298   004186  C4F5 F530          	movff	tablat,___flsub@a+2
  4299   00418A  000A               	tblrd		*-
  4300   00418C  C4F5 F531          	movff	tablat,___flsub@a+3
  4301   004190  C694  F52A         	movff	_powf$1542,___flsub@b
  4302   004194  C695  F52B         	movff	_powf$1542+1,___flsub@b+1
  4303   004198  C696  F52C         	movff	_powf$1542+2,___flsub@b+2
  4304   00419C  C697  F52D         	movff	_powf$1542+3,___flsub@b+3
  4305   0041A0  EC15  F035         	call	___flsub	;wreg free
  4306   0041A4  C52A  F640         	movff	?___flsub,_powf$1548
  4307   0041A8  C52B  F641         	movff	?___flsub+1,_powf$1548+1
  4308   0041AC  C52C  F642         	movff	?___flsub+2,_powf$1548+2
  4309   0041B0  C52D  F643         	movff	?___flsub+3,_powf$1548+3
  4310   0041B4  C620  F52E         	movff	powf@z_h,___flsub@a
  4311   0041B8  C621  F52F         	movff	powf@z_h+1,___flsub@a+1
  4312   0041BC  C622  F530         	movff	powf@z_h+2,___flsub@a+2
  4313   0041C0  C623  F531         	movff	powf@z_h+3,___flsub@a+3
  4314   0041C4  C640  F52A         	movff	_powf$1548,___flsub@b
  4315   0041C8  C641  F52B         	movff	_powf$1548+1,___flsub@b+1
  4316   0041CC  C642  F52C         	movff	_powf$1548+2,___flsub@b+2
  4317   0041D0  C643  F52D         	movff	_powf$1548+3,___flsub@b+3
  4318   0041D4  EC15  F035         	call	___flsub	;wreg free
  4319   0041D8  C52A  F60C         	movff	?___flsub,_powf$1550
  4320   0041DC  C52B  F60D         	movff	?___flsub+1,_powf$1550+1
  4321   0041E0  C52C  F60E         	movff	?___flsub+2,_powf$1550+2
  4322   0041E4  C52D  F60F         	movff	?___flsub+3,_powf$1550+3
  4323   0041E8  C624  F52A         	movff	powf@z_l,___flsub@b
  4324   0041EC  C625  F52B         	movff	powf@z_l+1,___flsub@b+1
  4325   0041F0  C626  F52C         	movff	powf@z_l+2,___flsub@b+2
  4326   0041F4  C627  F52D         	movff	powf@z_l+3,___flsub@b+3
  4327   0041F8  C60C  F52E         	movff	_powf$1550,___flsub@a
  4328   0041FC  C60D  F52F         	movff	_powf$1550+1,___flsub@a+1
  4329   004200  C60E  F530         	movff	_powf$1550+2,___flsub@a+2
  4330   004204  C60F  F531         	movff	_powf$1550+3,___flsub@a+3
  4331   004208  EC15  F035         	call	___flsub	;wreg free
  4332   00420C  C52A  F61C         	movff	?___flsub,powf@t2
  4333   004210  C52B  F61D         	movff	?___flsub+1,powf@t2+1
  4334   004214  C52C  F61E         	movff	?___flsub+2,powf@t2+2
  4335   004218  C52D  F61F         	movff	?___flsub+3,powf@t2+3
  4336   00421C                     l3909:
  4337   00421C  C588  F6B8         	movff	powf@y,powf@__xc8_float_word
  4338   004220  C589  F6B9         	movff	powf@y+1,powf@__xc8_float_word+1
  4339   004224  C58A  F6BA         	movff	powf@y+2,powf@__xc8_float_word+2
  4340   004228  C58B  F6BB         	movff	powf@y+3,powf@__xc8_float_word+3
  4341   00422C  C6B8  F690         	movff	powf@__xc8_float_word,powf@is
  4342   004230  C6B9  F691         	movff	powf@__xc8_float_word+1,powf@is+1
  4343   004234  C6BA  F692         	movff	powf@__xc8_float_word+2,powf@is+2
  4344   004238  C6BB  F693         	movff	powf@__xc8_float_word+3,powf@is+3
  4345   00423C  0E00               	movlw	0
  4346   00423E  0106               	movlb	6	; () banked
  4347   004240  1590               	andwf	powf@is& (0+255),w,b
  4348   004242  6FB8               	movwf	powf@__xc8_float_word& (0+255),b
  4349   004244  0EF0               	movlw	240
  4350   004246  1591               	andwf	(powf@is+1)& (0+255),w,b
  4351   004248  6FB9               	movwf	(powf@__xc8_float_word+1)& (0+255),b
  4352   00424A  0EFF               	movlw	255
  4353   00424C  1592               	andwf	(powf@is+2)& (0+255),w,b
  4354   00424E  6FBA               	movwf	(powf@__xc8_float_word+2)& (0+255),b
  4355   004250  0EFF               	movlw	255
  4356   004252  1593               	andwf	(powf@is+3)& (0+255),w,b
  4357   004254  6FBB               	movwf	(powf@__xc8_float_word+3)& (0+255),b
  4358   004256                     
  4359                           ; BSR set to: 6
  4360   004256  C6B8  F628         	movff	powf@__xc8_float_word,powf@y1
  4361   00425A  C6B9  F629         	movff	powf@__xc8_float_word+1,powf@y1+1
  4362   00425E  C6BA  F62A         	movff	powf@__xc8_float_word+2,powf@y1+2
  4363   004262  C6BB  F62B         	movff	powf@__xc8_float_word+3,powf@y1+3
  4364   004266                     
  4365                           ; BSR set to: 6
  4366   004266  C680  F515         	movff	powf@t1,___flmul@a
  4367   00426A  C681  F516         	movff	powf@t1+1,___flmul@a+1
  4368   00426E  C682  F517         	movff	powf@t1+2,___flmul@a+2
  4369   004272  C683  F518         	movff	powf@t1+3,___flmul@a+3
  4370   004276  C628  F52E         	movff	powf@y1,___flsub@a
  4371   00427A  C629  F52F         	movff	powf@y1+1,___flsub@a+1
  4372   00427E  C62A  F530         	movff	powf@y1+2,___flsub@a+2
  4373   004282  C62B  F531         	movff	powf@y1+3,___flsub@a+3
  4374   004286  C588  F52A         	movff	powf@y,___flsub@b
  4375   00428A  C589  F52B         	movff	powf@y+1,___flsub@b+1
  4376   00428E  C58A  F52C         	movff	powf@y+2,___flsub@b+2
  4377   004292  C58B  F52D         	movff	powf@y+3,___flsub@b+3
  4378   004296  EC15  F035         	call	___flsub	;wreg free
  4379   00429A  C52A  F511         	movff	?___flsub,___flmul@b
  4380   00429E  C52B  F512         	movff	?___flsub+1,___flmul@b+1
  4381   0042A2  C52C  F513         	movff	?___flsub+2,___flmul@b+2
  4382   0042A6  C52D  F514         	movff	?___flsub+3,___flmul@b+3
  4383   0042AA  EC9C  F02C         	call	___flmul	;wreg free
  4384   0042AE  C511  F610         	movff	?___flmul,_powf$1551
  4385   0042B2  C512  F611         	movff	?___flmul+1,_powf$1551+1
  4386   0042B6  C513  F612         	movff	?___flmul+2,_powf$1551+2
  4387   0042BA  C514  F613         	movff	?___flmul+3,_powf$1551+3
  4388   0042BE  C610  F501         	movff	_powf$1551,___fladd@b
  4389   0042C2  C611  F502         	movff	_powf$1551+1,___fladd@b+1
  4390   0042C6  C612  F503         	movff	_powf$1551+2,___fladd@b+2
  4391   0042CA  C613  F504         	movff	_powf$1551+3,___fladd@b+3
  4392   0042CE  C61C  F515         	movff	powf@t2,___flmul@a
  4393   0042D2  C61D  F516         	movff	powf@t2+1,___flmul@a+1
  4394   0042D6  C61E  F517         	movff	powf@t2+2,___flmul@a+2
  4395   0042DA  C61F  F518         	movff	powf@t2+3,___flmul@a+3
  4396   0042DE  C588  F511         	movff	powf@y,___flmul@b
  4397   0042E2  C589  F512         	movff	powf@y+1,___flmul@b+1
  4398   0042E6  C58A  F513         	movff	powf@y+2,___flmul@b+2
  4399   0042EA  C58B  F514         	movff	powf@y+3,___flmul@b+3
  4400   0042EE  EC9C  F02C         	call	___flmul	;wreg free
  4401   0042F2  C511  F505         	movff	?___flmul,___fladd@a
  4402   0042F6  C512  F506         	movff	?___flmul+1,___fladd@a+1
  4403   0042FA  C513  F507         	movff	?___flmul+2,___fladd@a+2
  4404   0042FE  C514  F508         	movff	?___flmul+3,___fladd@a+3
  4405   004302  EC3C  F02A         	call	___fladd	;wreg free
  4406   004306  C501  F664         	movff	?___fladd,powf@p_l
  4407   00430A  C502  F665         	movff	?___fladd+1,powf@p_l+1
  4408   00430E  C503  F666         	movff	?___fladd+2,powf@p_l+2
  4409   004312  C504  F667         	movff	?___fladd+3,powf@p_l+3
  4410   004316  C628  F511         	movff	powf@y1,___flmul@b
  4411   00431A  C629  F512         	movff	powf@y1+1,___flmul@b+1
  4412   00431E  C62A  F513         	movff	powf@y1+2,___flmul@b+2
  4413   004322  C62B  F514         	movff	powf@y1+3,___flmul@b+3
  4414   004326  C680  F515         	movff	powf@t1,___flmul@a
  4415   00432A  C681  F516         	movff	powf@t1+1,___flmul@a+1
  4416   00432E  C682  F517         	movff	powf@t1+2,___flmul@a+2
  4417   004332  C683  F518         	movff	powf@t1+3,___flmul@a+3
  4418   004336  EC9C  F02C         	call	___flmul	;wreg free
  4419   00433A  C511  F69C         	movff	?___flmul,powf@p_h
  4420   00433E  C512  F69D         	movff	?___flmul+1,powf@p_h+1
  4421   004342  C513  F69E         	movff	?___flmul+2,powf@p_h+2
  4422   004346  C514  F69F         	movff	?___flmul+3,powf@p_h+3
  4423   00434A  C664  F501         	movff	powf@p_l,___fladd@b
  4424   00434E  C665  F502         	movff	powf@p_l+1,___fladd@b+1
  4425   004352  C666  F503         	movff	powf@p_l+2,___fladd@b+2
  4426   004356  C667  F504         	movff	powf@p_l+3,___fladd@b+3
  4427   00435A  C69C  F505         	movff	powf@p_h,___fladd@a
  4428   00435E  C69D  F506         	movff	powf@p_h+1,___fladd@a+1
  4429   004362  C69E  F507         	movff	powf@p_h+2,___fladd@a+2
  4430   004366  C69F  F508         	movff	powf@p_h+3,___fladd@a+3
  4431   00436A  EC3C  F02A         	call	___fladd	;wreg free
  4432   00436E  C501  F6B4         	movff	?___fladd,powf@z
  4433   004372  C502  F6B5         	movff	?___fladd+1,powf@z+1
  4434   004376  C503  F6B6         	movff	?___fladd+2,powf@z+2
  4435   00437A  C504  F6B7         	movff	?___fladd+3,powf@z+3
  4436   00437E  C6B4  F6B8         	movff	powf@z,powf@__xc8_float_word
  4437   004382  C6B5  F6B9         	movff	powf@z+1,powf@__xc8_float_word+1
  4438   004386  C6B6  F6BA         	movff	powf@z+2,powf@__xc8_float_word+2
  4439   00438A  C6B7  F6BB         	movff	powf@z+3,powf@__xc8_float_word+3
  4440   00438E  C6B8  F6AC         	movff	powf@__xc8_float_word,powf@j
  4441   004392  C6B9  F6AD         	movff	powf@__xc8_float_word+1,powf@j+1
  4442   004396  C6BA  F6AE         	movff	powf@__xc8_float_word+2,powf@j+2
  4443   00439A  C6BB  F6AF         	movff	powf@__xc8_float_word+3,powf@j+3
  4444   00439E  0106               	movlb	6	; () banked
  4445   0043A0  BFAF               	btfsc	(powf@j+3)& (0+255),7,b
  4446   0043A2  EFDF  F021         	goto	u3711
  4447   0043A6  05AC               	decf	powf@j& (0+255),w,b
  4448   0043A8  0E00               	movlw	0
  4449   0043AA  59AD               	subwfb	(powf@j+1)& (0+255),w,b
  4450   0043AC  0E00               	movlw	0
  4451   0043AE  59AE               	subwfb	(powf@j+2)& (0+255),w,b
  4452   0043B0  0E43               	movlw	67
  4453   0043B2  59AF               	subwfb	(powf@j+3)& (0+255),w,b
  4454   0043B4  A0D8               	btfss	status,0,c
  4455   0043B6  EFDF  F021         	goto	u3711
  4456   0043BA  EFE1  F021         	goto	u3710
  4457   0043BE                     u3711:
  4458   0043BE  EF17  F022         	goto	l3937
  4459   0043C2                     u3710:
  4460   0043C2                     
  4461                           ; BSR set to: 6
  4462   0043C2  0ECA               	movlw	202
  4463   0043C4  6E15               	movwf	___flmul@a^(0+1280),c
  4464   0043C6  0EF2               	movlw	242
  4465   0043C8  6E16               	movwf	(___flmul@a+1)^(0+1280),c
  4466   0043CA  0E49               	movlw	73
  4467   0043CC  6E17               	movwf	(___flmul@a+2)^(0+1280),c
  4468   0043CE  0E71               	movlw	113
  4469   0043D0  6E18               	movwf	(___flmul@a+3)^(0+1280),c
  4470   0043D2  C688  F511         	movff	powf@sn,___flmul@b
  4471   0043D6  C689  F512         	movff	powf@sn+1,___flmul@b+1
  4472   0043DA  C68A  F513         	movff	powf@sn+2,___flmul@b+2
  4473   0043DE  C68B  F514         	movff	powf@sn+3,___flmul@b+3
  4474   0043E2  EC9C  F02C         	call	___flmul	;wreg free
  4475   0043E6  C511  F6A4         	movff	?___flmul,_powf$1539
  4476   0043EA  C512  F6A5         	movff	?___flmul+1,_powf$1539+1
  4477   0043EE  C513  F6A6         	movff	?___flmul+2,_powf$1539+2
  4478   0043F2  C514  F6A7         	movff	?___flmul+3,_powf$1539+3
  4479   0043F6  C6A4  F511         	movff	_powf$1539,___flmul@b
  4480   0043FA  C6A5  F512         	movff	_powf$1539+1,___flmul@b+1
  4481   0043FE  C6A6  F513         	movff	_powf$1539+2,___flmul@b+2
  4482   004402  C6A7  F514         	movff	_powf$1539+3,___flmul@b+3
  4483   004406  0ECA               	movlw	202
  4484   004408  6E15               	movwf	___flmul@a^(0+1280),c
  4485   00440A  0EF2               	movlw	242
  4486   00440C  6E16               	movwf	(___flmul@a+1)^(0+1280),c
  4487   00440E  0E49               	movlw	73
  4488   004410  6E17               	movwf	(___flmul@a+2)^(0+1280),c
  4489   004412  0E71               	movlw	113
  4490   004414  6E18               	movwf	(___flmul@a+3)^(0+1280),c
  4491   004416  EC9C  F02C         	call	___flmul	;wreg free
  4492   00441A  C511  F584         	movff	?___flmul,?_powf
  4493   00441E  C512  F585         	movff	?___flmul+1,?_powf+1
  4494   004422  C513  F586         	movff	?___flmul+2,?_powf+2
  4495   004426  C514  F587         	movff	?___flmul+3,?_powf+3
  4496   00442A  EFDB  F027         	goto	l1172
  4497   00442E                     l3937:
  4498                           
  4499                           ; BSR set to: 6
  4500   00442E  0E43               	movlw	67
  4501   004430  19AF               	xorwf	(powf@j+3)& (0+255),w,b
  4502   004432  11AC               	iorwf	powf@j& (0+255),w,b
  4503   004434  11AD               	iorwf	(powf@j+1)& (0+255),w,b
  4504   004436  11AE               	iorwf	(powf@j+2)& (0+255),w,b
  4505   004438  A4D8               	btfss	status,2,c
  4506   00443A  EF21  F022         	goto	u3721
  4507   00443E  EF23  F022         	goto	u3720
  4508   004442                     u3721:
  4509   004442  EF96  F022         	goto	l3945
  4510   004446                     u3720:
  4511   004446                     
  4512                           ; BSR set to: 6
  4513   004446  C69C  F52E         	movff	powf@p_h,___flsub@a
  4514   00444A  C69D  F52F         	movff	powf@p_h+1,___flsub@a+1
  4515   00444E  C69E  F530         	movff	powf@p_h+2,___flsub@a+2
  4516   004452  C69F  F531         	movff	powf@p_h+3,___flsub@a+3
  4517   004456  C6B4  F52A         	movff	powf@z,___flsub@b
  4518   00445A  C6B5  F52B         	movff	powf@z+1,___flsub@b+1
  4519   00445E  C6B6  F52C         	movff	powf@z+2,___flsub@b+2
  4520   004462  C6B7  F52D         	movff	powf@z+3,___flsub@b+3
  4521   004466  EC15  F035         	call	___flsub	;wreg free
  4522   00446A  C52A  F532         	movff	?___flsub,___flge@ff1
  4523   00446E  C52B  F533         	movff	?___flsub+1,___flge@ff1+1
  4524   004472  C52C  F534         	movff	?___flsub+2,___flge@ff1+2
  4525   004476  C52D  F535         	movff	?___flsub+3,___flge@ff1+3
  4526   00447A  0E3C               	movlw	60
  4527   00447C  6E05               	movwf	___fladd@a^(0+1280),c
  4528   00447E  0EAA               	movlw	170
  4529   004480  6E06               	movwf	(___fladd@a+1)^(0+1280),c
  4530   004482  0E38               	movlw	56
  4531   004484  6E07               	movwf	(___fladd@a+2)^(0+1280),c
  4532   004486  0E33               	movlw	51
  4533   004488  6E08               	movwf	(___fladd@a+3)^(0+1280),c
  4534   00448A  C664  F501         	movff	powf@p_l,___fladd@b
  4535   00448E  C665  F502         	movff	powf@p_l+1,___fladd@b+1
  4536   004492  C666  F503         	movff	powf@p_l+2,___fladd@b+2
  4537   004496  C667  F504         	movff	powf@p_l+3,___fladd@b+3
  4538   00449A  EC3C  F02A         	call	___fladd	;wreg free
  4539   00449E  C501  F536         	movff	?___fladd,___flge@ff2
  4540   0044A2  C502  F537         	movff	?___fladd+1,___flge@ff2+1
  4541   0044A6  C503  F538         	movff	?___fladd+2,___flge@ff2+2
  4542   0044AA  C504  F539         	movff	?___fladd+3,___flge@ff2+3
  4543   0044AE  EC85  F033         	call	___flge	;wreg free
  4544   0044B2  B0D8               	btfsc	status,0,c
  4545   0044B4  EF5E  F022         	goto	u3731
  4546   0044B8  EF60  F022         	goto	u3730
  4547   0044BC                     u3731:
  4548   0044BC  EF58  F023         	goto	l3961
  4549   0044C0                     u3730:
  4550   0044C0  0ECA               	movlw	202
  4551   0044C2  6E15               	movwf	___flmul@a^(0+1280),c
  4552   0044C4  0EF2               	movlw	242
  4553   0044C6  6E16               	movwf	(___flmul@a+1)^(0+1280),c
  4554   0044C8  0E49               	movlw	73
  4555   0044CA  6E17               	movwf	(___flmul@a+2)^(0+1280),c
  4556   0044CC  0E71               	movlw	113
  4557   0044CE  6E18               	movwf	(___flmul@a+3)^(0+1280),c
  4558   0044D0  C688  F511         	movff	powf@sn,___flmul@b
  4559   0044D4  C689  F512         	movff	powf@sn+1,___flmul@b+1
  4560   0044D8  C68A  F513         	movff	powf@sn+2,___flmul@b+2
  4561   0044DC  C68B  F514         	movff	powf@sn+3,___flmul@b+3
  4562   0044E0  EC9C  F02C         	call	___flmul	;wreg free
  4563   0044E4  C511  F6A4         	movff	?___flmul,_powf$1539
  4564   0044E8  C512  F6A5         	movff	?___flmul+1,_powf$1539+1
  4565   0044EC  C513  F6A6         	movff	?___flmul+2,_powf$1539+2
  4566   0044F0  C514  F6A7         	movff	?___flmul+3,_powf$1539+3
  4567   0044F4  C6A4  F511         	movff	_powf$1539,___flmul@b
  4568   0044F8  C6A5  F512         	movff	_powf$1539+1,___flmul@b+1
  4569   0044FC  C6A6  F513         	movff	_powf$1539+2,___flmul@b+2
  4570   004500  C6A7  F514         	movff	_powf$1539+3,___flmul@b+3
  4571   004504  0ECA               	movlw	202
  4572   004506  6E15               	movwf	___flmul@a^(0+1280),c
  4573   004508  0EF2               	movlw	242
  4574   00450A  6E16               	movwf	(___flmul@a+1)^(0+1280),c
  4575   00450C  0E49               	movlw	73
  4576   00450E  6E17               	movwf	(___flmul@a+2)^(0+1280),c
  4577   004510  0E71               	movlw	113
  4578   004512  6E18               	movwf	(___flmul@a+3)^(0+1280),c
  4579   004514  EC9C  F02C         	call	___flmul	;wreg free
  4580   004518  C511  F584         	movff	?___flmul,?_powf
  4581   00451C  C512  F585         	movff	?___flmul+1,?_powf+1
  4582   004520  C513  F586         	movff	?___flmul+2,?_powf+2
  4583   004524  C514  F587         	movff	?___flmul+3,?_powf+3
  4584   004528  EFDB  F027         	goto	l1172
  4585   00452C                     l3945:
  4586                           
  4587                           ; BSR set to: 6
  4588   00452C  0EFF               	movlw	255
  4589   00452E  15AC               	andwf	powf@j& (0+255),w,b
  4590   004530  6E4B               	movwf	??_powf^(0+1280),c
  4591   004532  0EFF               	movlw	255
  4592   004534  15AD               	andwf	(powf@j+1)& (0+255),w,b
  4593   004536  6E4C               	movwf	(??_powf+1)^(0+1280),c
  4594   004538  0EFF               	movlw	255
  4595   00453A  15AE               	andwf	(powf@j+2)& (0+255),w,b
  4596   00453C  6E4D               	movwf	(??_powf+2)^(0+1280),c
  4597   00453E  0E7F               	movlw	127
  4598   004540  15AF               	andwf	(powf@j+3)& (0+255),w,b
  4599   004542  6E4E               	movwf	(??_powf+3)^(0+1280),c
  4600   004544  BE4E               	btfsc	(??_powf+3)^(0+1280),7,c
  4601   004546  EFB1  F022         	goto	u3741
  4602   00454A  044B               	decf	??_powf^(0+1280),w,c
  4603   00454C  0E00               	movlw	0
  4604   00454E  584C               	subwfb	(??_powf+1)^(0+1280),w,c
  4605   004550  0E16               	movlw	22
  4606   004552  584D               	subwfb	(??_powf+2)^(0+1280),w,c
  4607   004554  0E43               	movlw	67
  4608   004556  584E               	subwfb	(??_powf+3)^(0+1280),w,c
  4609   004558  A0D8               	btfss	status,0,c
  4610   00455A  EFB1  F022         	goto	u3741
  4611   00455E  EFB3  F022         	goto	u3740
  4612   004562                     u3741:
  4613   004562  EFE9  F022         	goto	l3953
  4614   004566                     u3740:
  4615   004566                     
  4616                           ; BSR set to: 6
  4617   004566  0E60               	movlw	96
  4618   004568  6E15               	movwf	___flmul@a^(0+1280),c
  4619   00456A  0E42               	movlw	66
  4620   00456C  6E16               	movwf	(___flmul@a+1)^(0+1280),c
  4621   00456E  0EA2               	movlw	162
  4622   004570  6E17               	movwf	(___flmul@a+2)^(0+1280),c
  4623   004572  0E0D               	movlw	13
  4624   004574  6E18               	movwf	(___flmul@a+3)^(0+1280),c
  4625   004576  C688  F511         	movff	powf@sn,___flmul@b
  4626   00457A  C689  F512         	movff	powf@sn+1,___flmul@b+1
  4627   00457E  C68A  F513         	movff	powf@sn+2,___flmul@b+2
  4628   004582  C68B  F514         	movff	powf@sn+3,___flmul@b+3
  4629   004586  EC9C  F02C         	call	___flmul	;wreg free
  4630   00458A  C511  F6A4         	movff	?___flmul,_powf$1539
  4631   00458E  C512  F6A5         	movff	?___flmul+1,_powf$1539+1
  4632   004592  C513  F6A6         	movff	?___flmul+2,_powf$1539+2
  4633   004596  C514  F6A7         	movff	?___flmul+3,_powf$1539+3
  4634   00459A  C6A4  F511         	movff	_powf$1539,___flmul@b
  4635   00459E  C6A5  F512         	movff	_powf$1539+1,___flmul@b+1
  4636   0045A2  C6A6  F513         	movff	_powf$1539+2,___flmul@b+2
  4637   0045A6  C6A7  F514         	movff	_powf$1539+3,___flmul@b+3
  4638   0045AA  0E60               	movlw	96
  4639   0045AC  6E15               	movwf	___flmul@a^(0+1280),c
  4640   0045AE  0E42               	movlw	66
  4641   0045B0  6E16               	movwf	(___flmul@a+1)^(0+1280),c
  4642   0045B2  0EA2               	movlw	162
  4643   0045B4  6E17               	movwf	(___flmul@a+2)^(0+1280),c
  4644   0045B6  0E0D               	movlw	13
  4645   0045B8  6E18               	movwf	(___flmul@a+3)^(0+1280),c
  4646   0045BA  EC9C  F02C         	call	___flmul	;wreg free
  4647   0045BE  C511  F584         	movff	?___flmul,?_powf
  4648   0045C2  C512  F585         	movff	?___flmul+1,?_powf+1
  4649   0045C6  C513  F586         	movff	?___flmul+2,?_powf+2
  4650   0045CA  C514  F587         	movff	?___flmul+3,?_powf+3
  4651   0045CE  EFDB  F027         	goto	l1172
  4652   0045D2                     l3953:
  4653                           
  4654                           ; BSR set to: 6
  4655   0045D2  0E16               	movlw	22
  4656   0045D4  19AE               	xorwf	(powf@j+2)& (0+255),w,b
  4657   0045D6  E109               	bnz	u3751
  4658   0045D8  0EC3               	movlw	195
  4659   0045DA  19AF               	xorwf	(powf@j+3)& (0+255),w,b
  4660   0045DC  11AC               	iorwf	powf@j& (0+255),w,b
  4661   0045DE  11AD               	iorwf	(powf@j+1)& (0+255),w,b
  4662   0045E0  A4D8               	btfss	status,2,c
  4663   0045E2  EFF5  F022         	goto	u3751
  4664   0045E6  EFF7  F022         	goto	u3750
  4665   0045EA                     u3751:
  4666   0045EA  EF58  F023         	goto	l3961
  4667   0045EE                     u3750:
  4668   0045EE                     
  4669                           ; BSR set to: 6
  4670   0045EE  C69C  F52E         	movff	powf@p_h,___flsub@a
  4671   0045F2  C69D  F52F         	movff	powf@p_h+1,___flsub@a+1
  4672   0045F6  C69E  F530         	movff	powf@p_h+2,___flsub@a+2
  4673   0045FA  C69F  F531         	movff	powf@p_h+3,___flsub@a+3
  4674   0045FE  C6B4  F52A         	movff	powf@z,___flsub@b
  4675   004602  C6B5  F52B         	movff	powf@z+1,___flsub@b+1
  4676   004606  C6B6  F52C         	movff	powf@z+2,___flsub@b+2
  4677   00460A  C6B7  F52D         	movff	powf@z+3,___flsub@b+3
  4678   00460E  EC15  F035         	call	___flsub	;wreg free
  4679   004612  C52A  F532         	movff	?___flsub,___flge@ff1
  4680   004616  C52B  F533         	movff	?___flsub+1,___flge@ff1+1
  4681   00461A  C52C  F534         	movff	?___flsub+2,___flge@ff1+2
  4682   00461E  C52D  F535         	movff	?___flsub+3,___flge@ff1+3
  4683   004622  C664  F536         	movff	powf@p_l,___flge@ff2
  4684   004626  C665  F537         	movff	powf@p_l+1,___flge@ff2+1
  4685   00462A  C666  F538         	movff	powf@p_l+2,___flge@ff2+2
  4686   00462E  C667  F539         	movff	powf@p_l+3,___flge@ff2+3
  4687   004632  EC85  F033         	call	___flge	;wreg free
  4688   004636  A0D8               	btfss	status,0,c
  4689   004638  EF20  F023         	goto	u3761
  4690   00463C  EF22  F023         	goto	u3760
  4691   004640                     u3761:
  4692   004640  EF58  F023         	goto	l3961
  4693   004644                     u3760:
  4694   004644  0E60               	movlw	96
  4695   004646  6E15               	movwf	___flmul@a^(0+1280),c
  4696   004648  0E42               	movlw	66
  4697   00464A  6E16               	movwf	(___flmul@a+1)^(0+1280),c
  4698   00464C  0EA2               	movlw	162
  4699   00464E  6E17               	movwf	(___flmul@a+2)^(0+1280),c
  4700   004650  0E0D               	movlw	13
  4701   004652  6E18               	movwf	(___flmul@a+3)^(0+1280),c
  4702   004654  C688  F511         	movff	powf@sn,___flmul@b
  4703   004658  C689  F512         	movff	powf@sn+1,___flmul@b+1
  4704   00465C  C68A  F513         	movff	powf@sn+2,___flmul@b+2
  4705   004660  C68B  F514         	movff	powf@sn+3,___flmul@b+3
  4706   004664  EC9C  F02C         	call	___flmul	;wreg free
  4707   004668  C511  F6A4         	movff	?___flmul,_powf$1539
  4708   00466C  C512  F6A5         	movff	?___flmul+1,_powf$1539+1
  4709   004670  C513  F6A6         	movff	?___flmul+2,_powf$1539+2
  4710   004674  C514  F6A7         	movff	?___flmul+3,_powf$1539+3
  4711   004678  C6A4  F511         	movff	_powf$1539,___flmul@b
  4712   00467C  C6A5  F512         	movff	_powf$1539+1,___flmul@b+1
  4713   004680  C6A6  F513         	movff	_powf$1539+2,___flmul@b+2
  4714   004684  C6A7  F514         	movff	_powf$1539+3,___flmul@b+3
  4715   004688  0E60               	movlw	96
  4716   00468A  6E15               	movwf	___flmul@a^(0+1280),c
  4717   00468C  0E42               	movlw	66
  4718   00468E  6E16               	movwf	(___flmul@a+1)^(0+1280),c
  4719   004690  0EA2               	movlw	162
  4720   004692  6E17               	movwf	(___flmul@a+2)^(0+1280),c
  4721   004694  0E0D               	movlw	13
  4722   004696  6E18               	movwf	(___flmul@a+3)^(0+1280),c
  4723   004698  EC9C  F02C         	call	___flmul	;wreg free
  4724   00469C  C511  F584         	movff	?___flmul,?_powf
  4725   0046A0  C512  F585         	movff	?___flmul+1,?_powf+1
  4726   0046A4  C513  F586         	movff	?___flmul+2,?_powf+2
  4727   0046A8  C514  F587         	movff	?___flmul+3,?_powf+3
  4728   0046AC  EFDB  F027         	goto	l1172
  4729   0046B0                     l3961:
  4730   0046B0  0EFF               	movlw	255
  4731   0046B2  0106               	movlb	6	; () banked
  4732   0046B4  15AC               	andwf	powf@j& (0+255),w,b
  4733   0046B6  6F2C               	movwf	powf@i& (0+255),b
  4734   0046B8  0EFF               	movlw	255
  4735   0046BA  15AD               	andwf	(powf@j+1)& (0+255),w,b
  4736   0046BC  6F2D               	movwf	(powf@i+1)& (0+255),b
  4737   0046BE  0EFF               	movlw	255
  4738   0046C0  15AE               	andwf	(powf@j+2)& (0+255),w,b
  4739   0046C2  6F2E               	movwf	(powf@i+2)& (0+255),b
  4740   0046C4  0E7F               	movlw	127
  4741   0046C6  15AF               	andwf	(powf@j+3)& (0+255),w,b
  4742   0046C8  6F2F               	movwf	(powf@i+3)& (0+255),b
  4743   0046CA  0E17               	movlw	23
  4744   0046CC  6E4B               	movwf	??_powf^(0+1280),c
  4745   0046CE  C62C  F54C         	movff	powf@i,??_powf+1
  4746   0046D2  C62D  F54D         	movff	powf@i+1,??_powf+2
  4747   0046D6  C62E  F54E         	movff	powf@i+2,??_powf+3
  4748   0046DA  C62F  F54F         	movff	powf@i+3,??_powf+4
  4749   0046DE                     u3775:
  4750   0046DE  664B               	tstfsz	??_powf^(0+1280),c
  4751   0046E0  EF74  F023         	goto	u3776
  4752   0046E4  EF7C  F023         	goto	u3777
  4753   0046E8                     u3776:
  4754   0046E8  344F               	rlcf	(??_powf+4)^(0+1280),w,c
  4755   0046EA  324F               	rrcf	(??_powf+4)^(0+1280),f,c
  4756   0046EC  324E               	rrcf	(??_powf+3)^(0+1280),f,c
  4757   0046EE  324D               	rrcf	(??_powf+2)^(0+1280),f,c
  4758   0046F0  324C               	rrcf	(??_powf+1)^(0+1280),f,c
  4759   0046F2  2E4B               	decfsz	??_powf^(0+1280),f,c
  4760   0046F4  EF6F  F023         	goto	u3775
  4761   0046F8                     u3777:
  4762   0046F8  0E81               	movlw	129
  4763   0046FA  244C               	addwf	(??_powf+1)^(0+1280),w,c
  4764   0046FC  0106               	movlb	6	; () banked
  4765   0046FE  6FA0               	movwf	powf@k& (0+255),b
  4766   004700  0EFF               	movlw	255
  4767   004702  204D               	addwfc	(??_powf+2)^(0+1280),w,c
  4768   004704  6FA1               	movwf	(powf@k+1)& (0+255),b
  4769   004706  0EFF               	movlw	255
  4770   004708  204E               	addwfc	(??_powf+3)^(0+1280),w,c
  4771   00470A  6FA2               	movwf	(powf@k+2)& (0+255),b
  4772   00470C  0EFF               	movlw	255
  4773   00470E  204F               	addwfc	(??_powf+4)^(0+1280),w,c
  4774   004710  6FA3               	movwf	(powf@k+3)& (0+255),b
  4775   004712                     
  4776                           ; BSR set to: 6
  4777   004712  0E00               	movlw	0
  4778   004714  6F7C               	movwf	powf@n& (0+255),b
  4779   004716  0E00               	movlw	0
  4780   004718  6F7D               	movwf	(powf@n+1)& (0+255),b
  4781   00471A  0E00               	movlw	0
  4782   00471C  6F7E               	movwf	(powf@n+2)& (0+255),b
  4783   00471E  0E00               	movlw	0
  4784   004720  6F7F               	movwf	(powf@n+3)& (0+255),b
  4785   004722                     
  4786                           ; BSR set to: 6
  4787   004722  BF2F               	btfsc	(powf@i+3)& (0+255),7,b
  4788   004724  EFA0  F023         	goto	u3781
  4789   004728  052C               	decf	powf@i& (0+255),w,b
  4790   00472A  0E00               	movlw	0
  4791   00472C  592D               	subwfb	(powf@i+1)& (0+255),w,b
  4792   00472E  0E00               	movlw	0
  4793   004730  592E               	subwfb	(powf@i+2)& (0+255),w,b
  4794   004732  0E3F               	movlw	63
  4795   004734  592F               	subwfb	(powf@i+3)& (0+255),w,b
  4796   004736  A0D8               	btfss	status,0,c
  4797   004738  EFA0  F023         	goto	u3781
  4798   00473C  EFA2  F023         	goto	u3780
  4799   004740                     u3781:
  4800   004740  EF82  F024         	goto	l3975
  4801   004744                     u3780:
  4802   004744                     
  4803                           ; BSR set to: 6
  4804   004744  C6A0  F54B         	movff	powf@k,??_powf
  4805   004748  0E01               	movlw	1
  4806   00474A  264B               	addwf	??_powf^(0+1280),f,c
  4807   00474C  0E00               	movlw	0
  4808   00474E  6E4C               	movwf	(??_powf+1)^(0+1280),c
  4809   004750  0E00               	movlw	0
  4810   004752  6E4D               	movwf	(??_powf+2)^(0+1280),c
  4811   004754  0E80               	movlw	128
  4812   004756  6E4E               	movwf	(??_powf+3)^(0+1280),c
  4813   004758  0E00               	movlw	0
  4814   00475A  6E4F               	movwf	(??_powf+4)^(0+1280),c
  4815   00475C                     u3795:
  4816   00475C  664B               	tstfsz	??_powf^(0+1280),c
  4817   00475E  EFB3  F023         	goto	u3796
  4818   004762  EFBB  F023         	goto	u3797
  4819   004766                     u3796:
  4820   004766  344F               	rlcf	(??_powf+4)^(0+1280),w,c
  4821   004768  324F               	rrcf	(??_powf+4)^(0+1280),f,c
  4822   00476A  324E               	rrcf	(??_powf+3)^(0+1280),f,c
  4823   00476C  324D               	rrcf	(??_powf+2)^(0+1280),f,c
  4824   00476E  324C               	rrcf	(??_powf+1)^(0+1280),f,c
  4825   004770  2E4B               	decfsz	??_powf^(0+1280),f,c
  4826   004772  EFAE  F023         	goto	u3795
  4827   004776                     u3797:
  4828   004776  0106               	movlb	6	; () banked
  4829   004778  51AC               	movf	powf@j& (0+255),w,b
  4830   00477A  244C               	addwf	(??_powf+1)^(0+1280),w,c
  4831   00477C  6F7C               	movwf	powf@n& (0+255),b
  4832   00477E  51AD               	movf	(powf@j+1)& (0+255),w,b
  4833   004780  204D               	addwfc	(??_powf+2)^(0+1280),w,c
  4834   004782  6F7D               	movwf	(powf@n+1)& (0+255),b
  4835   004784  51AE               	movf	(powf@j+2)& (0+255),w,b
  4836   004786  204E               	addwfc	(??_powf+3)^(0+1280),w,c
  4837   004788  6F7E               	movwf	(powf@n+2)& (0+255),b
  4838   00478A  51AF               	movf	(powf@j+3)& (0+255),w,b
  4839   00478C  204F               	addwfc	(??_powf+4)^(0+1280),w,c
  4840   00478E  6F7F               	movwf	(powf@n+3)& (0+255),b
  4841   004790  0E81               	movlw	129
  4842   004792  6E4B               	movwf	??_powf^(0+1280),c
  4843   004794  0EFF               	movlw	255
  4844   004796  6E4C               	movwf	(??_powf+1)^(0+1280),c
  4845   004798  0EFF               	movlw	255
  4846   00479A  6E4D               	movwf	(??_powf+2)^(0+1280),c
  4847   00479C  0EFF               	movlw	255
  4848   00479E  6E4E               	movwf	(??_powf+3)^(0+1280),c
  4849   0047A0  0E17               	movlw	23
  4850   0047A2  6E4F               	movwf	(??_powf+4)^(0+1280),c
  4851   0047A4  C67C  F550         	movff	powf@n,??_powf+5
  4852   0047A8  C67D  F551         	movff	powf@n+1,??_powf+6
  4853   0047AC  C67E  F552         	movff	powf@n+2,??_powf+7
  4854   0047B0  C67F  F553         	movff	powf@n+3,??_powf+8
  4855   0047B4                     u3805:
  4856   0047B4  664F               	tstfsz	(??_powf+4)^(0+1280),c
  4857   0047B6  EFDF  F023         	goto	u3806
  4858   0047BA  EFE7  F023         	goto	u3807
  4859   0047BE                     u3806:
  4860   0047BE  3453               	rlcf	(??_powf+8)^(0+1280),w,c
  4861   0047C0  3253               	rrcf	(??_powf+8)^(0+1280),f,c
  4862   0047C2  3252               	rrcf	(??_powf+7)^(0+1280),f,c
  4863   0047C4  3251               	rrcf	(??_powf+6)^(0+1280),f,c
  4864   0047C6  3250               	rrcf	(??_powf+5)^(0+1280),f,c
  4865   0047C8  2E4F               	decfsz	(??_powf+4)^(0+1280),f,c
  4866   0047CA  EFDA  F023         	goto	u3805
  4867   0047CE                     u3807:
  4868   0047CE  5050               	movf	(??_powf+5)^(0+1280),w,c
  4869   0047D0  244B               	addwf	??_powf^(0+1280),w,c
  4870   0047D2  0106               	movlb	6	; () banked
  4871   0047D4  6FA0               	movwf	powf@k& (0+255),b
  4872   0047D6  0E00               	movlw	0
  4873   0047D8  204C               	addwfc	(??_powf+1)^(0+1280),w,c
  4874   0047DA  6FA1               	movwf	(powf@k+1)& (0+255),b
  4875   0047DC  0E00               	movlw	0
  4876   0047DE  204D               	addwfc	(??_powf+2)^(0+1280),w,c
  4877   0047E0  6FA2               	movwf	(powf@k+2)& (0+255),b
  4878   0047E2  0E00               	movlw	0
  4879   0047E4  204E               	addwfc	(??_powf+3)^(0+1280),w,c
  4880   0047E6  6FA3               	movwf	(powf@k+3)& (0+255),b
  4881   0047E8                     
  4882                           ; BSR set to: 6
  4883   0047E8  C6A0  F54B         	movff	powf@k,??_powf
  4884   0047EC  0EFF               	movlw	255
  4885   0047EE  6E4C               	movwf	(??_powf+1)^(0+1280),c
  4886   0047F0  0EFF               	movlw	255
  4887   0047F2  6E4D               	movwf	(??_powf+2)^(0+1280),c
  4888   0047F4  0E7F               	movlw	127
  4889   0047F6  6E4E               	movwf	(??_powf+3)^(0+1280),c
  4890   0047F8  0E00               	movlw	0
  4891   0047FA  6E4F               	movwf	(??_powf+4)^(0+1280),c
  4892   0047FC                     u3815:
  4893   0047FC  664B               	tstfsz	??_powf^(0+1280),c
  4894   0047FE  EF03  F024         	goto	u3816
  4895   004802  EF0B  F024         	goto	u3817
  4896   004806                     u3816:
  4897   004806  344F               	rlcf	(??_powf+4)^(0+1280),w,c
  4898   004808  324F               	rrcf	(??_powf+4)^(0+1280),f,c
  4899   00480A  324E               	rrcf	(??_powf+3)^(0+1280),f,c
  4900   00480C  324D               	rrcf	(??_powf+2)^(0+1280),f,c
  4901   00480E  324C               	rrcf	(??_powf+1)^(0+1280),f,c
  4902   004810  2E4B               	decfsz	??_powf^(0+1280),f,c
  4903   004812  EFFE  F023         	goto	u3815
  4904   004816                     u3817:
  4905   004816  1C4C               	comf	(??_powf+1)^(0+1280),w,c
  4906   004818  6E50               	movwf	(??_powf+5)^(0+1280),c
  4907   00481A  1C4D               	comf	(??_powf+2)^(0+1280),w,c
  4908   00481C  6E51               	movwf	(??_powf+6)^(0+1280),c
  4909   00481E  1C4E               	comf	(??_powf+3)^(0+1280),w,c
  4910   004820  6E52               	movwf	(??_powf+7)^(0+1280),c
  4911   004822  1C4F               	comf	(??_powf+4)^(0+1280),w,c
  4912   004824  6E53               	movwf	(??_powf+8)^(0+1280),c
  4913   004826  0106               	movlb	6	; () banked
  4914   004828  517C               	movf	powf@n& (0+255),w,b
  4915   00482A  1450               	andwf	(??_powf+5)^(0+1280),w,c
  4916   00482C  6FB8               	movwf	powf@__xc8_float_word& (0+255),b
  4917   00482E  517D               	movf	(powf@n+1)& (0+255),w,b
  4918   004830  1451               	andwf	(??_powf+6)^(0+1280),w,c
  4919   004832  6FB9               	movwf	(powf@__xc8_float_word+1)& (0+255),b
  4920   004834  517E               	movf	(powf@n+2)& (0+255),w,b
  4921   004836  1452               	andwf	(??_powf+7)^(0+1280),w,c
  4922   004838  6FBA               	movwf	(powf@__xc8_float_word+2)& (0+255),b
  4923   00483A  517F               	movf	(powf@n+3)& (0+255),w,b
  4924   00483C  1453               	andwf	(??_powf+8)^(0+1280),w,c
  4925   00483E  6FBB               	movwf	(powf@__xc8_float_word+3)& (0+255),b
  4926   004840                     
  4927                           ; BSR set to: 6
  4928   004840  C6B8  F6B0         	movff	powf@__xc8_float_word,powf@t
  4929   004844  C6B9  F6B1         	movff	powf@__xc8_float_word+1,powf@t+1
  4930   004848  C6BA  F6B2         	movff	powf@__xc8_float_word+2,powf@t+2
  4931   00484C  C6BB  F6B3         	movff	powf@__xc8_float_word+3,powf@t+3
  4932   004850                     
  4933                           ; BSR set to: 6
  4934   004850  51A0               	movf	powf@k& (0+255),w,b
  4935   004852  0817               	sublw	23
  4936   004854  6E4B               	movwf	??_powf^(0+1280),c
  4937   004856  0EFF               	movlw	255
  4938   004858  157C               	andwf	powf@n& (0+255),w,b
  4939   00485A  6E4C               	movwf	(??_powf+1)^(0+1280),c
  4940   00485C  0EFF               	movlw	255
  4941   00485E  157D               	andwf	(powf@n+1)& (0+255),w,b
  4942   004860  6E4D               	movwf	(??_powf+2)^(0+1280),c
  4943   004862  0E7F               	movlw	127
  4944   004864  157E               	andwf	(powf@n+2)& (0+255),w,b
  4945   004866  6E4E               	movwf	(??_powf+3)^(0+1280),c
  4946   004868  0E00               	movlw	0
  4947   00486A  157F               	andwf	(powf@n+3)& (0+255),w,b
  4948   00486C  6E4F               	movwf	(??_powf+4)^(0+1280),c
  4949   00486E  0E00               	movlw	0
  4950   004870  104C               	iorwf	(??_powf+1)^(0+1280),w,c
  4951   004872  6E50               	movwf	(??_powf+5)^(0+1280),c
  4952   004874  0E00               	movlw	0
  4953   004876  104D               	iorwf	(??_powf+2)^(0+1280),w,c
  4954   004878  6E51               	movwf	(??_powf+6)^(0+1280),c
  4955   00487A  0E80               	movlw	128
  4956   00487C  104E               	iorwf	(??_powf+3)^(0+1280),w,c
  4957   00487E  6E52               	movwf	(??_powf+7)^(0+1280),c
  4958   004880  0E00               	movlw	0
  4959   004882  104F               	iorwf	(??_powf+4)^(0+1280),w,c
  4960   004884  6E53               	movwf	(??_powf+8)^(0+1280),c
  4961   004886                     u3825:
  4962   004886  664B               	tstfsz	??_powf^(0+1280),c
  4963   004888  EF48  F024         	goto	u3826
  4964   00488C  EF50  F024         	goto	u3827
  4965   004890                     u3826:
  4966   004890  3453               	rlcf	(??_powf+8)^(0+1280),w,c
  4967   004892  3253               	rrcf	(??_powf+8)^(0+1280),f,c
  4968   004894  3252               	rrcf	(??_powf+7)^(0+1280),f,c
  4969   004896  3251               	rrcf	(??_powf+6)^(0+1280),f,c
  4970   004898  3250               	rrcf	(??_powf+5)^(0+1280),f,c
  4971   00489A  2E4B               	decfsz	??_powf^(0+1280),f,c
  4972   00489C  EF43  F024         	goto	u3825
  4973   0048A0                     u3827:
  4974   0048A0  C550  F67C         	movff	??_powf+5,powf@n
  4975   0048A4  C551  F67D         	movff	??_powf+6,powf@n+1
  4976   0048A8  C552  F67E         	movff	??_powf+7,powf@n+2
  4977   0048AC  C553  F67F         	movff	??_powf+8,powf@n+3
  4978   0048B0  0106               	movlb	6	; () banked
  4979   0048B2  BFAF               	btfsc	(powf@j+3)& (0+255),7,b
  4980   0048B4  EF60  F024         	goto	u3830
  4981   0048B8  EF5E  F024         	goto	u3831
  4982   0048BC                     u3831:
  4983   0048BC  EF68  F024         	goto	l3973
  4984   0048C0                     u3830:
  4985   0048C0                     
  4986                           ; BSR set to: 6
  4987   0048C0  1F7F               	comf	(powf@n+3)& (0+255),f,b
  4988   0048C2  1F7E               	comf	(powf@n+2)& (0+255),f,b
  4989   0048C4  1F7D               	comf	(powf@n+1)& (0+255),f,b
  4990   0048C6  6D7C               	negf	powf@n& (0+255),b
  4991   0048C8  0E00               	movlw	0
  4992   0048CA  237D               	addwfc	(powf@n+1)& (0+255),f,b
  4993   0048CC  237E               	addwfc	(powf@n+2)& (0+255),f,b
  4994   0048CE  237F               	addwfc	(powf@n+3)& (0+255),f,b
  4995   0048D0                     l3973:
  4996                           
  4997                           ; BSR set to: 6
  4998   0048D0  C69C  F52A         	movff	powf@p_h,___flsub@b
  4999   0048D4  C69D  F52B         	movff	powf@p_h+1,___flsub@b+1
  5000   0048D8  C69E  F52C         	movff	powf@p_h+2,___flsub@b+2
  5001   0048DC  C69F  F52D         	movff	powf@p_h+3,___flsub@b+3
  5002   0048E0  C6B0  F52E         	movff	powf@t,___flsub@a
  5003   0048E4  C6B1  F52F         	movff	powf@t+1,___flsub@a+1
  5004   0048E8  C6B2  F530         	movff	powf@t+2,___flsub@a+2
  5005   0048EC  C6B3  F531         	movff	powf@t+3,___flsub@a+3
  5006   0048F0  EC15  F035         	call	___flsub	;wreg free
  5007   0048F4  C52A  F69C         	movff	?___flsub,powf@p_h
  5008   0048F8  C52B  F69D         	movff	?___flsub+1,powf@p_h+1
  5009   0048FC  C52C  F69E         	movff	?___flsub+2,powf@p_h+2
  5010   004900  C52D  F69F         	movff	?___flsub+3,powf@p_h+3
  5011   004904                     l3975:
  5012   004904  C664  F501         	movff	powf@p_l,___fladd@b
  5013   004908  C665  F502         	movff	powf@p_l+1,___fladd@b+1
  5014   00490C  C666  F503         	movff	powf@p_l+2,___fladd@b+2
  5015   004910  C667  F504         	movff	powf@p_l+3,___fladd@b+3
  5016   004914  C69C  F505         	movff	powf@p_h,___fladd@a
  5017   004918  C69D  F506         	movff	powf@p_h+1,___fladd@a+1
  5018   00491C  C69E  F507         	movff	powf@p_h+2,___fladd@a+2
  5019   004920  C69F  F508         	movff	powf@p_h+3,___fladd@a+3
  5020   004924  EC3C  F02A         	call	___fladd	;wreg free
  5021   004928  C501  F6B0         	movff	?___fladd,powf@t
  5022   00492C  C502  F6B1         	movff	?___fladd+1,powf@t+1
  5023   004930  C503  F6B2         	movff	?___fladd+2,powf@t+2
  5024   004934  C504  F6B3         	movff	?___fladd+3,powf@t+3
  5025   004938  C6B0  F6B8         	movff	powf@t,powf@__xc8_float_word
  5026   00493C  C6B1  F6B9         	movff	powf@t+1,powf@__xc8_float_word+1
  5027   004940  C6B2  F6BA         	movff	powf@t+2,powf@__xc8_float_word+2
  5028   004944  C6B3  F6BB         	movff	powf@t+3,powf@__xc8_float_word+3
  5029   004948  C6B8  F690         	movff	powf@__xc8_float_word,powf@is
  5030   00494C  C6B9  F691         	movff	powf@__xc8_float_word+1,powf@is+1
  5031   004950  C6BA  F692         	movff	powf@__xc8_float_word+2,powf@is+2
  5032   004954  C6BB  F693         	movff	powf@__xc8_float_word+3,powf@is+3
  5033   004958  0E00               	movlw	0
  5034   00495A  0106               	movlb	6	; () banked
  5035   00495C  1590               	andwf	powf@is& (0+255),w,b
  5036   00495E  6FB8               	movwf	powf@__xc8_float_word& (0+255),b
  5037   004960  0E80               	movlw	128
  5038   004962  1591               	andwf	(powf@is+1)& (0+255),w,b
  5039   004964  6FB9               	movwf	(powf@__xc8_float_word+1)& (0+255),b
  5040   004966  0EFF               	movlw	255
  5041   004968  1592               	andwf	(powf@is+2)& (0+255),w,b
  5042   00496A  6FBA               	movwf	(powf@__xc8_float_word+2)& (0+255),b
  5043   00496C  0EFF               	movlw	255
  5044   00496E  1593               	andwf	(powf@is+3)& (0+255),w,b
  5045   004970  6FBB               	movwf	(powf@__xc8_float_word+3)& (0+255),b
  5046   004972                     
  5047                           ; BSR set to: 6
  5048   004972  C6B8  F6B0         	movff	powf@__xc8_float_word,powf@t
  5049   004976  C6B9  F6B1         	movff	powf@__xc8_float_word+1,powf@t+1
  5050   00497A  C6BA  F6B2         	movff	powf@__xc8_float_word+2,powf@t+2
  5051   00497E  C6BB  F6B3         	movff	powf@__xc8_float_word+3,powf@t+3
  5052   004982                     
  5053                           ; BSR set to: 6
  5054   004982  C6B0  F511         	movff	powf@t,___flmul@b
  5055   004986  C6B1  F512         	movff	powf@t+1,___flmul@b+1
  5056   00498A  C6B2  F513         	movff	powf@t+2,___flmul@b+2
  5057   00498E  C6B3  F514         	movff	powf@t+3,___flmul@b+3
  5058   004992  0E00               	movlw	0
  5059   004994  6E15               	movwf	___flmul@a^(0+1280),c
  5060   004996  0E72               	movlw	114
  5061   004998  6E16               	movwf	(___flmul@a+1)^(0+1280),c
  5062   00499A  0E31               	movlw	49
  5063   00499C  6E17               	movwf	(___flmul@a+2)^(0+1280),c
  5064   00499E  0E3F               	movlw	63
  5065   0049A0  6E18               	movwf	(___flmul@a+3)^(0+1280),c
  5066   0049A2  EC9C  F02C         	call	___flmul	;wreg free
  5067   0049A6  C511  F674         	movff	?___flmul,powf@u
  5068   0049AA  C512  F675         	movff	?___flmul+1,powf@u+1
  5069   0049AE  C513  F676         	movff	?___flmul+2,powf@u+2
  5070   0049B2  C514  F677         	movff	?___flmul+3,powf@u+3
  5071   0049B6  C69C  F52E         	movff	powf@p_h,___flsub@a
  5072   0049BA  C69D  F52F         	movff	powf@p_h+1,___flsub@a+1
  5073   0049BE  C69E  F530         	movff	powf@p_h+2,___flsub@a+2
  5074   0049C2  C69F  F531         	movff	powf@p_h+3,___flsub@a+3
  5075   0049C6  C6B0  F52A         	movff	powf@t,___flsub@b
  5076   0049CA  C6B1  F52B         	movff	powf@t+1,___flsub@b+1
  5077   0049CE  C6B2  F52C         	movff	powf@t+2,___flsub@b+2
  5078   0049D2  C6B3  F52D         	movff	powf@t+3,___flsub@b+3
  5079   0049D6  EC15  F035         	call	___flsub	;wreg free
  5080   0049DA  C52A  F694         	movff	?___flsub,_powf$1542
  5081   0049DE  C52B  F695         	movff	?___flsub+1,_powf$1542+1
  5082   0049E2  C52C  F696         	movff	?___flsub+2,_powf$1542+2
  5083   0049E6  C52D  F697         	movff	?___flsub+3,_powf$1542+3
  5084   0049EA  0E18               	movlw	24
  5085   0049EC  6E15               	movwf	___flmul@a^(0+1280),c
  5086   0049EE  0E72               	movlw	114
  5087   0049F0  6E16               	movwf	(___flmul@a+1)^(0+1280),c
  5088   0049F2  0E31               	movlw	49
  5089   0049F4  6E17               	movwf	(___flmul@a+2)^(0+1280),c
  5090   0049F6  0E3F               	movlw	63
  5091   0049F8  6E18               	movwf	(___flmul@a+3)^(0+1280),c
  5092   0049FA  C694  F52E         	movff	_powf$1542,___flsub@a
  5093   0049FE  C695  F52F         	movff	_powf$1542+1,___flsub@a+1
  5094   004A02  C696  F530         	movff	_powf$1542+2,___flsub@a+2
  5095   004A06  C697  F531         	movff	_powf$1542+3,___flsub@a+3
  5096   004A0A  C664  F52A         	movff	powf@p_l,___flsub@b
  5097   004A0E  C665  F52B         	movff	powf@p_l+1,___flsub@b+1
  5098   004A12  C666  F52C         	movff	powf@p_l+2,___flsub@b+2
  5099   004A16  C667  F52D         	movff	powf@p_l+3,___flsub@b+3
  5100   004A1A  EC15  F035         	call	___flsub	;wreg free
  5101   004A1E  C52A  F511         	movff	?___flsub,___flmul@b
  5102   004A22  C52B  F512         	movff	?___flsub+1,___flmul@b+1
  5103   004A26  C52C  F513         	movff	?___flsub+2,___flmul@b+2
  5104   004A2A  C52D  F514         	movff	?___flsub+3,___flmul@b+3
  5105   004A2E  EC9C  F02C         	call	___flmul	;wreg free
  5106   004A32  C511  F614         	movff	?___flmul,_powf$1552
  5107   004A36  C512  F615         	movff	?___flmul+1,_powf$1552+1
  5108   004A3A  C513  F616         	movff	?___flmul+2,_powf$1552+2
  5109   004A3E  C514  F617         	movff	?___flmul+3,_powf$1552+3
  5110   004A42  C614  F501         	movff	_powf$1552,___fladd@b
  5111   004A46  C615  F502         	movff	_powf$1552+1,___fladd@b+1
  5112   004A4A  C616  F503         	movff	_powf$1552+2,___fladd@b+2
  5113   004A4E  C617  F504         	movff	_powf$1552+3,___fladd@b+3
  5114   004A52  0E8C               	movlw	140
  5115   004A54  6E15               	movwf	___flmul@a^(0+1280),c
  5116   004A56  0EBE               	movlw	190
  5117   004A58  6E16               	movwf	(___flmul@a+1)^(0+1280),c
  5118   004A5A  0EBF               	movlw	191
  5119   004A5C  6E17               	movwf	(___flmul@a+2)^(0+1280),c
  5120   004A5E  0E35               	movlw	53
  5121   004A60  6E18               	movwf	(___flmul@a+3)^(0+1280),c
  5122   004A62  C6B0  F511         	movff	powf@t,___flmul@b
  5123   004A66  C6B1  F512         	movff	powf@t+1,___flmul@b+1
  5124   004A6A  C6B2  F513         	movff	powf@t+2,___flmul@b+2
  5125   004A6E  C6B3  F514         	movff	powf@t+3,___flmul@b+3
  5126   004A72  EC9C  F02C         	call	___flmul	;wreg free
  5127   004A76  C511  F505         	movff	?___flmul,___fladd@a
  5128   004A7A  C512  F506         	movff	?___flmul+1,___fladd@a+1
  5129   004A7E  C513  F507         	movff	?___flmul+2,___fladd@a+2
  5130   004A82  C514  F508         	movff	?___flmul+3,___fladd@a+3
  5131   004A86  EC3C  F02A         	call	___fladd	;wreg free
  5132   004A8A  C501  F678         	movff	?___fladd,powf@v
  5133   004A8E  C502  F679         	movff	?___fladd+1,powf@v+1
  5134   004A92  C503  F67A         	movff	?___fladd+2,powf@v+2
  5135   004A96  C504  F67B         	movff	?___fladd+3,powf@v+3
  5136   004A9A  C674  F501         	movff	powf@u,___fladd@b
  5137   004A9E  C675  F502         	movff	powf@u+1,___fladd@b+1
  5138   004AA2  C676  F503         	movff	powf@u+2,___fladd@b+2
  5139   004AA6  C677  F504         	movff	powf@u+3,___fladd@b+3
  5140   004AAA  C678  F505         	movff	powf@v,___fladd@a
  5141   004AAE  C679  F506         	movff	powf@v+1,___fladd@a+1
  5142   004AB2  C67A  F507         	movff	powf@v+2,___fladd@a+2
  5143   004AB6  C67B  F508         	movff	powf@v+3,___fladd@a+3
  5144   004ABA  EC3C  F02A         	call	___fladd	;wreg free
  5145   004ABE  C501  F6B4         	movff	?___fladd,powf@z
  5146   004AC2  C502  F6B5         	movff	?___fladd+1,powf@z+1
  5147   004AC6  C503  F6B6         	movff	?___fladd+2,powf@z+2
  5148   004ACA  C504  F6B7         	movff	?___fladd+3,powf@z+3
  5149   004ACE  C674  F52E         	movff	powf@u,___flsub@a
  5150   004AD2  C675  F52F         	movff	powf@u+1,___flsub@a+1
  5151   004AD6  C676  F530         	movff	powf@u+2,___flsub@a+2
  5152   004ADA  C677  F531         	movff	powf@u+3,___flsub@a+3
  5153   004ADE  C6B4  F52A         	movff	powf@z,___flsub@b
  5154   004AE2  C6B5  F52B         	movff	powf@z+1,___flsub@b+1
  5155   004AE6  C6B6  F52C         	movff	powf@z+2,___flsub@b+2
  5156   004AEA  C6B7  F52D         	movff	powf@z+3,___flsub@b+3
  5157   004AEE  EC15  F035         	call	___flsub	;wreg free
  5158   004AF2  C52A  F694         	movff	?___flsub,_powf$1542
  5159   004AF6  C52B  F695         	movff	?___flsub+1,_powf$1542+1
  5160   004AFA  C52C  F696         	movff	?___flsub+2,_powf$1542+2
  5161   004AFE  C52D  F697         	movff	?___flsub+3,_powf$1542+3
  5162   004B02  C678  F52A         	movff	powf@v,___flsub@b
  5163   004B06  C679  F52B         	movff	powf@v+1,___flsub@b+1
  5164   004B0A  C67A  F52C         	movff	powf@v+2,___flsub@b+2
  5165   004B0E  C67B  F52D         	movff	powf@v+3,___flsub@b+3
  5166   004B12  C694  F52E         	movff	_powf$1542,___flsub@a
  5167   004B16  C695  F52F         	movff	_powf$1542+1,___flsub@a+1
  5168   004B1A  C696  F530         	movff	_powf$1542+2,___flsub@a+2
  5169   004B1E  C697  F531         	movff	_powf$1542+3,___flsub@a+3
  5170   004B22  EC15  F035         	call	___flsub	;wreg free
  5171   004B26  C52A  F644         	movff	?___flsub,powf@w
  5172   004B2A  C52B  F645         	movff	?___flsub+1,powf@w+1
  5173   004B2E  C52C  F646         	movff	?___flsub+2,powf@w+2
  5174   004B32  C52D  F647         	movff	?___flsub+3,powf@w+3
  5175   004B36  C6B4  F511         	movff	powf@z,___flmul@b
  5176   004B3A  C6B5  F512         	movff	powf@z+1,___flmul@b+1
  5177   004B3E  C6B6  F513         	movff	powf@z+2,___flmul@b+2
  5178   004B42  C6B7  F514         	movff	powf@z+3,___flmul@b+3
  5179   004B46  C6B4  F515         	movff	powf@z,___flmul@a
  5180   004B4A  C6B5  F516         	movff	powf@z+1,___flmul@a+1
  5181   004B4E  C6B6  F517         	movff	powf@z+2,___flmul@a+2
  5182   004B52  C6B7  F518         	movff	powf@z+3,___flmul@a+3
  5183   004B56  EC9C  F02C         	call	___flmul	;wreg free
  5184   004B5A  C511  F6B0         	movff	?___flmul,powf@t
  5185   004B5E  C512  F6B1         	movff	?___flmul+1,powf@t+1
  5186   004B62  C513  F6B2         	movff	?___flmul+2,powf@t+2
  5187   004B66  C514  F6B3         	movff	?___flmul+3,powf@t+3
  5188   004B6A  0E0E               	movlw	14
  5189   004B6C  6E05               	movwf	___fladd@a^(0+1280),c
  5190   004B6E  0EEA               	movlw	234
  5191   004B70  6E06               	movwf	(___fladd@a+1)^(0+1280),c
  5192   004B72  0EDD               	movlw	221
  5193   004B74  6E07               	movwf	(___fladd@a+2)^(0+1280),c
  5194   004B76  0EB5               	movlw	181
  5195   004B78  6E08               	movwf	(___fladd@a+3)^(0+1280),c
  5196   004B7A  0E4C               	movlw	76
  5197   004B7C  6E15               	movwf	___flmul@a^(0+1280),c
  5198   004B7E  0EBB               	movlw	187
  5199   004B80  6E16               	movwf	(___flmul@a+1)^(0+1280),c
  5200   004B82  0E31               	movlw	49
  5201   004B84  6E17               	movwf	(___flmul@a+2)^(0+1280),c
  5202   004B86  0E33               	movlw	51
  5203   004B88  6E18               	movwf	(___flmul@a+3)^(0+1280),c
  5204   004B8A  C6B0  F511         	movff	powf@t,___flmul@b
  5205   004B8E  C6B1  F512         	movff	powf@t+1,___flmul@b+1
  5206   004B92  C6B2  F513         	movff	powf@t+2,___flmul@b+2
  5207   004B96  C6B3  F514         	movff	powf@t+3,___flmul@b+3
  5208   004B9A  EC9C  F02C         	call	___flmul	;wreg free
  5209   004B9E  C511  F501         	movff	?___flmul,___fladd@b
  5210   004BA2  C512  F502         	movff	?___flmul+1,___fladd@b+1
  5211   004BA6  C513  F503         	movff	?___flmul+2,___fladd@b+2
  5212   004BAA  C514  F504         	movff	?___flmul+3,___fladd@b+3
  5213   004BAE  EC3C  F02A         	call	___fladd	;wreg free
  5214   004BB2  C501  F6A4         	movff	?___fladd,_powf$1539
  5215   004BB6  C502  F6A5         	movff	?___fladd+1,_powf$1539+1
  5216   004BBA  C503  F6A6         	movff	?___fladd+2,_powf$1539+2
  5217   004BBE  C504  F6A7         	movff	?___fladd+3,_powf$1539+3
  5218   004BC2  0E55               	movlw	85
  5219   004BC4  6E05               	movwf	___fladd@a^(0+1280),c
  5220   004BC6  0EB3               	movlw	179
  5221   004BC8  6E06               	movwf	(___fladd@a+1)^(0+1280),c
  5222   004BCA  0E8A               	movlw	138
  5223   004BCC  6E07               	movwf	(___fladd@a+2)^(0+1280),c
  5224   004BCE  0E38               	movlw	56
  5225   004BD0  6E08               	movwf	(___fladd@a+3)^(0+1280),c
  5226   004BD2  C6B0  F515         	movff	powf@t,___flmul@a
  5227   004BD6  C6B1  F516         	movff	powf@t+1,___flmul@a+1
  5228   004BDA  C6B2  F517         	movff	powf@t+2,___flmul@a+2
  5229   004BDE  C6B3  F518         	movff	powf@t+3,___flmul@a+3
  5230   004BE2  C6A4  F511         	movff	_powf$1539,___flmul@b
  5231   004BE6  C6A5  F512         	movff	_powf$1539+1,___flmul@b+1
  5232   004BEA  C6A6  F513         	movff	_powf$1539+2,___flmul@b+2
  5233   004BEE  C6A7  F514         	movff	_powf$1539+3,___flmul@b+3
  5234   004BF2  EC9C  F02C         	call	___flmul	;wreg free
  5235   004BF6  C511  F501         	movff	?___flmul,___fladd@b
  5236   004BFA  C512  F502         	movff	?___flmul+1,___fladd@b+1
  5237   004BFE  C513  F503         	movff	?___flmul+2,___fladd@b+2
  5238   004C02  C514  F504         	movff	?___flmul+3,___fladd@b+3
  5239   004C06  EC3C  F02A         	call	___fladd	;wreg free
  5240   004C0A  C501  F654         	movff	?___fladd,_powf$1540
  5241   004C0E  C502  F655         	movff	?___fladd+1,_powf$1540+1
  5242   004C12  C503  F656         	movff	?___fladd+2,_powf$1540+2
  5243   004C16  C504  F657         	movff	?___fladd+3,_powf$1540+3
  5244   004C1A  0E61               	movlw	97
  5245   004C1C  6E05               	movwf	___fladd@a^(0+1280),c
  5246   004C1E  0E0B               	movlw	11
  5247   004C20  6E06               	movwf	(___fladd@a+1)^(0+1280),c
  5248   004C22  0E36               	movlw	54
  5249   004C24  6E07               	movwf	(___fladd@a+2)^(0+1280),c
  5250   004C26  0EBB               	movlw	187
  5251   004C28  6E08               	movwf	(___fladd@a+3)^(0+1280),c
  5252   004C2A  C6B0  F515         	movff	powf@t,___flmul@a
  5253   004C2E  C6B1  F516         	movff	powf@t+1,___flmul@a+1
  5254   004C32  C6B2  F517         	movff	powf@t+2,___flmul@a+2
  5255   004C36  C6B3  F518         	movff	powf@t+3,___flmul@a+3
  5256   004C3A  C654  F511         	movff	_powf$1540,___flmul@b
  5257   004C3E  C655  F512         	movff	_powf$1540+1,___flmul@b+1
  5258   004C42  C656  F513         	movff	_powf$1540+2,___flmul@b+2
  5259   004C46  C657  F514         	movff	_powf$1540+3,___flmul@b+3
  5260   004C4A  EC9C  F02C         	call	___flmul	;wreg free
  5261   004C4E  C511  F501         	movff	?___flmul,___fladd@b
  5262   004C52  C512  F502         	movff	?___flmul+1,___fladd@b+1
  5263   004C56  C513  F503         	movff	?___flmul+2,___fladd@b+2
  5264   004C5A  C514  F504         	movff	?___flmul+3,___fladd@b+3
  5265   004C5E  EC3C  F02A         	call	___fladd	;wreg free
  5266   004C62  C501  F648         	movff	?___fladd,_powf$1541
  5267   004C66  C502  F649         	movff	?___fladd+1,_powf$1541+1
  5268   004C6A  C503  F64A         	movff	?___fladd+2,_powf$1541+2
  5269   004C6E  C504  F64B         	movff	?___fladd+3,_powf$1541+3
  5270   004C72  0EAB               	movlw	171
  5271   004C74  6E05               	movwf	___fladd@a^(0+1280),c
  5272   004C76  0EAA               	movlw	170
  5273   004C78  6E06               	movwf	(___fladd@a+1)^(0+1280),c
  5274   004C7A  0E2A               	movlw	42
  5275   004C7C  6E07               	movwf	(___fladd@a+2)^(0+1280),c
  5276   004C7E  0E3E               	movlw	62
  5277   004C80  6E08               	movwf	(___fladd@a+3)^(0+1280),c
  5278   004C82  C6B0  F515         	movff	powf@t,___flmul@a
  5279   004C86  C6B1  F516         	movff	powf@t+1,___flmul@a+1
  5280   004C8A  C6B2  F517         	movff	powf@t+2,___flmul@a+2
  5281   004C8E  C6B3  F518         	movff	powf@t+3,___flmul@a+3
  5282   004C92  C648  F511         	movff	_powf$1541,___flmul@b
  5283   004C96  C649  F512         	movff	_powf$1541+1,___flmul@b+1
  5284   004C9A  C64A  F513         	movff	_powf$1541+2,___flmul@b+2
  5285   004C9E  C64B  F514         	movff	_powf$1541+3,___flmul@b+3
  5286   004CA2  EC9C  F02C         	call	___flmul	;wreg free
  5287   004CA6  C511  F501         	movff	?___flmul,___fladd@b
  5288   004CAA  C512  F502         	movff	?___flmul+1,___fladd@b+1
  5289   004CAE  C513  F503         	movff	?___flmul+2,___fladd@b+2
  5290   004CB2  C514  F504         	movff	?___flmul+3,___fladd@b+3
  5291   004CB6  EC3C  F02A         	call	___fladd	;wreg free
  5292   004CBA  C501  F638         	movff	?___fladd,_powf$1543
  5293   004CBE  C502  F639         	movff	?___fladd+1,_powf$1543+1
  5294   004CC2  C503  F63A         	movff	?___fladd+2,_powf$1543+2
  5295   004CC6  C504  F63B         	movff	?___fladd+3,_powf$1543+3
  5296   004CCA  C6B4  F52A         	movff	powf@z,___flsub@b
  5297   004CCE  C6B5  F52B         	movff	powf@z+1,___flsub@b+1
  5298   004CD2  C6B6  F52C         	movff	powf@z+2,___flsub@b+2
  5299   004CD6  C6B7  F52D         	movff	powf@z+3,___flsub@b+3
  5300   004CDA  C6B0  F515         	movff	powf@t,___flmul@a
  5301   004CDE  C6B1  F516         	movff	powf@t+1,___flmul@a+1
  5302   004CE2  C6B2  F517         	movff	powf@t+2,___flmul@a+2
  5303   004CE6  C6B3  F518         	movff	powf@t+3,___flmul@a+3
  5304   004CEA  C638  F511         	movff	_powf$1543,___flmul@b
  5305   004CEE  C639  F512         	movff	_powf$1543+1,___flmul@b+1
  5306   004CF2  C63A  F513         	movff	_powf$1543+2,___flmul@b+2
  5307   004CF6  C63B  F514         	movff	_powf$1543+3,___flmul@b+3
  5308   004CFA  EC9C  F02C         	call	___flmul	;wreg free
  5309   004CFE  C511  F52E         	movff	?___flmul,___flsub@a
  5310   004D02  C512  F52F         	movff	?___flmul+1,___flsub@a+1
  5311   004D06  C513  F530         	movff	?___flmul+2,___flsub@a+2
  5312   004D0A  C514  F531         	movff	?___flmul+3,___flsub@a+3
  5313   004D0E  EC15  F035         	call	___flsub	;wreg free
  5314   004D12  C52A  F680         	movff	?___flsub,powf@t1
  5315   004D16  C52B  F681         	movff	?___flsub+1,powf@t1+1
  5316   004D1A  C52C  F682         	movff	?___flsub+2,powf@t1+2
  5317   004D1E  C52D  F683         	movff	?___flsub+3,powf@t1+3
  5318   004D22  0E00               	movlw	0
  5319   004D24  6E05               	movwf	___fladd@a^(0+1280),c
  5320   004D26  0E00               	movlw	0
  5321   004D28  6E06               	movwf	(___fladd@a+1)^(0+1280),c
  5322   004D2A  0E00               	movlw	0
  5323   004D2C  6E07               	movwf	(___fladd@a+2)^(0+1280),c
  5324   004D2E  0EC0               	movlw	192
  5325   004D30  6E08               	movwf	(___fladd@a+3)^(0+1280),c
  5326   004D32  C680  F501         	movff	powf@t1,___fladd@b
  5327   004D36  C681  F502         	movff	powf@t1+1,___fladd@b+1
  5328   004D3A  C682  F503         	movff	powf@t1+2,___fladd@b+2
  5329   004D3E  C683  F504         	movff	powf@t1+3,___fladd@b+3
  5330   004D42  EC3C  F02A         	call	___fladd	;wreg free
  5331   004D46  C501  F536         	movff	?___fladd,___fldiv@a
  5332   004D4A  C502  F537         	movff	?___fladd+1,___fldiv@a+1
  5333   004D4E  C503  F538         	movff	?___fladd+2,___fldiv@a+2
  5334   004D52  C504  F539         	movff	?___fladd+3,___fldiv@a+3
  5335   004D56  C680  F515         	movff	powf@t1,___flmul@a
  5336   004D5A  C681  F516         	movff	powf@t1+1,___flmul@a+1
  5337   004D5E  C682  F517         	movff	powf@t1+2,___flmul@a+2
  5338   004D62  C683  F518         	movff	powf@t1+3,___flmul@a+3
  5339   004D66  C6B4  F511         	movff	powf@z,___flmul@b
  5340   004D6A  C6B5  F512         	movff	powf@z+1,___flmul@b+1
  5341   004D6E  C6B6  F513         	movff	powf@z+2,___flmul@b+2
  5342   004D72  C6B7  F514         	movff	powf@z+3,___flmul@b+3
  5343   004D76  EC9C  F02C         	call	___flmul	;wreg free
  5344   004D7A  C511  F532         	movff	?___flmul,___fldiv@b
  5345   004D7E  C512  F533         	movff	?___flmul+1,___fldiv@b+1
  5346   004D82  C513  F534         	movff	?___flmul+2,___fldiv@b+2
  5347   004D86  C514  F535         	movff	?___flmul+3,___fldiv@b+3
  5348   004D8A  ECB1  F02E         	call	___fldiv	;wreg free
  5349   004D8E  C532  F63C         	movff	?___fldiv,_powf$1547
  5350   004D92  C533  F63D         	movff	?___fldiv+1,_powf$1547+1
  5351   004D96  C534  F63E         	movff	?___fldiv+2,_powf$1547+2
  5352   004D9A  C535  F63F         	movff	?___fldiv+3,_powf$1547+3
  5353   004D9E  C644  F505         	movff	powf@w,___fladd@a
  5354   004DA2  C645  F506         	movff	powf@w+1,___fladd@a+1
  5355   004DA6  C646  F507         	movff	powf@w+2,___fladd@a+2
  5356   004DAA  C647  F508         	movff	powf@w+3,___fladd@a+3
  5357   004DAE  C644  F515         	movff	powf@w,___flmul@a
  5358   004DB2  C645  F516         	movff	powf@w+1,___flmul@a+1
  5359   004DB6  C646  F517         	movff	powf@w+2,___flmul@a+2
  5360   004DBA  C647  F518         	movff	powf@w+3,___flmul@a+3
  5361   004DBE  C6B4  F511         	movff	powf@z,___flmul@b
  5362   004DC2  C6B5  F512         	movff	powf@z+1,___flmul@b+1
  5363   004DC6  C6B6  F513         	movff	powf@z+2,___flmul@b+2
  5364   004DCA  C6B7  F514         	movff	powf@z+3,___flmul@b+3
  5365   004DCE  EC9C  F02C         	call	___flmul	;wreg free
  5366   004DD2  C511  F501         	movff	?___flmul,___fladd@b
  5367   004DD6  C512  F502         	movff	?___flmul+1,___fladd@b+1
  5368   004DDA  C513  F503         	movff	?___flmul+2,___fladd@b+2
  5369   004DDE  C514  F504         	movff	?___flmul+3,___fladd@b+3
  5370   004DE2  EC3C  F02A         	call	___fladd	;wreg free
  5371   004DE6  C501  F618         	movff	?___fladd,_powf$1553
  5372   004DEA  C502  F619         	movff	?___fladd+1,_powf$1553+1
  5373   004DEE  C503  F61A         	movff	?___fladd+2,_powf$1553+2
  5374   004DF2  C504  F61B         	movff	?___fladd+3,_powf$1553+3
  5375   004DF6  C63C  F52A         	movff	_powf$1547,___flsub@b
  5376   004DFA  C63D  F52B         	movff	_powf$1547+1,___flsub@b+1
  5377   004DFE  C63E  F52C         	movff	_powf$1547+2,___flsub@b+2
  5378   004E02  C63F  F52D         	movff	_powf$1547+3,___flsub@b+3
  5379   004E06  C618  F52E         	movff	_powf$1553,___flsub@a
  5380   004E0A  C619  F52F         	movff	_powf$1553+1,___flsub@a+1
  5381   004E0E  C61A  F530         	movff	_powf$1553+2,___flsub@a+2
  5382   004E12  C61B  F531         	movff	_powf$1553+3,___flsub@a+3
  5383   004E16  EC15  F035         	call	___flsub	;wreg free
  5384   004E1A  C52A  F64C         	movff	?___flsub,powf@r
  5385   004E1E  C52B  F64D         	movff	?___flsub+1,powf@r+1
  5386   004E22  C52C  F64E         	movff	?___flsub+2,powf@r+2
  5387   004E26  C52D  F64F         	movff	?___flsub+3,powf@r+3
  5388   004E2A  C6B4  F52E         	movff	powf@z,___flsub@a
  5389   004E2E  C6B5  F52F         	movff	powf@z+1,___flsub@a+1
  5390   004E32  C6B6  F530         	movff	powf@z+2,___flsub@a+2
  5391   004E36  C6B7  F531         	movff	powf@z+3,___flsub@a+3
  5392   004E3A  C64C  F52A         	movff	powf@r,___flsub@b
  5393   004E3E  C64D  F52B         	movff	powf@r+1,___flsub@b+1
  5394   004E42  C64E  F52C         	movff	powf@r+2,___flsub@b+2
  5395   004E46  C64F  F52D         	movff	powf@r+3,___flsub@b+3
  5396   004E4A  EC15  F035         	call	___flsub	;wreg free
  5397   004E4E  C52A  F694         	movff	?___flsub,_powf$1542
  5398   004E52  C52B  F695         	movff	?___flsub+1,_powf$1542+1
  5399   004E56  C52C  F696         	movff	?___flsub+2,_powf$1542+2
  5400   004E5A  C52D  F697         	movff	?___flsub+3,_powf$1542+3
  5401   004E5E  0E00               	movlw	0
  5402   004E60  6E2A               	movwf	___flsub@b^(0+1280),c
  5403   004E62  0E00               	movlw	0
  5404   004E64  6E2B               	movwf	(___flsub@b+1)^(0+1280),c
  5405   004E66  0E80               	movlw	128
  5406   004E68  6E2C               	movwf	(___flsub@b+2)^(0+1280),c
  5407   004E6A  0E3F               	movlw	63
  5408   004E6C  6E2D               	movwf	(___flsub@b+3)^(0+1280),c
  5409   004E6E  C694  F52E         	movff	_powf$1542,___flsub@a
  5410   004E72  C695  F52F         	movff	_powf$1542+1,___flsub@a+1
  5411   004E76  C696  F530         	movff	_powf$1542+2,___flsub@a+2
  5412   004E7A  C697  F531         	movff	_powf$1542+3,___flsub@a+3
  5413   004E7E  EC15  F035         	call	___flsub	;wreg free
  5414   004E82  C52A  F6B4         	movff	?___flsub,powf@z
  5415   004E86  C52B  F6B5         	movff	?___flsub+1,powf@z+1
  5416   004E8A  C52C  F6B6         	movff	?___flsub+2,powf@z+2
  5417   004E8E  C52D  F6B7         	movff	?___flsub+3,powf@z+3
  5418   004E92  C6B4  F6B8         	movff	powf@z,powf@__xc8_float_word
  5419   004E96  C6B5  F6B9         	movff	powf@z+1,powf@__xc8_float_word+1
  5420   004E9A  C6B6  F6BA         	movff	powf@z+2,powf@__xc8_float_word+2
  5421   004E9E  C6B7  F6BB         	movff	powf@z+3,powf@__xc8_float_word+3
  5422   004EA2  C6B8  F6AC         	movff	powf@__xc8_float_word,powf@j
  5423   004EA6  C6B9  F6AD         	movff	powf@__xc8_float_word+1,powf@j+1
  5424   004EAA  C6BA  F6AE         	movff	powf@__xc8_float_word+2,powf@j+2
  5425   004EAE  C6BB  F6AF         	movff	powf@__xc8_float_word+3,powf@j+3
  5426   004EB2  C67C  F54B         	movff	powf@n,??_powf
  5427   004EB6  C67D  F54C         	movff	powf@n+1,??_powf+1
  5428   004EBA  C67E  F54D         	movff	powf@n+2,??_powf+2
  5429   004EBE  C67F  F54E         	movff	powf@n+3,??_powf+3
  5430   004EC2  0E17               	movlw	23
  5431   004EC4                     u3845:
  5432   004EC4  90D8               	bcf	status,0,c
  5433   004EC6  364B               	rlcf	??_powf^(0+1280),f,c
  5434   004EC8  364C               	rlcf	(??_powf+1)^(0+1280),f,c
  5435   004ECA  364D               	rlcf	(??_powf+2)^(0+1280),f,c
  5436   004ECC  364E               	rlcf	(??_powf+3)^(0+1280),f,c
  5437   004ECE  2EE8               	decfsz	wreg,f,c
  5438   004ED0  EF62  F027         	goto	u3845
  5439   004ED4  504B               	movf	??_powf^(0+1280),w,c
  5440   004ED6  0106               	movlb	6	; () banked
  5441   004ED8  27AC               	addwf	powf@j& (0+255),f,b
  5442   004EDA  504C               	movf	(??_powf+1)^(0+1280),w,c
  5443   004EDC  23AD               	addwfc	(powf@j+1)& (0+255),f,b
  5444   004EDE  504D               	movf	(??_powf+2)^(0+1280),w,c
  5445   004EE0  23AE               	addwfc	(powf@j+2)& (0+255),f,b
  5446   004EE2  504E               	movf	(??_powf+3)^(0+1280),w,c
  5447   004EE4  23AF               	addwfc	(powf@j+3)& (0+255),f,b
  5448   004EE6                     
  5449                           ; BSR set to: 6
  5450   004EE6  0E17               	movlw	23
  5451   004EE8  6E4B               	movwf	??_powf^(0+1280),c
  5452   004EEA  C6AC  F54C         	movff	powf@j,??_powf+1
  5453   004EEE  C6AD  F54D         	movff	powf@j+1,??_powf+2
  5454   004EF2  C6AE  F54E         	movff	powf@j+2,??_powf+3
  5455   004EF6  C6AF  F54F         	movff	powf@j+3,??_powf+4
  5456   004EFA                     u3855:
  5457   004EFA  664B               	tstfsz	??_powf^(0+1280),c
  5458   004EFC  EF82  F027         	goto	u3856
  5459   004F00  EF8A  F027         	goto	u3857
  5460   004F04                     u3856:
  5461   004F04  344F               	rlcf	(??_powf+4)^(0+1280),w,c
  5462   004F06  324F               	rrcf	(??_powf+4)^(0+1280),f,c
  5463   004F08  324E               	rrcf	(??_powf+3)^(0+1280),f,c
  5464   004F0A  324D               	rrcf	(??_powf+2)^(0+1280),f,c
  5465   004F0C  324C               	rrcf	(??_powf+1)^(0+1280),f,c
  5466   004F0E  2E4B               	decfsz	??_powf^(0+1280),f,c
  5467   004F10  EF7D  F027         	goto	u3855
  5468   004F14                     u3857:
  5469   004F14  BE4F               	btfsc	(??_powf+4)^(0+1280),7,c
  5470   004F16  EF99  F027         	goto	u3860
  5471   004F1A  504F               	movf	(??_powf+4)^(0+1280),w,c
  5472   004F1C  104E               	iorwf	(??_powf+3)^(0+1280),w,c
  5473   004F1E  104D               	iorwf	(??_powf+2)^(0+1280),w,c
  5474   004F20  E106               	bnz	u3861
  5475   004F22  044C               	decf	(??_powf+1)^(0+1280),w,c
  5476   004F24  B0D8               	btfsc	status,0,c
  5477   004F26  EF97  F027         	goto	u3861
  5478   004F2A  EF99  F027         	goto	u3860
  5479   004F2E                     u3861:
  5480   004F2E  EFB1  F027         	goto	l1284
  5481   004F32                     u3860:
  5482   004F32  C6B4  F52A         	movff	powf@z,scalbnf@x
  5483   004F36  C6B5  F52B         	movff	powf@z+1,scalbnf@x+1
  5484   004F3A  C6B6  F52C         	movff	powf@z+2,scalbnf@x+2
  5485   004F3E  C6B7  F52D         	movff	powf@z+3,scalbnf@x+3
  5486   004F42  C67C  F52E         	movff	powf@n,scalbnf@n
  5487   004F46  C67D  F52F         	movff	powf@n+1,scalbnf@n+1
  5488   004F4A  EC7E  F030         	call	_scalbnf	;wreg free
  5489   004F4E  C52A  F6B4         	movff	?_scalbnf,powf@z
  5490   004F52  C52B  F6B5         	movff	?_scalbnf+1,powf@z+1
  5491   004F56  C52C  F6B6         	movff	?_scalbnf+2,powf@z+2
  5492   004F5A  C52D  F6B7         	movff	?_scalbnf+3,powf@z+3
  5493   004F5E  EFC1  F027         	goto	l4031
  5494   004F62                     l1284:
  5495   004F62  C6AC  F6B8         	movff	powf@j,powf@__xc8_float_word
  5496   004F66  C6AD  F6B9         	movff	powf@j+1,powf@__xc8_float_word+1
  5497   004F6A  C6AE  F6BA         	movff	powf@j+2,powf@__xc8_float_word+2
  5498   004F6E  C6AF  F6BB         	movff	powf@j+3,powf@__xc8_float_word+3
  5499   004F72  C6B8  F6B4         	movff	powf@__xc8_float_word,powf@z
  5500   004F76  C6B9  F6B5         	movff	powf@__xc8_float_word+1,powf@z+1
  5501   004F7A  C6BA  F6B6         	movff	powf@__xc8_float_word+2,powf@z+2
  5502   004F7E  C6BB  F6B7         	movff	powf@__xc8_float_word+3,powf@z+3
  5503   004F82                     l4031:
  5504   004F82  C688  F511         	movff	powf@sn,___flmul@b
  5505   004F86  C689  F512         	movff	powf@sn+1,___flmul@b+1
  5506   004F8A  C68A  F513         	movff	powf@sn+2,___flmul@b+2
  5507   004F8E  C68B  F514         	movff	powf@sn+3,___flmul@b+3
  5508   004F92  C6B4  F515         	movff	powf@z,___flmul@a
  5509   004F96  C6B5  F516         	movff	powf@z+1,___flmul@a+1
  5510   004F9A  C6B6  F517         	movff	powf@z+2,___flmul@a+2
  5511   004F9E  C6B7  F518         	movff	powf@z+3,___flmul@a+3
  5512   004FA2  EC9C  F02C         	call	___flmul	;wreg free
  5513   004FA6  C511  F584         	movff	?___flmul,?_powf
  5514   004FAA  C512  F585         	movff	?___flmul+1,?_powf+1
  5515   004FAE  C513  F586         	movff	?___flmul+2,?_powf+2
  5516   004FB2  C514  F587         	movff	?___flmul+3,?_powf+3
  5517   004FB6                     l1172:
  5518   004FB6  0012               	return		;funcret
  5519   004FB8                     __end_of_powf:
  5520                           	callstack 0
  5521                           
  5522 ;; *************** function _sqrtf *****************
  5523 ;; Defined at:
  5524 ;;		line 22 in file "C:\Program Files\Microchip\xc8\v2.40\pic\sources\c99\common\sqrtf.c"
  5525 ;; Parameters:    Size  Location     Type
  5526 ;;  x               4   61[COMRAM] float 
  5527 ;; Auto vars:     Size  Location     Type
  5528 ;;  ix              4   32[BANK5 ] long 
  5529 ;;  r               4   28[BANK5 ] unsigned long 
  5530 ;;  m               4   24[BANK5 ] long 
  5531 ;;  z               4   20[BANK5 ] float 
  5532 ;;  t               4   16[BANK5 ] long 
  5533 ;;  q               4   12[BANK5 ] long 
  5534 ;;  __xc8_float_    4    8[BANK5 ] struct .
  5535 ;;  i               4    4[BANK5 ] long 
  5536 ;;  s               4    0[BANK5 ] long 
  5537 ;;  sign            4    0        long 
  5538 ;; Return value:  Size  Location     Type
  5539 ;;                  4   61[COMRAM] float 
  5540 ;; Registers used:
  5541 ;;		wreg, status,2, status,0, prodl, prodh, cstack
  5542 ;; Tracked objects:
  5543 ;;		On entry : 0/0
  5544 ;;		On exit  : 0/0
  5545 ;;		Unchanged: 0/0
  5546 ;; Data sizes:     COMRAM   BANK5   BANK6   BANK7   BANK8   BANK9  BANK10  BANK11  BANK12  BANK13  BANK14  BANK15  BANK1
      +6  BANK17  BANK18  BANK19  BANK20  BANK21  BANK22  BANK23  BANK24  BANK25  BANK26  BANK27  BANK28  BANK29  BANK30  BANK3
      +1  BANK32  BANK33  BANK34  BANK35  BANK36
  5547 ;;      Params:         4       0       0       0       0       0       0       0       0       0       0       0       
      +0       0       0       0       0       0       0       0       0       0       0       0       0       0       0       
      +0       0       0       0       0       0
  5548 ;;      Locals:         0      36       0       0       0       0       0       0       0       0       0       0       
      +0       0       0       0       0       0       0       0       0       0       0       0       0       0       0       
      +0       0       0       0       0       0
  5549 ;;      Temps:          5       0       0       0       0       0       0       0       0       0       0       0       
      +0       0       0       0       0       0       0       0       0       0       0       0       0       0       0       
      +0       0       0       0       0       0
  5550 ;;      Totals:         9      36       0       0       0       0       0       0       0       0       0       0       
      +0       0       0       0       0       0       0       0       0       0       0       0       0       0       0       
      +0       0       0       0       0       0
  5551 ;;Total ram usage:       45 bytes
  5552 ;; Hardware stack levels used: 1
  5553 ;; Hardware stack levels required when called: 3
  5554 ;; This function calls:
  5555 ;;		___fladd
  5556 ;;		___flge
  5557 ;;		___flmul
  5558 ;;		_nanf
  5559 ;; This function is called by:
  5560 ;;		_powf
  5561 ;; This function uses a non-reentrant model
  5562 ;;
  5563                           
  5564                           	psect	text7
  5565   004FB8                     __ptext7:
  5566                           	callstack 0
  5567   004FB8                     _sqrtf:
  5568                           	callstack 122
  5569   004FB8  C53E  F568         	movff	sqrtf@x,sqrtf@__xc8_float_word
  5570   004FBC  C53F  F569         	movff	sqrtf@x+1,sqrtf@__xc8_float_word+1
  5571   004FC0  C540  F56A         	movff	sqrtf@x+2,sqrtf@__xc8_float_word+2
  5572   004FC4  C541  F56B         	movff	sqrtf@x+3,sqrtf@__xc8_float_word+3
  5573   004FC8  C568  F580         	movff	sqrtf@__xc8_float_word,sqrtf@ix
  5574   004FCC  C569  F581         	movff	sqrtf@__xc8_float_word+1,sqrtf@ix+1
  5575   004FD0  C56A  F582         	movff	sqrtf@__xc8_float_word+2,sqrtf@ix+2
  5576   004FD4  C56B  F583         	movff	sqrtf@__xc8_float_word+3,sqrtf@ix+3
  5577   004FD8  0E00               	movlw	0
  5578   004FDA  0105               	movlb	5	; () banked
  5579   004FDC  1580               	andwf	sqrtf@ix& (0+255),w,b
  5580   004FDE  6E42               	movwf	??_sqrtf^(0+1280),c
  5581   004FE0  0E00               	movlw	0
  5582   004FE2  1581               	andwf	(sqrtf@ix+1)& (0+255),w,b
  5583   004FE4  6E43               	movwf	(??_sqrtf+1)^(0+1280),c
  5584   004FE6  0E80               	movlw	128
  5585   004FE8  1582               	andwf	(sqrtf@ix+2)& (0+255),w,b
  5586   004FEA  6E44               	movwf	(??_sqrtf+2)^(0+1280),c
  5587   004FEC  0E7F               	movlw	127
  5588   004FEE  1583               	andwf	(sqrtf@ix+3)& (0+255),w,b
  5589   004FF0  6E45               	movwf	(??_sqrtf+3)^(0+1280),c
  5590   004FF2  0E80               	movlw	128
  5591   004FF4  1844               	xorwf	(??_sqrtf+2)^(0+1280),w,c
  5592   004FF6  E109               	bnz	u3061
  5593   004FF8  0E7F               	movlw	127
  5594   004FFA  1845               	xorwf	(??_sqrtf+3)^(0+1280),w,c
  5595   004FFC  1042               	iorwf	??_sqrtf^(0+1280),w,c
  5596   004FFE  1043               	iorwf	(??_sqrtf+1)^(0+1280),w,c
  5597   005000  A4D8               	btfss	status,2,c
  5598   005002  EF05  F028         	goto	u3061
  5599   005006  EF07  F028         	goto	u3060
  5600   00500A                     u3061:
  5601   00500A  EF35  F028         	goto	l3423
  5602   00500E                     u3060:
  5603   00500E                     
  5604                           ; BSR set to: 5
  5605   00500E  C53E  F515         	movff	sqrtf@x,___flmul@a
  5606   005012  C53F  F516         	movff	sqrtf@x+1,___flmul@a+1
  5607   005016  C540  F517         	movff	sqrtf@x+2,___flmul@a+2
  5608   00501A  C541  F518         	movff	sqrtf@x+3,___flmul@a+3
  5609   00501E  C53E  F511         	movff	sqrtf@x,___flmul@b
  5610   005022  C53F  F512         	movff	sqrtf@x+1,___flmul@b+1
  5611   005026  C540  F513         	movff	sqrtf@x+2,___flmul@b+2
  5612   00502A  C541  F514         	movff	sqrtf@x+3,___flmul@b+3
  5613   00502E  EC9C  F02C         	call	___flmul	;wreg free
  5614   005032  C511  F501         	movff	?___flmul,___fladd@b
  5615   005036  C512  F502         	movff	?___flmul+1,___fladd@b+1
  5616   00503A  C513  F503         	movff	?___flmul+2,___fladd@b+2
  5617   00503E  C514  F504         	movff	?___flmul+3,___fladd@b+3
  5618   005042  C53E  F505         	movff	sqrtf@x,___fladd@a
  5619   005046  C53F  F506         	movff	sqrtf@x+1,___fladd@a+1
  5620   00504A  C540  F507         	movff	sqrtf@x+2,___fladd@a+2
  5621   00504E  C541  F508         	movff	sqrtf@x+3,___fladd@a+3
  5622   005052  EC3C  F02A         	call	___fladd	;wreg free
  5623   005056  C501  F53E         	movff	?___fladd,?_sqrtf
  5624   00505A  C502  F53F         	movff	?___fladd+1,?_sqrtf+1
  5625   00505E  C503  F540         	movff	?___fladd+2,?_sqrtf+2
  5626   005062  C504  F541         	movff	?___fladd+3,?_sqrtf+3
  5627   005066  EF3B  F02A         	goto	l1314
  5628   00506A                     l3423:
  5629                           
  5630                           ; BSR set to: 5
  5631   00506A  BF83               	btfsc	(sqrtf@ix+3)& (0+255),7,b
  5632   00506C  EF44  F028         	goto	u3070
  5633   005070  5183               	movf	(sqrtf@ix+3)& (0+255),w,b
  5634   005072  1182               	iorwf	(sqrtf@ix+2)& (0+255),w,b
  5635   005074  1181               	iorwf	(sqrtf@ix+1)& (0+255),w,b
  5636   005076  E106               	bnz	u3071
  5637   005078  0580               	decf	sqrtf@ix& (0+255),w,b
  5638   00507A  B0D8               	btfsc	status,0,c
  5639   00507C  EF42  F028         	goto	u3071
  5640   005080  EF44  F028         	goto	u3070
  5641   005084                     u3071:
  5642   005084  EF80  F028         	goto	l3437
  5643   005088                     u3070:
  5644   005088                     
  5645                           ; BSR set to: 5
  5646   005088  0EFF               	movlw	255
  5647   00508A  1580               	andwf	sqrtf@ix& (0+255),w,b
  5648   00508C  6E42               	movwf	??_sqrtf^(0+1280),c
  5649   00508E  0EFF               	movlw	255
  5650   005090  1581               	andwf	(sqrtf@ix+1)& (0+255),w,b
  5651   005092  6E43               	movwf	(??_sqrtf+1)^(0+1280),c
  5652   005094  0EFF               	movlw	255
  5653   005096  1582               	andwf	(sqrtf@ix+2)& (0+255),w,b
  5654   005098  6E44               	movwf	(??_sqrtf+2)^(0+1280),c
  5655   00509A  0E7F               	movlw	127
  5656   00509C  1583               	andwf	(sqrtf@ix+3)& (0+255),w,b
  5657   00509E  6E45               	movwf	(??_sqrtf+3)^(0+1280),c
  5658   0050A0  5042               	movf	??_sqrtf^(0+1280),w,c
  5659   0050A2  1043               	iorwf	(??_sqrtf+1)^(0+1280),w,c
  5660   0050A4  1044               	iorwf	(??_sqrtf+2)^(0+1280),w,c
  5661   0050A6  1045               	iorwf	(??_sqrtf+3)^(0+1280),w,c
  5662   0050A8  A4D8               	btfss	status,2,c
  5663   0050AA  EF59  F028         	goto	u3081
  5664   0050AE  EF5B  F028         	goto	u3080
  5665   0050B2                     u3081:
  5666   0050B2  EF65  F028         	goto	l3429
  5667   0050B6                     u3080:
  5668   0050B6                     
  5669                           ; BSR set to: 5
  5670   0050B6  C53E  F53E         	movff	sqrtf@x,?_sqrtf
  5671   0050BA  C53F  F53F         	movff	sqrtf@x+1,?_sqrtf+1
  5672   0050BE  C540  F540         	movff	sqrtf@x+2,?_sqrtf+2
  5673   0050C2  C541  F541         	movff	sqrtf@x+3,?_sqrtf+3
  5674   0050C6  EF3B  F02A         	goto	l1314
  5675   0050CA                     l3429:
  5676                           
  5677                           ; BSR set to: 5
  5678   0050CA  BF83               	btfsc	(sqrtf@ix+3)& (0+255),7,b
  5679   0050CC  EF6C  F028         	goto	u3090
  5680   0050D0  EF6A  F028         	goto	u3091
  5681   0050D4                     u3091:
  5682   0050D4  EF80  F028         	goto	l3437
  5683   0050D8                     u3090:
  5684   0050D8                     
  5685                           ; BSR set to: 5
  5686   0050D8  0E00               	movlw	0
  5687   0050DA  6E5E               	movwf	(_errno+1)^(0+1280),c
  5688   0050DC  0E21               	movlw	33
  5689   0050DE  6E5D               	movwf	_errno^(0+1280),c
  5690   0050E0                     
  5691                           ; BSR set to: 5
  5692   0050E0  0E9D               	movlw	low STR_1
  5693   0050E2  6E01               	movwf	nanf@s^(0+1280),c
  5694   0050E4  0E26               	movlw	high STR_1
  5695   0050E6  6E02               	movwf	(nanf@s+1)^(0+1280),c
  5696   0050E8  ECB7  F035         	call	_nanf	;wreg free
  5697   0050EC  C501  F53E         	movff	?_nanf,?_sqrtf
  5698   0050F0  C502  F53F         	movff	?_nanf+1,?_sqrtf+1
  5699   0050F4  C503  F540         	movff	?_nanf+2,?_sqrtf+2
  5700   0050F8  C504  F541         	movff	?_nanf+3,?_sqrtf+3
  5701   0050FC  EF3B  F02A         	goto	l1314
  5702   005100                     l3437:
  5703                           
  5704                           ; BSR set to: 5
  5705   005100  0E17               	movlw	23
  5706   005102  6E42               	movwf	??_sqrtf^(0+1280),c
  5707   005104  C580  F543         	movff	sqrtf@ix,??_sqrtf+1
  5708   005108  C581  F544         	movff	sqrtf@ix+1,??_sqrtf+2
  5709   00510C  C582  F545         	movff	sqrtf@ix+2,??_sqrtf+3
  5710   005110  C583  F546         	movff	sqrtf@ix+3,??_sqrtf+4
  5711   005114                     u3105:
  5712   005114  6642               	tstfsz	??_sqrtf^(0+1280),c
  5713   005116  EF8F  F028         	goto	u3106
  5714   00511A  EF97  F028         	goto	u3107
  5715   00511E                     u3106:
  5716   00511E  3446               	rlcf	(??_sqrtf+4)^(0+1280),w,c
  5717   005120  3246               	rrcf	(??_sqrtf+4)^(0+1280),f,c
  5718   005122  3245               	rrcf	(??_sqrtf+3)^(0+1280),f,c
  5719   005124  3244               	rrcf	(??_sqrtf+2)^(0+1280),f,c
  5720   005126  3243               	rrcf	(??_sqrtf+1)^(0+1280),f,c
  5721   005128  2E42               	decfsz	??_sqrtf^(0+1280),f,c
  5722   00512A  EF8A  F028         	goto	u3105
  5723   00512E                     u3107:
  5724   00512E  C543  F578         	movff	??_sqrtf+1,sqrtf@m
  5725   005132  C544  F579         	movff	??_sqrtf+2,sqrtf@m+1
  5726   005136  C545  F57A         	movff	??_sqrtf+3,sqrtf@m+2
  5727   00513A  C546  F57B         	movff	??_sqrtf+4,sqrtf@m+3
  5728   00513E  0105               	movlb	5	; () banked
  5729   005140  5178               	movf	sqrtf@m& (0+255),w,b
  5730   005142  1179               	iorwf	(sqrtf@m+1)& (0+255),w,b
  5731   005144  117A               	iorwf	(sqrtf@m+2)& (0+255),w,b
  5732   005146  117B               	iorwf	(sqrtf@m+3)& (0+255),w,b
  5733   005148  A4D8               	btfss	status,2,c
  5734   00514A  EFA9  F028         	goto	u3111
  5735   00514E  EFAB  F028         	goto	u3110
  5736   005152                     u3111:
  5737   005152  EFDB  F028         	goto	l1318
  5738   005156                     u3110:
  5739   005156                     
  5740                           ; BSR set to: 5
  5741   005156  0E00               	movlw	0
  5742   005158  6F64               	movwf	sqrtf@i& (0+255),b
  5743   00515A  0E00               	movlw	0
  5744   00515C  6F65               	movwf	(sqrtf@i+1)& (0+255),b
  5745   00515E  0E00               	movlw	0
  5746   005160  6F66               	movwf	(sqrtf@i+2)& (0+255),b
  5747   005162  0E00               	movlw	0
  5748   005164  6F67               	movwf	(sqrtf@i+3)& (0+255),b
  5749   005166  EFC0  F028         	goto	l3445
  5750   00516A                     l3441:
  5751                           
  5752                           ; BSR set to: 5
  5753   00516A  90D8               	bcf	status,0,c
  5754   00516C  3780               	rlcf	sqrtf@ix& (0+255),f,b
  5755   00516E  3781               	rlcf	(sqrtf@ix+1)& (0+255),f,b
  5756   005170  3782               	rlcf	(sqrtf@ix+2)& (0+255),f,b
  5757   005172  3783               	rlcf	(sqrtf@ix+3)& (0+255),f,b
  5758   005174                     
  5759                           ; BSR set to: 5
  5760   005174  0E01               	movlw	1
  5761   005176  2764               	addwf	sqrtf@i& (0+255),f,b
  5762   005178  0E00               	movlw	0
  5763   00517A  2365               	addwfc	(sqrtf@i+1)& (0+255),f,b
  5764   00517C  2366               	addwfc	(sqrtf@i+2)& (0+255),f,b
  5765   00517E  2367               	addwfc	(sqrtf@i+3)& (0+255),f,b
  5766   005180                     l3445:
  5767                           
  5768                           ; BSR set to: 5
  5769   005180  AF82               	btfss	(sqrtf@ix+2)& (0+255),7,b
  5770   005182  EFC5  F028         	goto	u3121
  5771   005186  EFC7  F028         	goto	u3120
  5772   00518A                     u3121:
  5773   00518A  EFB5  F028         	goto	l3441
  5774   00518E                     u3120:
  5775   00518E                     
  5776                           ; BSR set to: 5
  5777   00518E  0EFF               	movlw	255
  5778   005190  2564               	addwf	sqrtf@i& (0+255),w,b
  5779   005192  6E42               	movwf	??_sqrtf^(0+1280),c
  5780   005194  0EFF               	movlw	255
  5781   005196  2165               	addwfc	(sqrtf@i+1)& (0+255),w,b
  5782   005198  6E43               	movwf	(??_sqrtf+1)^(0+1280),c
  5783   00519A  0EFF               	movlw	255
  5784   00519C  2166               	addwfc	(sqrtf@i+2)& (0+255),w,b
  5785   00519E  6E44               	movwf	(??_sqrtf+2)^(0+1280),c
  5786   0051A0  0EFF               	movlw	255
  5787   0051A2  2167               	addwfc	(sqrtf@i+3)& (0+255),w,b
  5788   0051A4  6E45               	movwf	(??_sqrtf+3)^(0+1280),c
  5789   0051A6  5042               	movf	??_sqrtf^(0+1280),w,c
  5790   0051A8  5F78               	subwf	sqrtf@m& (0+255),f,b
  5791   0051AA  5043               	movf	(??_sqrtf+1)^(0+1280),w,c
  5792   0051AC  5B79               	subwfb	(sqrtf@m+1)& (0+255),f,b
  5793   0051AE  5044               	movf	(??_sqrtf+2)^(0+1280),w,c
  5794   0051B0  5B7A               	subwfb	(sqrtf@m+2)& (0+255),f,b
  5795   0051B2  5045               	movf	(??_sqrtf+3)^(0+1280),w,c
  5796   0051B4  5B7B               	subwfb	(sqrtf@m+3)& (0+255),f,b
  5797   0051B6                     l1318:
  5798                           
  5799                           ; BSR set to: 5
  5800   0051B6  0E81               	movlw	129
  5801   0051B8  2778               	addwf	sqrtf@m& (0+255),f,b
  5802   0051BA  0EFF               	movlw	255
  5803   0051BC  2379               	addwfc	(sqrtf@m+1)& (0+255),f,b
  5804   0051BE  0EFF               	movlw	255
  5805   0051C0  237A               	addwfc	(sqrtf@m+2)& (0+255),f,b
  5806   0051C2  0EFF               	movlw	255
  5807   0051C4  237B               	addwfc	(sqrtf@m+3)& (0+255),f,b
  5808   0051C6  0EFF               	movlw	255
  5809   0051C8  1580               	andwf	sqrtf@ix& (0+255),w,b
  5810   0051CA  6E42               	movwf	??_sqrtf^(0+1280),c
  5811   0051CC  0EFF               	movlw	255
  5812   0051CE  1581               	andwf	(sqrtf@ix+1)& (0+255),w,b
  5813   0051D0  6E43               	movwf	(??_sqrtf+1)^(0+1280),c
  5814   0051D2  0E7F               	movlw	127
  5815   0051D4  1582               	andwf	(sqrtf@ix+2)& (0+255),w,b
  5816   0051D6  6E44               	movwf	(??_sqrtf+2)^(0+1280),c
  5817   0051D8  0E00               	movlw	0
  5818   0051DA  1583               	andwf	(sqrtf@ix+3)& (0+255),w,b
  5819   0051DC  6E45               	movwf	(??_sqrtf+3)^(0+1280),c
  5820   0051DE  0E00               	movlw	0
  5821   0051E0  1042               	iorwf	??_sqrtf^(0+1280),w,c
  5822   0051E2  6F80               	movwf	sqrtf@ix& (0+255),b
  5823   0051E4  0E00               	movlw	0
  5824   0051E6  1043               	iorwf	(??_sqrtf+1)^(0+1280),w,c
  5825   0051E8  6F81               	movwf	(sqrtf@ix+1)& (0+255),b
  5826   0051EA  0E80               	movlw	128
  5827   0051EC  1044               	iorwf	(??_sqrtf+2)^(0+1280),w,c
  5828   0051EE  6F82               	movwf	(sqrtf@ix+2)& (0+255),b
  5829   0051F0  0E00               	movlw	0
  5830   0051F2  1045               	iorwf	(??_sqrtf+3)^(0+1280),w,c
  5831   0051F4  6F83               	movwf	(sqrtf@ix+3)& (0+255),b
  5832   0051F6                     
  5833                           ; BSR set to: 5
  5834   0051F6  A178               	btfss	sqrtf@m& (0+255),0,b
  5835   0051F8  EF00  F029         	goto	u3131
  5836   0051FC  EF02  F029         	goto	u3130
  5837   005200                     u3131:
  5838   005200  EF0A  F029         	goto	l1322
  5839   005204                     u3130:
  5840   005204                     
  5841                           ; BSR set to: 5
  5842   005204  5180               	movf	sqrtf@ix& (0+255),w,b
  5843   005206  2780               	addwf	sqrtf@ix& (0+255),f,b
  5844   005208  5181               	movf	(sqrtf@ix+1)& (0+255),w,b
  5845   00520A  2381               	addwfc	(sqrtf@ix+1)& (0+255),f,b
  5846   00520C  5182               	movf	(sqrtf@ix+2)& (0+255),w,b
  5847   00520E  2382               	addwfc	(sqrtf@ix+2)& (0+255),f,b
  5848   005210  5183               	movf	(sqrtf@ix+3)& (0+255),w,b
  5849   005212  2383               	addwfc	(sqrtf@ix+3)& (0+255),f,b
  5850   005214                     l1322:
  5851                           
  5852                           ; BSR set to: 5
  5853   005214  357B               	rlcf	(sqrtf@m+3)& (0+255),w,b
  5854   005216  337B               	rrcf	(sqrtf@m+3)& (0+255),f,b
  5855   005218  337A               	rrcf	(sqrtf@m+2)& (0+255),f,b
  5856   00521A  3379               	rrcf	(sqrtf@m+1)& (0+255),f,b
  5857   00521C  3378               	rrcf	sqrtf@m& (0+255),f,b
  5858   00521E  5180               	movf	sqrtf@ix& (0+255),w,b
  5859   005220  2780               	addwf	sqrtf@ix& (0+255),f,b
  5860   005222  5181               	movf	(sqrtf@ix+1)& (0+255),w,b
  5861   005224  2381               	addwfc	(sqrtf@ix+1)& (0+255),f,b
  5862   005226  5182               	movf	(sqrtf@ix+2)& (0+255),w,b
  5863   005228  2382               	addwfc	(sqrtf@ix+2)& (0+255),f,b
  5864   00522A  5183               	movf	(sqrtf@ix+3)& (0+255),w,b
  5865   00522C  2383               	addwfc	(sqrtf@ix+3)& (0+255),f,b
  5866   00522E                     
  5867                           ; BSR set to: 5
  5868   00522E  0E00               	movlw	0
  5869   005230  6F60               	movwf	sqrtf@s& (0+255),b
  5870   005232  0E00               	movlw	0
  5871   005234  6F61               	movwf	(sqrtf@s+1)& (0+255),b
  5872   005236  0E00               	movlw	0
  5873   005238  6F62               	movwf	(sqrtf@s+2)& (0+255),b
  5874   00523A  0E00               	movlw	0
  5875   00523C  6F63               	movwf	(sqrtf@s+3)& (0+255),b
  5876   00523E  C560  F56C         	movff	sqrtf@s,sqrtf@q
  5877   005242  C561  F56D         	movff	sqrtf@s+1,sqrtf@q+1
  5878   005246  C562  F56E         	movff	sqrtf@s+2,sqrtf@q+2
  5879   00524A  C563  F56F         	movff	sqrtf@s+3,sqrtf@q+3
  5880   00524E                     
  5881                           ; BSR set to: 5
  5882   00524E  0E00               	movlw	0
  5883   005250  6F7C               	movwf	sqrtf@r& (0+255),b
  5884   005252  0E00               	movlw	0
  5885   005254  6F7D               	movwf	(sqrtf@r+1)& (0+255),b
  5886   005256  0E00               	movlw	0
  5887   005258  6F7E               	movwf	(sqrtf@r+2)& (0+255),b
  5888   00525A  0E01               	movlw	1
  5889   00525C  6F7F               	movwf	(sqrtf@r+3)& (0+255),b
  5890   00525E  EF79  F029         	goto	l3463
  5891   005262                     l3457:
  5892                           
  5893                           ; BSR set to: 5
  5894   005262  5160               	movf	sqrtf@s& (0+255),w,b
  5895   005264  257C               	addwf	sqrtf@r& (0+255),w,b
  5896   005266  6F70               	movwf	sqrtf@t& (0+255),b
  5897   005268  5161               	movf	(sqrtf@s+1)& (0+255),w,b
  5898   00526A  217D               	addwfc	(sqrtf@r+1)& (0+255),w,b
  5899   00526C  6F71               	movwf	(sqrtf@t+1)& (0+255),b
  5900   00526E  5162               	movf	(sqrtf@s+2)& (0+255),w,b
  5901   005270  217E               	addwfc	(sqrtf@r+2)& (0+255),w,b
  5902   005272  6F72               	movwf	(sqrtf@t+2)& (0+255),b
  5903   005274  5163               	movf	(sqrtf@s+3)& (0+255),w,b
  5904   005276  217F               	addwfc	(sqrtf@r+3)& (0+255),w,b
  5905   005278  6F73               	movwf	(sqrtf@t+3)& (0+255),b
  5906   00527A  5170               	movf	sqrtf@t& (0+255),w,b
  5907   00527C  5D80               	subwf	sqrtf@ix& (0+255),w,b
  5908   00527E  5171               	movf	(sqrtf@t+1)& (0+255),w,b
  5909   005280  5981               	subwfb	(sqrtf@ix+1)& (0+255),w,b
  5910   005282  5172               	movf	(sqrtf@t+2)& (0+255),w,b
  5911   005284  5982               	subwfb	(sqrtf@ix+2)& (0+255),w,b
  5912   005286  5183               	movf	(sqrtf@ix+3)& (0+255),w,b
  5913   005288  0A80               	xorlw	128
  5914   00528A  6E42               	movwf	??_sqrtf^(0+1280),c
  5915   00528C  5173               	movf	(sqrtf@t+3)& (0+255),w,b
  5916   00528E  0A80               	xorlw	128
  5917   005290  5842               	subwfb	??_sqrtf^(0+1280),w,c
  5918   005292  A0D8               	btfss	status,0,c
  5919   005294  EF4E  F029         	goto	u3141
  5920   005298  EF50  F029         	goto	u3140
  5921   00529C                     u3141:
  5922   00529C  EF6C  F029         	goto	l1325
  5923   0052A0                     u3140:
  5924   0052A0                     
  5925                           ; BSR set to: 5
  5926   0052A0  5170               	movf	sqrtf@t& (0+255),w,b
  5927   0052A2  257C               	addwf	sqrtf@r& (0+255),w,b
  5928   0052A4  6F60               	movwf	sqrtf@s& (0+255),b
  5929   0052A6  5171               	movf	(sqrtf@t+1)& (0+255),w,b
  5930   0052A8  217D               	addwfc	(sqrtf@r+1)& (0+255),w,b
  5931   0052AA  6F61               	movwf	(sqrtf@s+1)& (0+255),b
  5932   0052AC  5172               	movf	(sqrtf@t+2)& (0+255),w,b
  5933   0052AE  217E               	addwfc	(sqrtf@r+2)& (0+255),w,b
  5934   0052B0  6F62               	movwf	(sqrtf@s+2)& (0+255),b
  5935   0052B2  5173               	movf	(sqrtf@t+3)& (0+255),w,b
  5936   0052B4  217F               	addwfc	(sqrtf@r+3)& (0+255),w,b
  5937   0052B6  6F63               	movwf	(sqrtf@s+3)& (0+255),b
  5938   0052B8  5170               	movf	sqrtf@t& (0+255),w,b
  5939   0052BA  5F80               	subwf	sqrtf@ix& (0+255),f,b
  5940   0052BC  5171               	movf	(sqrtf@t+1)& (0+255),w,b
  5941   0052BE  5B81               	subwfb	(sqrtf@ix+1)& (0+255),f,b
  5942   0052C0  5172               	movf	(sqrtf@t+2)& (0+255),w,b
  5943   0052C2  5B82               	subwfb	(sqrtf@ix+2)& (0+255),f,b
  5944   0052C4  5173               	movf	(sqrtf@t+3)& (0+255),w,b
  5945   0052C6  5B83               	subwfb	(sqrtf@ix+3)& (0+255),f,b
  5946   0052C8  517C               	movf	sqrtf@r& (0+255),w,b
  5947   0052CA  276C               	addwf	sqrtf@q& (0+255),f,b
  5948   0052CC  517D               	movf	(sqrtf@r+1)& (0+255),w,b
  5949   0052CE  236D               	addwfc	(sqrtf@q+1)& (0+255),f,b
  5950   0052D0  517E               	movf	(sqrtf@r+2)& (0+255),w,b
  5951   0052D2  236E               	addwfc	(sqrtf@q+2)& (0+255),f,b
  5952   0052D4  517F               	movf	(sqrtf@r+3)& (0+255),w,b
  5953   0052D6  236F               	addwfc	(sqrtf@q+3)& (0+255),f,b
  5954   0052D8                     l1325:
  5955                           
  5956                           ; BSR set to: 5
  5957   0052D8  5180               	movf	sqrtf@ix& (0+255),w,b
  5958   0052DA  2780               	addwf	sqrtf@ix& (0+255),f,b
  5959   0052DC  5181               	movf	(sqrtf@ix+1)& (0+255),w,b
  5960   0052DE  2381               	addwfc	(sqrtf@ix+1)& (0+255),f,b
  5961   0052E0  5182               	movf	(sqrtf@ix+2)& (0+255),w,b
  5962   0052E2  2382               	addwfc	(sqrtf@ix+2)& (0+255),f,b
  5963   0052E4  5183               	movf	(sqrtf@ix+3)& (0+255),w,b
  5964   0052E6  2383               	addwfc	(sqrtf@ix+3)& (0+255),f,b
  5965   0052E8                     
  5966                           ; BSR set to: 5
  5967   0052E8  90D8               	bcf	status,0,c
  5968   0052EA  337F               	rrcf	(sqrtf@r+3)& (0+255),f,b
  5969   0052EC  337E               	rrcf	(sqrtf@r+2)& (0+255),f,b
  5970   0052EE  337D               	rrcf	(sqrtf@r+1)& (0+255),f,b
  5971   0052F0  337C               	rrcf	sqrtf@r& (0+255),f,b
  5972   0052F2                     l3463:
  5973                           
  5974                           ; BSR set to: 5
  5975   0052F2  517C               	movf	sqrtf@r& (0+255),w,b
  5976   0052F4  117D               	iorwf	(sqrtf@r+1)& (0+255),w,b
  5977   0052F6  117E               	iorwf	(sqrtf@r+2)& (0+255),w,b
  5978   0052F8  117F               	iorwf	(sqrtf@r+3)& (0+255),w,b
  5979   0052FA  A4D8               	btfss	status,2,c
  5980   0052FC  EF82  F029         	goto	u3151
  5981   005300  EF84  F029         	goto	u3150
  5982   005304                     u3151:
  5983   005304  EF31  F029         	goto	l3457
  5984   005308                     u3150:
  5985   005308                     
  5986                           ; BSR set to: 5
  5987   005308  5180               	movf	sqrtf@ix& (0+255),w,b
  5988   00530A  1181               	iorwf	(sqrtf@ix+1)& (0+255),w,b
  5989   00530C  1182               	iorwf	(sqrtf@ix+2)& (0+255),w,b
  5990   00530E  1183               	iorwf	(sqrtf@ix+3)& (0+255),w,b
  5991   005310  B4D8               	btfsc	status,2,c
  5992   005312  EF8D  F029         	goto	u3161
  5993   005316  EF8F  F029         	goto	u3160
  5994   00531A                     u3161:
  5995   00531A  EFF0  F029         	goto	l1327
  5996   00531E                     u3160:
  5997   00531E                     
  5998                           ; BSR set to: 5
  5999   00531E  0E00               	movlw	0
  6000   005320  6F74               	movwf	sqrtf@z& (0+255),b
  6001   005322  0E00               	movlw	0
  6002   005324  6F75               	movwf	(sqrtf@z+1)& (0+255),b
  6003   005326  0E80               	movlw	128
  6004   005328  6F76               	movwf	(sqrtf@z+2)& (0+255),b
  6005   00532A  0E3F               	movlw	63
  6006   00532C  6F77               	movwf	(sqrtf@z+3)& (0+255),b
  6007   00532E                     
  6008                           ; BSR set to: 5
  6009   00532E  C574  F532         	movff	sqrtf@z,___flge@ff1
  6010   005332  C575  F533         	movff	sqrtf@z+1,___flge@ff1+1
  6011   005336  C576  F534         	movff	sqrtf@z+2,___flge@ff1+2
  6012   00533A  C577  F535         	movff	sqrtf@z+3,___flge@ff1+3
  6013   00533E  0E00               	movlw	0
  6014   005340  6E36               	movwf	___flge@ff2^(0+1280),c
  6015   005342  0E00               	movlw	0
  6016   005344  6E37               	movwf	(___flge@ff2+1)^(0+1280),c
  6017   005346  0E80               	movlw	128
  6018   005348  6E38               	movwf	(___flge@ff2+2)^(0+1280),c
  6019   00534A  0E3F               	movlw	63
  6020   00534C  6E39               	movwf	(___flge@ff2+3)^(0+1280),c
  6021   00534E  EC85  F033         	call	___flge	;wreg free
  6022   005352  A0D8               	btfss	status,0,c
  6023   005354  EFAE  F029         	goto	u3171
  6024   005358  EFB0  F029         	goto	u3170
  6025   00535C                     u3171:
  6026   00535C  EFF0  F029         	goto	l1327
  6027   005360                     u3170:
  6028   005360  0E00               	movlw	0
  6029   005362  0105               	movlb	5	; () banked
  6030   005364  6F74               	movwf	sqrtf@z& (0+255),b
  6031   005366  0E00               	movlw	0
  6032   005368  6F75               	movwf	(sqrtf@z+1)& (0+255),b
  6033   00536A  0E80               	movlw	128
  6034   00536C  6F76               	movwf	(sqrtf@z+2)& (0+255),b
  6035   00536E  0E3F               	movlw	63
  6036   005370  6F77               	movwf	(sqrtf@z+3)& (0+255),b
  6037   005372                     
  6038                           ; BSR set to: 5
  6039   005372  0E00               	movlw	0
  6040   005374  6E32               	movwf	___flge@ff1^(0+1280),c
  6041   005376  0E00               	movlw	0
  6042   005378  6E33               	movwf	(___flge@ff1+1)^(0+1280),c
  6043   00537A  0E80               	movlw	128
  6044   00537C  6E34               	movwf	(___flge@ff1+2)^(0+1280),c
  6045   00537E  0E3F               	movlw	63
  6046   005380  6E35               	movwf	(___flge@ff1+3)^(0+1280),c
  6047   005382  C574  F536         	movff	sqrtf@z,___flge@ff2
  6048   005386  C575  F537         	movff	sqrtf@z+1,___flge@ff2+1
  6049   00538A  C576  F538         	movff	sqrtf@z+2,___flge@ff2+2
  6050   00538E  C577  F539         	movff	sqrtf@z+3,___flge@ff2+3
  6051   005392  EC85  F033         	call	___flge	;wreg free
  6052   005396  B0D8               	btfsc	status,0,c
  6053   005398  EFD0  F029         	goto	u3181
  6054   00539C  EFD2  F029         	goto	u3180
  6055   0053A0                     u3181:
  6056   0053A0  EFDB  F029         	goto	l3477
  6057   0053A4                     u3180:
  6058   0053A4  0E02               	movlw	2
  6059   0053A6  0105               	movlb	5	; () banked
  6060   0053A8  276C               	addwf	sqrtf@q& (0+255),f,b
  6061   0053AA  0E00               	movlw	0
  6062   0053AC  236D               	addwfc	(sqrtf@q+1)& (0+255),f,b
  6063   0053AE  236E               	addwfc	(sqrtf@q+2)& (0+255),f,b
  6064   0053B0  236F               	addwfc	(sqrtf@q+3)& (0+255),f,b
  6065   0053B2  EFF0  F029         	goto	l1327
  6066   0053B6                     l3477:
  6067   0053B6  0E01               	movlw	1
  6068   0053B8  0105               	movlb	5	; () banked
  6069   0053BA  156C               	andwf	sqrtf@q& (0+255),w,b
  6070   0053BC  6E42               	movwf	??_sqrtf^(0+1280),c
  6071   0053BE  0E00               	movlw	0
  6072   0053C0  156D               	andwf	(sqrtf@q+1)& (0+255),w,b
  6073   0053C2  6E43               	movwf	(??_sqrtf+1)^(0+1280),c
  6074   0053C4  0E00               	movlw	0
  6075   0053C6  156E               	andwf	(sqrtf@q+2)& (0+255),w,b
  6076   0053C8  6E44               	movwf	(??_sqrtf+2)^(0+1280),c
  6077   0053CA  0E00               	movlw	0
  6078   0053CC  156F               	andwf	(sqrtf@q+3)& (0+255),w,b
  6079   0053CE  6E45               	movwf	(??_sqrtf+3)^(0+1280),c
  6080   0053D0  5042               	movf	??_sqrtf^(0+1280),w,c
  6081   0053D2  276C               	addwf	sqrtf@q& (0+255),f,b
  6082   0053D4  5043               	movf	(??_sqrtf+1)^(0+1280),w,c
  6083   0053D6  236D               	addwfc	(sqrtf@q+1)& (0+255),f,b
  6084   0053D8  5044               	movf	(??_sqrtf+2)^(0+1280),w,c
  6085   0053DA  236E               	addwfc	(sqrtf@q+2)& (0+255),f,b
  6086   0053DC  5045               	movf	(??_sqrtf+3)^(0+1280),w,c
  6087   0053DE  236F               	addwfc	(sqrtf@q+3)& (0+255),f,b
  6088   0053E0                     l1327:
  6089   0053E0  C56C  F542         	movff	sqrtf@q,??_sqrtf
  6090   0053E4  C56D  F543         	movff	sqrtf@q+1,??_sqrtf+1
  6091   0053E8  C56E  F544         	movff	sqrtf@q+2,??_sqrtf+2
  6092   0053EC  C56F  F545         	movff	sqrtf@q+3,??_sqrtf+3
  6093   0053F0  3445               	rlcf	(??_sqrtf+3)^(0+1280),w,c
  6094   0053F2  3245               	rrcf	(??_sqrtf+3)^(0+1280),f,c
  6095   0053F4  3244               	rrcf	(??_sqrtf+2)^(0+1280),f,c
  6096   0053F6  3243               	rrcf	(??_sqrtf+1)^(0+1280),f,c
  6097   0053F8  3242               	rrcf	??_sqrtf^(0+1280),f,c
  6098   0053FA  0E00               	movlw	0
  6099   0053FC  2442               	addwf	??_sqrtf^(0+1280),w,c
  6100   0053FE  0105               	movlb	5	; () banked
  6101   005400  6F80               	movwf	sqrtf@ix& (0+255),b
  6102   005402  0E00               	movlw	0
  6103   005404  2043               	addwfc	(??_sqrtf+1)^(0+1280),w,c
  6104   005406  6F81               	movwf	(sqrtf@ix+1)& (0+255),b
  6105   005408  0E00               	movlw	0
  6106   00540A  2044               	addwfc	(??_sqrtf+2)^(0+1280),w,c
  6107   00540C  6F82               	movwf	(sqrtf@ix+2)& (0+255),b
  6108   00540E  0E3F               	movlw	63
  6109   005410  2045               	addwfc	(??_sqrtf+3)^(0+1280),w,c
  6110   005412  6F83               	movwf	(sqrtf@ix+3)& (0+255),b
  6111   005414  C578  F542         	movff	sqrtf@m,??_sqrtf
  6112   005418  C579  F543         	movff	sqrtf@m+1,??_sqrtf+1
  6113   00541C  C57A  F544         	movff	sqrtf@m+2,??_sqrtf+2
  6114   005420  C57B  F545         	movff	sqrtf@m+3,??_sqrtf+3
  6115   005424  0E17               	movlw	23
  6116   005426                     u3195:
  6117   005426  90D8               	bcf	status,0,c
  6118   005428  3642               	rlcf	??_sqrtf^(0+1280),f,c
  6119   00542A  3643               	rlcf	(??_sqrtf+1)^(0+1280),f,c
  6120   00542C  3644               	rlcf	(??_sqrtf+2)^(0+1280),f,c
  6121   00542E  3645               	rlcf	(??_sqrtf+3)^(0+1280),f,c
  6122   005430  2EE8               	decfsz	wreg,f,c
  6123   005432  EF13  F02A         	goto	u3195
  6124   005436  5042               	movf	??_sqrtf^(0+1280),w,c
  6125   005438  2780               	addwf	sqrtf@ix& (0+255),f,b
  6126   00543A  5043               	movf	(??_sqrtf+1)^(0+1280),w,c
  6127   00543C  2381               	addwfc	(sqrtf@ix+1)& (0+255),f,b
  6128   00543E  5044               	movf	(??_sqrtf+2)^(0+1280),w,c
  6129   005440  2382               	addwfc	(sqrtf@ix+2)& (0+255),f,b
  6130   005442  5045               	movf	(??_sqrtf+3)^(0+1280),w,c
  6131   005444  2383               	addwfc	(sqrtf@ix+3)& (0+255),f,b
  6132   005446                     
  6133                           ; BSR set to: 5
  6134   005446  C580  F568         	movff	sqrtf@ix,sqrtf@__xc8_float_word
  6135   00544A  C581  F569         	movff	sqrtf@ix+1,sqrtf@__xc8_float_word+1
  6136   00544E  C582  F56A         	movff	sqrtf@ix+2,sqrtf@__xc8_float_word+2
  6137   005452  C583  F56B         	movff	sqrtf@ix+3,sqrtf@__xc8_float_word+3
  6138   005456                     
  6139                           ; BSR set to: 5
  6140   005456  C568  F574         	movff	sqrtf@__xc8_float_word,sqrtf@z
  6141   00545A  C569  F575         	movff	sqrtf@__xc8_float_word+1,sqrtf@z+1
  6142   00545E  C56A  F576         	movff	sqrtf@__xc8_float_word+2,sqrtf@z+2
  6143   005462  C56B  F577         	movff	sqrtf@__xc8_float_word+3,sqrtf@z+3
  6144   005466                     
  6145                           ; BSR set to: 5
  6146   005466  C574  F53E         	movff	sqrtf@z,?_sqrtf
  6147   00546A  C575  F53F         	movff	sqrtf@z+1,?_sqrtf+1
  6148   00546E  C576  F540         	movff	sqrtf@z+2,?_sqrtf+2
  6149   005472  C577  F541         	movff	sqrtf@z+3,?_sqrtf+3
  6150   005476                     l1314:
  6151   005476  0012               	return		;funcret
  6152   005478                     __end_of_sqrtf:
  6153                           	callstack 0
  6154                           
  6155 ;; *************** function _nanf *****************
  6156 ;; Defined at:
  6157 ;;		line 4 in file "C:\Program Files\Microchip\xc8\v2.40\pic\sources\c99\common\nanf.c"
  6158 ;; Parameters:    Size  Location     Type
  6159 ;;  s               2    0[COMRAM] PTR const unsigned char 
  6160 ;;		 -> STR_1(1), 
  6161 ;; Auto vars:     Size  Location     Type
  6162 ;;  u               4    4[COMRAM] struct .
  6163 ;; Return value:  Size  Location     Type
  6164 ;;                  4    0[COMRAM] float 
  6165 ;; Registers used:
  6166 ;;		wreg, status,2
  6167 ;; Tracked objects:
  6168 ;;		On entry : 0/0
  6169 ;;		On exit  : 0/0
  6170 ;;		Unchanged: 0/0
  6171 ;; Data sizes:     COMRAM   BANK5   BANK6   BANK7   BANK8   BANK9  BANK10  BANK11  BANK12  BANK13  BANK14  BANK15  BANK1
      +6  BANK17  BANK18  BANK19  BANK20  BANK21  BANK22  BANK23  BANK24  BANK25  BANK26  BANK27  BANK28  BANK29  BANK30  BANK3
      +1  BANK32  BANK33  BANK34  BANK35  BANK36
  6172 ;;      Params:         4       0       0       0       0       0       0       0       0       0       0       0       
      +0       0       0       0       0       0       0       0       0       0       0       0       0       0       0       
      +0       0       0       0       0       0
  6173 ;;      Locals:         4       0       0       0       0       0       0       0       0       0       0       0       
      +0       0       0       0       0       0       0       0       0       0       0       0       0       0       0       
      +0       0       0       0       0       0
  6174 ;;      Temps:          0       0       0       0       0       0       0       0       0       0       0       0       
      +0       0       0       0       0       0       0       0       0       0       0       0       0       0       0       
      +0       0       0       0       0       0
  6175 ;;      Totals:         8       0       0       0       0       0       0       0       0       0       0       0       
      +0       0       0       0       0       0       0       0       0       0       0       0       0       0       0       
      +0       0       0       0       0       0
  6176 ;;Total ram usage:        8 bytes
  6177 ;; Hardware stack levels used: 1
  6178 ;; Hardware stack levels required when called: 2
  6179 ;; This function calls:
  6180 ;;		Nothing
  6181 ;; This function is called by:
  6182 ;;		_sqrtf
  6183 ;; This function uses a non-reentrant model
  6184 ;;
  6185                           
  6186                           	psect	text8
  6187   006B6E                     __ptext8:
  6188                           	callstack 0
  6189   006B6E                     _nanf:
  6190                           	callstack 122
  6191   006B6E  0EFF               	movlw	255
  6192   006B70  6E05               	movwf	nanf@u^(0+1280),c
  6193   006B72  0EFF               	movlw	255
  6194   006B74  6E06               	movwf	(nanf@u+1)^(0+1280),c
  6195   006B76  0EFF               	movlw	255
  6196   006B78  6E07               	movwf	(nanf@u+2)^(0+1280),c
  6197   006B7A  0E7F               	movlw	127
  6198   006B7C  6E08               	movwf	(nanf@u+3)^(0+1280),c
  6199   006B7E  C505  F501         	movff	nanf@u,?_nanf
  6200   006B82  C506  F502         	movff	nanf@u+1,?_nanf+1
  6201   006B86  C507  F503         	movff	nanf@u+2,?_nanf+2
  6202   006B8A  C508  F504         	movff	nanf@u+3,?_nanf+3
  6203   006B8E  0012               	return		;funcret
  6204   006B90                     __end_of_nanf:
  6205                           	callstack 0
  6206                           
  6207 ;; *************** function ___flge *****************
  6208 ;; Defined at:
  6209 ;;		line 4 in file "C:\Program Files\Microchip\xc8\v2.40\pic\sources\c99\common\flge.c"
  6210 ;; Parameters:    Size  Location     Type
  6211 ;;  ff1             4   49[COMRAM] float 
  6212 ;;  ff2             4   53[COMRAM] float 
  6213 ;; Auto vars:     Size  Location     Type
  6214 ;;		None
  6215 ;; Return value:  Size  Location     Type
  6216 ;;		None               void
  6217 ;; Registers used:
  6218 ;;		wreg, status,2, status,0
  6219 ;; Tracked objects:
  6220 ;;		On entry : 0/0
  6221 ;;		On exit  : 0/0
  6222 ;;		Unchanged: 0/0
  6223 ;; Data sizes:     COMRAM   BANK5   BANK6   BANK7   BANK8   BANK9  BANK10  BANK11  BANK12  BANK13  BANK14  BANK15  BANK1
      +6  BANK17  BANK18  BANK19  BANK20  BANK21  BANK22  BANK23  BANK24  BANK25  BANK26  BANK27  BANK28  BANK29  BANK30  BANK3
      +1  BANK32  BANK33  BANK34  BANK35  BANK36
  6224 ;;      Params:         8       0       0       0       0       0       0       0       0       0       0       0       
      +0       0       0       0       0       0       0       0       0       0       0       0       0       0       0       
      +0       0       0       0       0       0
  6225 ;;      Locals:         0       0       0       0       0       0       0       0       0       0       0       0       
      +0       0       0       0       0       0       0       0       0       0       0       0       0       0       0       
      +0       0       0       0       0       0
  6226 ;;      Temps:          4       0       0       0       0       0       0       0       0       0       0       0       
      +0       0       0       0       0       0       0       0       0       0       0       0       0       0       0       
      +0       0       0       0       0       0
  6227 ;;      Totals:        12       0       0       0       0       0       0       0       0       0       0       0       
      +0       0       0       0       0       0       0       0       0       0       0       0       0       0       0       
      +0       0       0       0       0       0
  6228 ;;Total ram usage:       12 bytes
  6229 ;; Hardware stack levels used: 1
  6230 ;; Hardware stack levels required when called: 2
  6231 ;; This function calls:
  6232 ;;		Nothing
  6233 ;; This function is called by:
  6234 ;;		_powf
  6235 ;;		_sqrtf
  6236 ;; This function uses a non-reentrant model
  6237 ;;
  6238                           
  6239                           	psect	text9
  6240   00670A                     __ptext9:
  6241                           	callstack 0
  6242   00670A                     ___flge:
  6243                           	callstack 122
  6244   00670A  0E00               	movlw	0
  6245   00670C  1432               	andwf	___flge@ff1^(0+1280),w,c
  6246   00670E  6E3A               	movwf	??___flge^(0+1280),c
  6247   006710  0E00               	movlw	0
  6248   006712  1433               	andwf	(___flge@ff1+1)^(0+1280),w,c
  6249   006714  6E3B               	movwf	(??___flge+1)^(0+1280),c
  6250   006716  0E80               	movlw	128
  6251   006718  1434               	andwf	(___flge@ff1+2)^(0+1280),w,c
  6252   00671A  6E3C               	movwf	(??___flge+2)^(0+1280),c
  6253   00671C  0E7F               	movlw	127
  6254   00671E  1435               	andwf	(___flge@ff1+3)^(0+1280),w,c
  6255   006720  6E3D               	movwf	(??___flge+3)^(0+1280),c
  6256   006722  503A               	movf	??___flge^(0+1280),w,c
  6257   006724  103B               	iorwf	(??___flge+1)^(0+1280),w,c
  6258   006726  103C               	iorwf	(??___flge+2)^(0+1280),w,c
  6259   006728  103D               	iorwf	(??___flge+3)^(0+1280),w,c
  6260   00672A  A4D8               	btfss	status,2,c
  6261   00672C  EF9A  F033         	goto	u2641
  6262   006730  EF9C  F033         	goto	u2640
  6263   006734                     u2641:
  6264   006734  EFA4  F033         	goto	l3113
  6265   006738                     u2640:
  6266   006738  0E00               	movlw	0
  6267   00673A  6E32               	movwf	___flge@ff1^(0+1280),c
  6268   00673C  0E00               	movlw	0
  6269   00673E  6E33               	movwf	(___flge@ff1+1)^(0+1280),c
  6270   006740  0E00               	movlw	0
  6271   006742  6E34               	movwf	(___flge@ff1+2)^(0+1280),c
  6272   006744  0E00               	movlw	0
  6273   006746  6E35               	movwf	(___flge@ff1+3)^(0+1280),c
  6274   006748                     l3113:
  6275   006748  0E00               	movlw	0
  6276   00674A  1436               	andwf	___flge@ff2^(0+1280),w,c
  6277   00674C  6E3A               	movwf	??___flge^(0+1280),c
  6278   00674E  0E00               	movlw	0
  6279   006750  1437               	andwf	(___flge@ff2+1)^(0+1280),w,c
  6280   006752  6E3B               	movwf	(??___flge+1)^(0+1280),c
  6281   006754  0E80               	movlw	128
  6282   006756  1438               	andwf	(___flge@ff2+2)^(0+1280),w,c
  6283   006758  6E3C               	movwf	(??___flge+2)^(0+1280),c
  6284   00675A  0E7F               	movlw	127
  6285   00675C  1439               	andwf	(___flge@ff2+3)^(0+1280),w,c
  6286   00675E  6E3D               	movwf	(??___flge+3)^(0+1280),c
  6287   006760  503A               	movf	??___flge^(0+1280),w,c
  6288   006762  103B               	iorwf	(??___flge+1)^(0+1280),w,c
  6289   006764  103C               	iorwf	(??___flge+2)^(0+1280),w,c
  6290   006766  103D               	iorwf	(??___flge+3)^(0+1280),w,c
  6291   006768  A4D8               	btfss	status,2,c
  6292   00676A  EFB9  F033         	goto	u2651
  6293   00676E  EFBB  F033         	goto	u2650
  6294   006772                     u2651:
  6295   006772  EFC3  F033         	goto	l3117
  6296   006776                     u2650:
  6297   006776  0E00               	movlw	0
  6298   006778  6E36               	movwf	___flge@ff2^(0+1280),c
  6299   00677A  0E00               	movlw	0
  6300   00677C  6E37               	movwf	(___flge@ff2+1)^(0+1280),c
  6301   00677E  0E00               	movlw	0
  6302   006780  6E38               	movwf	(___flge@ff2+2)^(0+1280),c
  6303   006782  0E00               	movlw	0
  6304   006784  6E39               	movwf	(___flge@ff2+3)^(0+1280),c
  6305   006786                     l3117:
  6306   006786  AE35               	btfss	(___flge@ff1+3)^(0+1280),7,c
  6307   006788  EFC8  F033         	goto	u2661
  6308   00678C  EFCA  F033         	goto	u2660
  6309   006790                     u2661:
  6310   006790  EFD3  F033         	goto	l3121
  6311   006794                     u2660:
  6312   006794  6C32               	negf	___flge@ff1^(0+1280),c
  6313   006796  1E33               	comf	(___flge@ff1+1)^(0+1280),f,c
  6314   006798  B0D8               	btfsc	status,0,c
  6315   00679A  2A33               	incf	(___flge@ff1+1)^(0+1280),f,c
  6316   00679C  1E34               	comf	(___flge@ff1+2)^(0+1280),f,c
  6317   00679E  B0D8               	btfsc	status,0,c
  6318   0067A0  2A34               	incf	(___flge@ff1+2)^(0+1280),f,c
  6319   0067A2  0E80               	movlw	128
  6320   0067A4  5635               	subfwb	(___flge@ff1+3)^(0+1280),f,c
  6321   0067A6                     l3121:
  6322   0067A6  AE39               	btfss	(___flge@ff2+3)^(0+1280),7,c
  6323   0067A8  EFD8  F033         	goto	u2671
  6324   0067AC  EFDA  F033         	goto	u2670
  6325   0067B0                     u2671:
  6326   0067B0  EFE3  F033         	goto	l696
  6327   0067B4                     u2670:
  6328   0067B4  6C36               	negf	___flge@ff2^(0+1280),c
  6329   0067B6  1E37               	comf	(___flge@ff2+1)^(0+1280),f,c
  6330   0067B8  B0D8               	btfsc	status,0,c
  6331   0067BA  2A37               	incf	(___flge@ff2+1)^(0+1280),f,c
  6332   0067BC  1E38               	comf	(___flge@ff2+2)^(0+1280),f,c
  6333   0067BE  B0D8               	btfsc	status,0,c
  6334   0067C0  2A38               	incf	(___flge@ff2+2)^(0+1280),f,c
  6335   0067C2  0E80               	movlw	128
  6336   0067C4  5639               	subfwb	(___flge@ff2+3)^(0+1280),f,c
  6337   0067C6                     l696:
  6338   0067C6  0E00               	movlw	0
  6339   0067C8  1A32               	xorwf	___flge@ff1^(0+1280),f,c
  6340   0067CA  0E00               	movlw	0
  6341   0067CC  1A33               	xorwf	(___flge@ff1+1)^(0+1280),f,c
  6342   0067CE  0E00               	movlw	0
  6343   0067D0  1A34               	xorwf	(___flge@ff1+2)^(0+1280),f,c
  6344   0067D2  0E80               	movlw	128
  6345   0067D4  1A35               	xorwf	(___flge@ff1+3)^(0+1280),f,c
  6346   0067D6  0E00               	movlw	0
  6347   0067D8  1A36               	xorwf	___flge@ff2^(0+1280),f,c
  6348   0067DA  0E00               	movlw	0
  6349   0067DC  1A37               	xorwf	(___flge@ff2+1)^(0+1280),f,c
  6350   0067DE  0E00               	movlw	0
  6351   0067E0  1A38               	xorwf	(___flge@ff2+2)^(0+1280),f,c
  6352   0067E2  0E80               	movlw	128
  6353   0067E4  1A39               	xorwf	(___flge@ff2+3)^(0+1280),f,c
  6354   0067E6  5036               	movf	___flge@ff2^(0+1280),w,c
  6355   0067E8  5C32               	subwf	___flge@ff1^(0+1280),w,c
  6356   0067EA  5037               	movf	(___flge@ff2+1)^(0+1280),w,c
  6357   0067EC  5833               	subwfb	(___flge@ff1+1)^(0+1280),w,c
  6358   0067EE  5038               	movf	(___flge@ff2+2)^(0+1280),w,c
  6359   0067F0  5834               	subwfb	(___flge@ff1+2)^(0+1280),w,c
  6360   0067F2  5039               	movf	(___flge@ff2+3)^(0+1280),w,c
  6361   0067F4  5835               	subwfb	(___flge@ff1+3)^(0+1280),w,c
  6362   0067F6  B0D8               	btfsc	status,0,c
  6363   0067F8  EF00  F034         	goto	u2681
  6364   0067FC  EF02  F034         	goto	u2680
  6365   006800                     u2681:
  6366   006800  EF05  F034         	goto	l3127
  6367   006804                     u2680:
  6368   006804  90D8               	bcf	status,0,c
  6369   006806  EF06  F034         	goto	l701
  6370   00680A                     l3127:
  6371   00680A  80D8               	bsf	status,0,c
  6372   00680C                     l701:
  6373   00680C  0012               	return		;funcret
  6374   00680E                     __end_of___flge:
  6375                           	callstack 0
  6376                           
  6377 ;; *************** function _scalbnf *****************
  6378 ;; Defined at:
  6379 ;;		line 4 in file "C:\Program Files\Microchip\xc8\v2.40\pic\sources\c99\common\scalbnf.c"
  6380 ;; Parameters:    Size  Location     Type
  6381 ;;  x               4   41[COMRAM] float 
  6382 ;;  n               2   45[COMRAM] int 
  6383 ;; Auto vars:     Size  Location     Type
  6384 ;;  y               4   55[COMRAM] float 
  6385 ;;  u               4   51[COMRAM] struct .
  6386 ;; Return value:  Size  Location     Type
  6387 ;;                  4   41[COMRAM] float 
  6388 ;; Registers used:
  6389 ;;		wreg, status,2, status,0, prodl, prodh, cstack
  6390 ;; Tracked objects:
  6391 ;;		On entry : 0/0
  6392 ;;		On exit  : 0/0
  6393 ;;		Unchanged: 0/0
  6394 ;; Data sizes:     COMRAM   BANK5   BANK6   BANK7   BANK8   BANK9  BANK10  BANK11  BANK12  BANK13  BANK14  BANK15  BANK1
      +6  BANK17  BANK18  BANK19  BANK20  BANK21  BANK22  BANK23  BANK24  BANK25  BANK26  BANK27  BANK28  BANK29  BANK30  BANK3
      +1  BANK32  BANK33  BANK34  BANK35  BANK36
  6395 ;;      Params:         6       0       0       0       0       0       0       0       0       0       0       0       
      +0       0       0       0       0       0       0       0       0       0       0       0       0       0       0       
      +0       0       0       0       0       0
  6396 ;;      Locals:         8       0       0       0       0       0       0       0       0       0       0       0       
      +0       0       0       0       0       0       0       0       0       0       0       0       0       0       0       
      +0       0       0       0       0       0
  6397 ;;      Temps:          4       0       0       0       0       0       0       0       0       0       0       0       
      +0       0       0       0       0       0       0       0       0       0       0       0       0       0       0       
      +0       0       0       0       0       0
  6398 ;;      Totals:        18       0       0       0       0       0       0       0       0       0       0       0       
      +0       0       0       0       0       0       0       0       0       0       0       0       0       0       0       
      +0       0       0       0       0       0
  6399 ;;Total ram usage:       18 bytes
  6400 ;; Hardware stack levels used: 1
  6401 ;; Hardware stack levels required when called: 3
  6402 ;; This function calls:
  6403 ;;		___flmul
  6404 ;; This function is called by:
  6405 ;;		_powf
  6406 ;; This function uses a non-reentrant model
  6407 ;;
  6408                           
  6409                           	psect	text10
  6410   0060FC                     __ptext10:
  6411                           	callstack 0
  6412   0060FC                     _scalbnf:
  6413                           	callstack 122
  6414   0060FC  C52A  F538         	movff	scalbnf@x,scalbnf@y
  6415   006100  C52B  F539         	movff	scalbnf@x+1,scalbnf@y+1
  6416   006104  C52C  F53A         	movff	scalbnf@x+2,scalbnf@y+2
  6417   006108  C52D  F53B         	movff	scalbnf@x+3,scalbnf@y+3
  6418   00610C  BE2F               	btfsc	(scalbnf@n+1)^(0+1280),7,c
  6419   00610E  EF92  F030         	goto	u3201
  6420   006112  502F               	movf	(scalbnf@n+1)^(0+1280),w,c
  6421   006114  E109               	bnz	u3200
  6422   006116  0E80               	movlw	128
  6423   006118  5C2E               	subwf	scalbnf@n^(0+1280),w,c
  6424   00611A  A0D8               	btfss	status,0,c
  6425   00611C  EF92  F030         	goto	u3201
  6426   006120  EF94  F030         	goto	u3200
  6427   006124                     u3201:
  6428   006124  EFF2  F030         	goto	l3513
  6429   006128                     u3200:
  6430   006128  C538  F511         	movff	scalbnf@y,___flmul@b
  6431   00612C  C539  F512         	movff	scalbnf@y+1,___flmul@b+1
  6432   006130  C53A  F513         	movff	scalbnf@y+2,___flmul@b+2
  6433   006134  C53B  F514         	movff	scalbnf@y+3,___flmul@b+3
  6434   006138  0E00               	movlw	0
  6435   00613A  6E15               	movwf	___flmul@a^(0+1280),c
  6436   00613C  0E00               	movlw	0
  6437   00613E  6E16               	movwf	(___flmul@a+1)^(0+1280),c
  6438   006140  0E00               	movlw	0
  6439   006142  6E17               	movwf	(___flmul@a+2)^(0+1280),c
  6440   006144  0E7F               	movlw	127
  6441   006146  6E18               	movwf	(___flmul@a+3)^(0+1280),c
  6442   006148  EC9C  F02C         	call	___flmul	;wreg free
  6443   00614C  C511  F538         	movff	?___flmul,scalbnf@y
  6444   006150  C512  F539         	movff	?___flmul+1,scalbnf@y+1
  6445   006154  C513  F53A         	movff	?___flmul+2,scalbnf@y+2
  6446   006158  C514  F53B         	movff	?___flmul+3,scalbnf@y+3
  6447   00615C  0E81               	movlw	129
  6448   00615E  262E               	addwf	scalbnf@n^(0+1280),f,c
  6449   006160  0EFF               	movlw	255
  6450   006162  222F               	addwfc	(scalbnf@n+1)^(0+1280),f,c
  6451   006164  BE2F               	btfsc	(scalbnf@n+1)^(0+1280),7,c
  6452   006166  EFBE  F030         	goto	u3211
  6453   00616A  502F               	movf	(scalbnf@n+1)^(0+1280),w,c
  6454   00616C  E109               	bnz	u3210
  6455   00616E  0E80               	movlw	128
  6456   006170  5C2E               	subwf	scalbnf@n^(0+1280),w,c
  6457   006172  A0D8               	btfss	status,0,c
  6458   006174  EFBE  F030         	goto	u3211
  6459   006178  EFC0  F030         	goto	u3210
  6460   00617C                     u3211:
  6461   00617C  EF5C  F031         	goto	l3529
  6462   006180                     u3210:
  6463   006180  C538  F511         	movff	scalbnf@y,___flmul@b
  6464   006184  C539  F512         	movff	scalbnf@y+1,___flmul@b+1
  6465   006188  C53A  F513         	movff	scalbnf@y+2,___flmul@b+2
  6466   00618C  C53B  F514         	movff	scalbnf@y+3,___flmul@b+3
  6467   006190  0E00               	movlw	0
  6468   006192  6E15               	movwf	___flmul@a^(0+1280),c
  6469   006194  0E00               	movlw	0
  6470   006196  6E16               	movwf	(___flmul@a+1)^(0+1280),c
  6471   006198  0E00               	movlw	0
  6472   00619A  6E17               	movwf	(___flmul@a+2)^(0+1280),c
  6473   00619C  0E7F               	movlw	127
  6474   00619E  6E18               	movwf	(___flmul@a+3)^(0+1280),c
  6475   0061A0  EC9C  F02C         	call	___flmul	;wreg free
  6476   0061A4  C511  F538         	movff	?___flmul,scalbnf@y
  6477   0061A8  C512  F539         	movff	?___flmul+1,scalbnf@y+1
  6478   0061AC  C513  F53A         	movff	?___flmul+2,scalbnf@y+2
  6479   0061B0  C514  F53B         	movff	?___flmul+3,scalbnf@y+3
  6480   0061B4  0E81               	movlw	129
  6481   0061B6  262E               	addwf	scalbnf@n^(0+1280),f,c
  6482   0061B8  0EFF               	movlw	255
  6483   0061BA  222F               	addwfc	(scalbnf@n+1)^(0+1280),f,c
  6484   0061BC  BE2F               	btfsc	(scalbnf@n+1)^(0+1280),7,c
  6485   0061BE  EFEA  F030         	goto	u3221
  6486   0061C2  502F               	movf	(scalbnf@n+1)^(0+1280),w,c
  6487   0061C4  E109               	bnz	u3220
  6488   0061C6  0E80               	movlw	128
  6489   0061C8  5C2E               	subwf	scalbnf@n^(0+1280),w,c
  6490   0061CA  A0D8               	btfss	status,0,c
  6491   0061CC  EFEA  F030         	goto	u3221
  6492   0061D0  EFEC  F030         	goto	u3220
  6493   0061D4                     u3221:
  6494   0061D4  EF5C  F031         	goto	l3529
  6495   0061D8                     u3220:
  6496   0061D8  0E00               	movlw	0
  6497   0061DA  6E2F               	movwf	(scalbnf@n+1)^(0+1280),c
  6498   0061DC  0E7F               	movlw	127
  6499   0061DE  6E2E               	movwf	scalbnf@n^(0+1280),c
  6500   0061E0  EF5C  F031         	goto	l3529
  6501   0061E4                     l3513:
  6502   0061E4  AE2F               	btfss	(scalbnf@n+1)^(0+1280),7,c
  6503   0061E6  EFFE  F030         	goto	u3231
  6504   0061EA  0E82               	movlw	130
  6505   0061EC  5C2E               	subwf	scalbnf@n^(0+1280),w,c
  6506   0061EE  0EFF               	movlw	255
  6507   0061F0  582F               	subwfb	(scalbnf@n+1)^(0+1280),w,c
  6508   0061F2  B0D8               	btfsc	status,0,c
  6509   0061F4  EFFE  F030         	goto	u3231
  6510   0061F8  EF00  F031         	goto	u3230
  6511   0061FC                     u3231:
  6512   0061FC  EF5C  F031         	goto	l3529
  6513   006200                     u3230:
  6514   006200  C538  F511         	movff	scalbnf@y,___flmul@b
  6515   006204  C539  F512         	movff	scalbnf@y+1,___flmul@b+1
  6516   006208  C53A  F513         	movff	scalbnf@y+2,___flmul@b+2
  6517   00620C  C53B  F514         	movff	scalbnf@y+3,___flmul@b+3
  6518   006210  0E00               	movlw	0
  6519   006212  6E15               	movwf	___flmul@a^(0+1280),c
  6520   006214  0E00               	movlw	0
  6521   006216  6E16               	movwf	(___flmul@a+1)^(0+1280),c
  6522   006218  0E80               	movlw	128
  6523   00621A  6E17               	movwf	(___flmul@a+2)^(0+1280),c
  6524   00621C  0E0C               	movlw	12
  6525   00621E  6E18               	movwf	(___flmul@a+3)^(0+1280),c
  6526   006220  EC9C  F02C         	call	___flmul	;wreg free
  6527   006224  C511  F538         	movff	?___flmul,scalbnf@y
  6528   006228  C512  F539         	movff	?___flmul+1,scalbnf@y+1
  6529   00622C  C513  F53A         	movff	?___flmul+2,scalbnf@y+2
  6530   006230  C514  F53B         	movff	?___flmul+3,scalbnf@y+3
  6531   006234  0E66               	movlw	102
  6532   006236  262E               	addwf	scalbnf@n^(0+1280),f,c
  6533   006238  0E00               	movlw	0
  6534   00623A  222F               	addwfc	(scalbnf@n+1)^(0+1280),f,c
  6535   00623C  AE2F               	btfss	(scalbnf@n+1)^(0+1280),7,c
  6536   00623E  EF2A  F031         	goto	u3241
  6537   006242  0E82               	movlw	130
  6538   006244  5C2E               	subwf	scalbnf@n^(0+1280),w,c
  6539   006246  0EFF               	movlw	255
  6540   006248  582F               	subwfb	(scalbnf@n+1)^(0+1280),w,c
  6541   00624A  B0D8               	btfsc	status,0,c
  6542   00624C  EF2A  F031         	goto	u3241
  6543   006250  EF2C  F031         	goto	u3240
  6544   006254                     u3241:
  6545   006254  EF5C  F031         	goto	l3529
  6546   006258                     u3240:
  6547   006258  C538  F511         	movff	scalbnf@y,___flmul@b
  6548   00625C  C539  F512         	movff	scalbnf@y+1,___flmul@b+1
  6549   006260  C53A  F513         	movff	scalbnf@y+2,___flmul@b+2
  6550   006264  C53B  F514         	movff	scalbnf@y+3,___flmul@b+3
  6551   006268  0E00               	movlw	0
  6552   00626A  6E15               	movwf	___flmul@a^(0+1280),c
  6553   00626C  0E00               	movlw	0
  6554   00626E  6E16               	movwf	(___flmul@a+1)^(0+1280),c
  6555   006270  0E80               	movlw	128
  6556   006272  6E17               	movwf	(___flmul@a+2)^(0+1280),c
  6557   006274  0E0C               	movlw	12
  6558   006276  6E18               	movwf	(___flmul@a+3)^(0+1280),c
  6559   006278  EC9C  F02C         	call	___flmul	;wreg free
  6560   00627C  C511  F538         	movff	?___flmul,scalbnf@y
  6561   006280  C512  F539         	movff	?___flmul+1,scalbnf@y+1
  6562   006284  C513  F53A         	movff	?___flmul+2,scalbnf@y+2
  6563   006288  C514  F53B         	movff	?___flmul+3,scalbnf@y+3
  6564   00628C  0E66               	movlw	102
  6565   00628E  262E               	addwf	scalbnf@n^(0+1280),f,c
  6566   006290  0E00               	movlw	0
  6567   006292  222F               	addwfc	(scalbnf@n+1)^(0+1280),f,c
  6568   006294  AE2F               	btfss	(scalbnf@n+1)^(0+1280),7,c
  6569   006296  EF56  F031         	goto	u3251
  6570   00629A  0E82               	movlw	130
  6571   00629C  5C2E               	subwf	scalbnf@n^(0+1280),w,c
  6572   00629E  0EFF               	movlw	255
  6573   0062A0  582F               	subwfb	(scalbnf@n+1)^(0+1280),w,c
  6574   0062A2  B0D8               	btfsc	status,0,c
  6575   0062A4  EF56  F031         	goto	u3251
  6576   0062A8  EF58  F031         	goto	u3250
  6577   0062AC                     u3251:
  6578   0062AC  EF5C  F031         	goto	l3529
  6579   0062B0                     u3250:
  6580   0062B0  0EFF               	movlw	255
  6581   0062B2  6E2F               	movwf	(scalbnf@n+1)^(0+1280),c
  6582   0062B4  0E82               	movlw	130
  6583   0062B6  6E2E               	movwf	scalbnf@n^(0+1280),c
  6584   0062B8                     l3529:
  6585   0062B8  0E7F               	movlw	127
  6586   0062BA  242E               	addwf	scalbnf@n^(0+1280),w,c
  6587   0062BC  6E30               	movwf	??_scalbnf^(0+1280),c
  6588   0062BE  0E00               	movlw	0
  6589   0062C0  202F               	addwfc	(scalbnf@n+1)^(0+1280),w,c
  6590   0062C2  6E31               	movwf	(??_scalbnf+1)^(0+1280),c
  6591   0062C4  6A32               	clrf	(??_scalbnf+2)^(0+1280),c
  6592   0062C6  6A33               	clrf	(??_scalbnf+3)^(0+1280),c
  6593   0062C8  0E17               	movlw	23
  6594   0062CA                     u3265:
  6595   0062CA  90D8               	bcf	status,0,c
  6596   0062CC  3630               	rlcf	??_scalbnf^(0+1280),f,c
  6597   0062CE  3631               	rlcf	(??_scalbnf+1)^(0+1280),f,c
  6598   0062D0  3632               	rlcf	(??_scalbnf+2)^(0+1280),f,c
  6599   0062D2  3633               	rlcf	(??_scalbnf+3)^(0+1280),f,c
  6600   0062D4  2EE8               	decfsz	wreg,f,c
  6601   0062D6  EF65  F031         	goto	u3265
  6602   0062DA  C530  F534         	movff	??_scalbnf,scalbnf@u
  6603   0062DE  C531  F535         	movff	??_scalbnf+1,scalbnf@u+1
  6604   0062E2  C532  F536         	movff	??_scalbnf+2,scalbnf@u+2
  6605   0062E6  C533  F537         	movff	??_scalbnf+3,scalbnf@u+3
  6606   0062EA  C534  F511         	movff	scalbnf@u,___flmul@b
  6607   0062EE  C535  F512         	movff	scalbnf@u+1,___flmul@b+1
  6608   0062F2  C536  F513         	movff	scalbnf@u+2,___flmul@b+2
  6609   0062F6  C537  F514         	movff	scalbnf@u+3,___flmul@b+3
  6610   0062FA  C538  F515         	movff	scalbnf@y,___flmul@a
  6611   0062FE  C539  F516         	movff	scalbnf@y+1,___flmul@a+1
  6612   006302  C53A  F517         	movff	scalbnf@y+2,___flmul@a+2
  6613   006306  C53B  F518         	movff	scalbnf@y+3,___flmul@a+3
  6614   00630A  EC9C  F02C         	call	___flmul	;wreg free
  6615   00630E  C511  F52A         	movff	?___flmul,scalbnf@x
  6616   006312  C512  F52B         	movff	?___flmul+1,scalbnf@x+1
  6617   006316  C513  F52C         	movff	?___flmul+2,scalbnf@x+2
  6618   00631A  C514  F52D         	movff	?___flmul+3,scalbnf@x+3
  6619   00631E  C52A  F52A         	movff	scalbnf@x,?_scalbnf
  6620   006322  C52B  F52B         	movff	scalbnf@x+1,?_scalbnf+1
  6621   006326  C52C  F52C         	movff	scalbnf@x+2,?_scalbnf+2
  6622   00632A  C52D  F52D         	movff	scalbnf@x+3,?_scalbnf+3
  6623   00632E  0012               	return		;funcret
  6624   006330                     __end_of_scalbnf:
  6625                           	callstack 0
  6626                           
  6627 ;; *************** function ___flmul *****************
  6628 ;; Defined at:
  6629 ;;		line 8 in file "C:\Program Files\Microchip\xc8\v2.40\pic\sources\c99\common\sprcmul.c"
  6630 ;; Parameters:    Size  Location     Type
  6631 ;;  b               4   16[COMRAM] float 
  6632 ;;  a               4   20[COMRAM] float 
  6633 ;; Auto vars:     Size  Location     Type
  6634 ;;  prod            4   35[COMRAM] struct .
  6635 ;;  grs             4   29[COMRAM] unsigned long 
  6636 ;;  temp            2   39[COMRAM] struct .
  6637 ;;  bexp            1   34[COMRAM] unsigned char 
  6638 ;;  aexp            1   33[COMRAM] unsigned char 
  6639 ;;  sign            1   28[COMRAM] unsigned char 
  6640 ;; Return value:  Size  Location     Type
  6641 ;;                  4   16[COMRAM] unsigned char 
  6642 ;; Registers used:
  6643 ;;		wreg, status,2, status,0, prodl, prodh
  6644 ;; Tracked objects:
  6645 ;;		On entry : 0/0
  6646 ;;		On exit  : 0/0
  6647 ;;		Unchanged: 0/0
  6648 ;; Data sizes:     COMRAM   BANK5   BANK6   BANK7   BANK8   BANK9  BANK10  BANK11  BANK12  BANK13  BANK14  BANK15  BANK1
      +6  BANK17  BANK18  BANK19  BANK20  BANK21  BANK22  BANK23  BANK24  BANK25  BANK26  BANK27  BANK28  BANK29  BANK30  BANK3
      +1  BANK32  BANK33  BANK34  BANK35  BANK36
  6649 ;;      Params:         8       0       0       0       0       0       0       0       0       0       0       0       
      +0       0       0       0       0       0       0       0       0       0       0       0       0       0       0       
      +0       0       0       0       0       0
  6650 ;;      Locals:        13       0       0       0       0       0       0       0       0       0       0       0       
      +0       0       0       0       0       0       0       0       0       0       0       0       0       0       0       
      +0       0       0       0       0       0
  6651 ;;      Temps:          4       0       0       0       0       0       0       0       0       0       0       0       
      +0       0       0       0       0       0       0       0       0       0       0       0       0       0       0       
      +0       0       0       0       0       0
  6652 ;;      Totals:        25       0       0       0       0       0       0       0       0       0       0       0       
      +0       0       0       0       0       0       0       0       0       0       0       0       0       0       0       
      +0       0       0       0       0       0
  6653 ;;Total ram usage:       25 bytes
  6654 ;; Hardware stack levels used: 1
  6655 ;; Hardware stack levels required when called: 2
  6656 ;; This function calls:
  6657 ;;		Nothing
  6658 ;; This function is called by:
  6659 ;;		_powf
  6660 ;;		_scalbnf
  6661 ;;		_sqrtf
  6662 ;; This function uses a non-reentrant model
  6663 ;;
  6664                           
  6665                           	psect	text11
  6666   005938                     __ptext11:
  6667                           	callstack 0
  6668   005938                     ___flmul:
  6669                           	callstack 122
  6670   005938  5014               	movf	(___flmul@b+3)^(0+1280),w,c
  6671   00593A  0B80               	andlw	128
  6672   00593C  6E1D               	movwf	___flmul@sign^(0+1280),c
  6673   00593E  5014               	movf	(___flmul@b+3)^(0+1280),w,c
  6674   005940  2414               	addwf	(___flmul@b+3)^(0+1280),w,c
  6675   005942  6E23               	movwf	___flmul@bexp^(0+1280),c
  6676   005944  AE13               	btfss	(___flmul@b+2)^(0+1280),7,c
  6677   005946  EFA7  F02C         	goto	u2451
  6678   00594A  EFA9  F02C         	goto	u2450
  6679   00594E                     u2451:
  6680   00594E  EFAA  F02C         	goto	l2985
  6681   005952                     u2450:
  6682   005952  8023               	bsf	___flmul@bexp^(0+1280),0,c
  6683   005954                     l2985:
  6684   005954  5023               	movf	___flmul@bexp^(0+1280),w,c
  6685   005956  B4D8               	btfsc	status,2,c
  6686   005958  EFB0  F02C         	goto	u2461
  6687   00595C  EFB2  F02C         	goto	u2460
  6688   005960                     u2461:
  6689   005960  EFC5  F02C         	goto	l2993
  6690   005964                     u2460:
  6691   005964  2823               	incf	___flmul@bexp^(0+1280),w,c
  6692   005966  A4D8               	btfss	status,2,c
  6693   005968  EFB8  F02C         	goto	u2471
  6694   00596C  EFBA  F02C         	goto	u2470
  6695   005970                     u2471:
  6696   005970  EFC2  F02C         	goto	l2991
  6697   005974                     u2470:
  6698   005974  0E00               	movlw	0
  6699   005976  6E11               	movwf	___flmul@b^(0+1280),c
  6700   005978  0E00               	movlw	0
  6701   00597A  6E12               	movwf	(___flmul@b+1)^(0+1280),c
  6702   00597C  0E00               	movlw	0
  6703   00597E  6E13               	movwf	(___flmul@b+2)^(0+1280),c
  6704   005980  0E00               	movlw	0
  6705   005982  6E14               	movwf	(___flmul@b+3)^(0+1280),c
  6706   005984                     l2991:
  6707   005984  8E13               	bsf	(___flmul@b+2)^(0+1280),7,c
  6708   005986  EFCD  F02C         	goto	l2995
  6709   00598A                     l2993:
  6710   00598A  0E00               	movlw	0
  6711   00598C  6E11               	movwf	___flmul@b^(0+1280),c
  6712   00598E  0E00               	movlw	0
  6713   005990  6E12               	movwf	(___flmul@b+1)^(0+1280),c
  6714   005992  0E00               	movlw	0
  6715   005994  6E13               	movwf	(___flmul@b+2)^(0+1280),c
  6716   005996  0E00               	movlw	0
  6717   005998  6E14               	movwf	(___flmul@b+3)^(0+1280),c
  6718   00599A                     l2995:
  6719   00599A  5018               	movf	(___flmul@a+3)^(0+1280),w,c
  6720   00599C  0B80               	andlw	128
  6721   00599E  1A1D               	xorwf	___flmul@sign^(0+1280),f,c
  6722   0059A0  5018               	movf	(___flmul@a+3)^(0+1280),w,c
  6723   0059A2  2418               	addwf	(___flmul@a+3)^(0+1280),w,c
  6724   0059A4  6E22               	movwf	___flmul@aexp^(0+1280),c
  6725   0059A6  AE17               	btfss	(___flmul@a+2)^(0+1280),7,c
  6726   0059A8  EFD8  F02C         	goto	u2481
  6727   0059AC  EFDA  F02C         	goto	u2480
  6728   0059B0                     u2481:
  6729   0059B0  EFDB  F02C         	goto	l3003
  6730   0059B4                     u2480:
  6731   0059B4  8022               	bsf	___flmul@aexp^(0+1280),0,c
  6732   0059B6                     l3003:
  6733   0059B6  5022               	movf	___flmul@aexp^(0+1280),w,c
  6734   0059B8  B4D8               	btfsc	status,2,c
  6735   0059BA  EFE1  F02C         	goto	u2491
  6736   0059BE  EFE3  F02C         	goto	u2490
  6737   0059C2                     u2491:
  6738   0059C2  EFF6  F02C         	goto	l3011
  6739   0059C6                     u2490:
  6740   0059C6  2822               	incf	___flmul@aexp^(0+1280),w,c
  6741   0059C8  A4D8               	btfss	status,2,c
  6742   0059CA  EFE9  F02C         	goto	u2501
  6743   0059CE  EFEB  F02C         	goto	u2500
  6744   0059D2                     u2501:
  6745   0059D2  EFF3  F02C         	goto	l3009
  6746   0059D6                     u2500:
  6747   0059D6  0E00               	movlw	0
  6748   0059D8  6E15               	movwf	___flmul@a^(0+1280),c
  6749   0059DA  0E00               	movlw	0
  6750   0059DC  6E16               	movwf	(___flmul@a+1)^(0+1280),c
  6751   0059DE  0E00               	movlw	0
  6752   0059E0  6E17               	movwf	(___flmul@a+2)^(0+1280),c
  6753   0059E2  0E00               	movlw	0
  6754   0059E4  6E18               	movwf	(___flmul@a+3)^(0+1280),c
  6755   0059E6                     l3009:
  6756   0059E6  8E17               	bsf	(___flmul@a+2)^(0+1280),7,c
  6757   0059E8  EFFE  F02C         	goto	l1045
  6758   0059EC                     l3011:
  6759   0059EC  0E00               	movlw	0
  6760   0059EE  6E15               	movwf	___flmul@a^(0+1280),c
  6761   0059F0  0E00               	movlw	0
  6762   0059F2  6E16               	movwf	(___flmul@a+1)^(0+1280),c
  6763   0059F4  0E00               	movlw	0
  6764   0059F6  6E17               	movwf	(___flmul@a+2)^(0+1280),c
  6765   0059F8  0E00               	movlw	0
  6766   0059FA  6E18               	movwf	(___flmul@a+3)^(0+1280),c
  6767   0059FC                     l1045:
  6768   0059FC  5022               	movf	___flmul@aexp^(0+1280),w,c
  6769   0059FE  B4D8               	btfsc	status,2,c
  6770   005A00  EF04  F02D         	goto	u2511
  6771   005A04  EF06  F02D         	goto	u2510
  6772   005A08                     u2511:
  6773   005A08  EF0E  F02D         	goto	l3015
  6774   005A0C                     u2510:
  6775   005A0C  5023               	movf	___flmul@bexp^(0+1280),w,c
  6776   005A0E  A4D8               	btfss	status,2,c
  6777   005A10  EF0C  F02D         	goto	u2521
  6778   005A14  EF0E  F02D         	goto	u2520
  6779   005A18                     u2521:
  6780   005A18  EF18  F02D         	goto	l3019
  6781   005A1C                     u2520:
  6782   005A1C                     l3015:
  6783   005A1C  0E00               	movlw	0
  6784   005A1E  6E11               	movwf	?___flmul^(0+1280),c
  6785   005A20  0E00               	movlw	0
  6786   005A22  6E12               	movwf	(?___flmul+1)^(0+1280),c
  6787   005A24  0E00               	movlw	0
  6788   005A26  6E13               	movwf	(?___flmul+2)^(0+1280),c
  6789   005A28  0E00               	movlw	0
  6790   005A2A  6E14               	movwf	(?___flmul+3)^(0+1280),c
  6791   005A2C  EFB0  F02E         	goto	l1049
  6792   005A30                     l3019:
  6793   005A30  5017               	movf	(___flmul@a+2)^(0+1280),w,c
  6794   005A32  0211               	mulwf	___flmul@b^(0+1280),c
  6795   005A34  C4F3 F528          	movff	prodl,___flmul@temp
  6796   005A38  C4F4 F529          	movff	prodh,___flmul@temp+1
  6797   005A3C  5028               	movf	___flmul@temp^(0+1280),w,c
  6798   005A3E  6E1E               	movwf	___flmul@grs^(0+1280),c
  6799   005A40  6A1F               	clrf	(___flmul@grs+1)^(0+1280),c
  6800   005A42  6A20               	clrf	(___flmul@grs+2)^(0+1280),c
  6801   005A44  6A21               	clrf	(___flmul@grs+3)^(0+1280),c
  6802   005A46  5029               	movf	(___flmul@temp+1)^(0+1280),w,c
  6803   005A48  6E24               	movwf	___flmul@prod^(0+1280),c
  6804   005A4A  6A25               	clrf	(___flmul@prod+1)^(0+1280),c
  6805   005A4C  6A26               	clrf	(___flmul@prod+2)^(0+1280),c
  6806   005A4E  6A27               	clrf	(___flmul@prod+3)^(0+1280),c
  6807   005A50  5016               	movf	(___flmul@a+1)^(0+1280),w,c
  6808   005A52  0212               	mulwf	(___flmul@b+1)^(0+1280),c
  6809   005A54  C4F3 F528          	movff	prodl,___flmul@temp
  6810   005A58  C4F4 F529          	movff	prodh,___flmul@temp+1
  6811   005A5C  5028               	movf	___flmul@temp^(0+1280),w,c
  6812   005A5E  261E               	addwf	___flmul@grs^(0+1280),f,c
  6813   005A60  0E00               	movlw	0
  6814   005A62  221F               	addwfc	(___flmul@grs+1)^(0+1280),f,c
  6815   005A64  2220               	addwfc	(___flmul@grs+2)^(0+1280),f,c
  6816   005A66  2221               	addwfc	(___flmul@grs+3)^(0+1280),f,c
  6817   005A68  5029               	movf	(___flmul@temp+1)^(0+1280),w,c
  6818   005A6A  2624               	addwf	___flmul@prod^(0+1280),f,c
  6819   005A6C  0E00               	movlw	0
  6820   005A6E  2225               	addwfc	(___flmul@prod+1)^(0+1280),f,c
  6821   005A70  2226               	addwfc	(___flmul@prod+2)^(0+1280),f,c
  6822   005A72  2227               	addwfc	(___flmul@prod+3)^(0+1280),f,c
  6823   005A74  5015               	movf	___flmul@a^(0+1280),w,c
  6824   005A76  0213               	mulwf	(___flmul@b+2)^(0+1280),c
  6825   005A78  C4F3 F528          	movff	prodl,___flmul@temp
  6826   005A7C  C4F4 F529          	movff	prodh,___flmul@temp+1
  6827   005A80  5028               	movf	___flmul@temp^(0+1280),w,c
  6828   005A82  261E               	addwf	___flmul@grs^(0+1280),f,c
  6829   005A84  0E00               	movlw	0
  6830   005A86  221F               	addwfc	(___flmul@grs+1)^(0+1280),f,c
  6831   005A88  2220               	addwfc	(___flmul@grs+2)^(0+1280),f,c
  6832   005A8A  2221               	addwfc	(___flmul@grs+3)^(0+1280),f,c
  6833   005A8C  5029               	movf	(___flmul@temp+1)^(0+1280),w,c
  6834   005A8E  2624               	addwf	___flmul@prod^(0+1280),f,c
  6835   005A90  0E00               	movlw	0
  6836   005A92  2225               	addwfc	(___flmul@prod+1)^(0+1280),f,c
  6837   005A94  2226               	addwfc	(___flmul@prod+2)^(0+1280),f,c
  6838   005A96  2227               	addwfc	(___flmul@prod+3)^(0+1280),f,c
  6839   005A98  C520  F521         	movff	___flmul@grs+2,___flmul@grs+3
  6840   005A9C  C51F  F520         	movff	___flmul@grs+1,___flmul@grs+2
  6841   005AA0  C51E  F51F         	movff	___flmul@grs,___flmul@grs+1
  6842   005AA4  6A1E               	clrf	___flmul@grs^(0+1280),c
  6843   005AA6  5015               	movf	___flmul@a^(0+1280),w,c
  6844   005AA8  0212               	mulwf	(___flmul@b+1)^(0+1280),c
  6845   005AAA  C4F3 F528          	movff	prodl,___flmul@temp
  6846   005AAE  C4F4 F529          	movff	prodh,___flmul@temp+1
  6847   005AB2  5028               	movf	___flmul@temp^(0+1280),w,c
  6848   005AB4  261E               	addwf	___flmul@grs^(0+1280),f,c
  6849   005AB6  5029               	movf	(___flmul@temp+1)^(0+1280),w,c
  6850   005AB8  221F               	addwfc	(___flmul@grs+1)^(0+1280),f,c
  6851   005ABA  0E00               	movlw	0
  6852   005ABC  2220               	addwfc	(___flmul@grs+2)^(0+1280),f,c
  6853   005ABE  0E00               	movlw	0
  6854   005AC0  2221               	addwfc	(___flmul@grs+3)^(0+1280),f,c
  6855   005AC2  5016               	movf	(___flmul@a+1)^(0+1280),w,c
  6856   005AC4  0211               	mulwf	___flmul@b^(0+1280),c
  6857   005AC6  C4F3 F528          	movff	prodl,___flmul@temp
  6858   005ACA  C4F4 F529          	movff	prodh,___flmul@temp+1
  6859   005ACE  5028               	movf	___flmul@temp^(0+1280),w,c
  6860   005AD0  261E               	addwf	___flmul@grs^(0+1280),f,c
  6861   005AD2  5029               	movf	(___flmul@temp+1)^(0+1280),w,c
  6862   005AD4  221F               	addwfc	(___flmul@grs+1)^(0+1280),f,c
  6863   005AD6  0E00               	movlw	0
  6864   005AD8  2220               	addwfc	(___flmul@grs+2)^(0+1280),f,c
  6865   005ADA  0E00               	movlw	0
  6866   005ADC  2221               	addwfc	(___flmul@grs+3)^(0+1280),f,c
  6867   005ADE  C520  F521         	movff	___flmul@grs+2,___flmul@grs+3
  6868   005AE2  C51F  F520         	movff	___flmul@grs+1,___flmul@grs+2
  6869   005AE6  C51E  F51F         	movff	___flmul@grs,___flmul@grs+1
  6870   005AEA  6A1E               	clrf	___flmul@grs^(0+1280),c
  6871   005AEC  5015               	movf	___flmul@a^(0+1280),w,c
  6872   005AEE  0211               	mulwf	___flmul@b^(0+1280),c
  6873   005AF0  C4F3 F528          	movff	prodl,___flmul@temp
  6874   005AF4  C4F4 F529          	movff	prodh,___flmul@temp+1
  6875   005AF8  5028               	movf	___flmul@temp^(0+1280),w,c
  6876   005AFA  261E               	addwf	___flmul@grs^(0+1280),f,c
  6877   005AFC  5029               	movf	(___flmul@temp+1)^(0+1280),w,c
  6878   005AFE  221F               	addwfc	(___flmul@grs+1)^(0+1280),f,c
  6879   005B00  0E00               	movlw	0
  6880   005B02  2220               	addwfc	(___flmul@grs+2)^(0+1280),f,c
  6881   005B04  0E00               	movlw	0
  6882   005B06  2221               	addwfc	(___flmul@grs+3)^(0+1280),f,c
  6883   005B08  5017               	movf	(___flmul@a+2)^(0+1280),w,c
  6884   005B0A  0212               	mulwf	(___flmul@b+1)^(0+1280),c
  6885   005B0C  C4F3 F528          	movff	prodl,___flmul@temp
  6886   005B10  C4F4 F529          	movff	prodh,___flmul@temp+1
  6887   005B14  5028               	movf	___flmul@temp^(0+1280),w,c
  6888   005B16  2624               	addwf	___flmul@prod^(0+1280),f,c
  6889   005B18  5029               	movf	(___flmul@temp+1)^(0+1280),w,c
  6890   005B1A  2225               	addwfc	(___flmul@prod+1)^(0+1280),f,c
  6891   005B1C  0E00               	movlw	0
  6892   005B1E  2226               	addwfc	(___flmul@prod+2)^(0+1280),f,c
  6893   005B20  0E00               	movlw	0
  6894   005B22  2227               	addwfc	(___flmul@prod+3)^(0+1280),f,c
  6895   005B24  5016               	movf	(___flmul@a+1)^(0+1280),w,c
  6896   005B26  0213               	mulwf	(___flmul@b+2)^(0+1280),c
  6897   005B28  C4F3 F528          	movff	prodl,___flmul@temp
  6898   005B2C  C4F4 F529          	movff	prodh,___flmul@temp+1
  6899   005B30  5028               	movf	___flmul@temp^(0+1280),w,c
  6900   005B32  2624               	addwf	___flmul@prod^(0+1280),f,c
  6901   005B34  5029               	movf	(___flmul@temp+1)^(0+1280),w,c
  6902   005B36  2225               	addwfc	(___flmul@prod+1)^(0+1280),f,c
  6903   005B38  0E00               	movlw	0
  6904   005B3A  2226               	addwfc	(___flmul@prod+2)^(0+1280),f,c
  6905   005B3C  0E00               	movlw	0
  6906   005B3E  2227               	addwfc	(___flmul@prod+3)^(0+1280),f,c
  6907   005B40  5017               	movf	(___flmul@a+2)^(0+1280),w,c
  6908   005B42  0213               	mulwf	(___flmul@b+2)^(0+1280),c
  6909   005B44  C4F3 F528          	movff	prodl,___flmul@temp
  6910   005B48  C4F4 F529          	movff	prodh,___flmul@temp+1
  6911   005B4C  5028               	movf	___flmul@temp^(0+1280),w,c
  6912   005B4E  6E19               	movwf	??___flmul^(0+1280),c
  6913   005B50  5029               	movf	(___flmul@temp+1)^(0+1280),w,c
  6914   005B52  6E1A               	movwf	(??___flmul+1)^(0+1280),c
  6915   005B54  6A1B               	clrf	(??___flmul+2)^(0+1280),c
  6916   005B56  6A1C               	clrf	(??___flmul+3)^(0+1280),c
  6917   005B58  C51B  F51C         	movff	??___flmul+2,??___flmul+3
  6918   005B5C  C51A  F51B         	movff	??___flmul+1,??___flmul+2
  6919   005B60  C519  F51A         	movff	??___flmul,??___flmul+1
  6920   005B64  6A19               	clrf	??___flmul^(0+1280),c
  6921   005B66  5019               	movf	??___flmul^(0+1280),w,c
  6922   005B68  2624               	addwf	___flmul@prod^(0+1280),f,c
  6923   005B6A  501A               	movf	(??___flmul+1)^(0+1280),w,c
  6924   005B6C  2225               	addwfc	(___flmul@prod+1)^(0+1280),f,c
  6925   005B6E  501B               	movf	(??___flmul+2)^(0+1280),w,c
  6926   005B70  2226               	addwfc	(___flmul@prod+2)^(0+1280),f,c
  6927   005B72  501C               	movf	(??___flmul+3)^(0+1280),w,c
  6928   005B74  2227               	addwfc	(___flmul@prod+3)^(0+1280),f,c
  6929   005B76  C51E  F519         	movff	___flmul@grs,??___flmul
  6930   005B7A  C51F  F51A         	movff	___flmul@grs+1,??___flmul+1
  6931   005B7E  C520  F51B         	movff	___flmul@grs+2,??___flmul+2
  6932   005B82  C521  F51C         	movff	___flmul@grs+3,??___flmul+3
  6933   005B86  0E19               	movlw	25
  6934   005B88  EFCB  F02D         	goto	u2530
  6935   005B8C                     u2535:
  6936   005B8C  90D8               	bcf	status,0,c
  6937   005B8E  321C               	rrcf	(??___flmul+3)^(0+1280),f,c
  6938   005B90  321B               	rrcf	(??___flmul+2)^(0+1280),f,c
  6939   005B92  321A               	rrcf	(??___flmul+1)^(0+1280),f,c
  6940   005B94  3219               	rrcf	??___flmul^(0+1280),f,c
  6941   005B96                     u2530:
  6942   005B96  2EE8               	decfsz	wreg,f,c
  6943   005B98  EFC6  F02D         	goto	u2535
  6944   005B9C  5019               	movf	??___flmul^(0+1280),w,c
  6945   005B9E  2624               	addwf	___flmul@prod^(0+1280),f,c
  6946   005BA0  501A               	movf	(??___flmul+1)^(0+1280),w,c
  6947   005BA2  2225               	addwfc	(___flmul@prod+1)^(0+1280),f,c
  6948   005BA4  501B               	movf	(??___flmul+2)^(0+1280),w,c
  6949   005BA6  2226               	addwfc	(___flmul@prod+2)^(0+1280),f,c
  6950   005BA8  501C               	movf	(??___flmul+3)^(0+1280),w,c
  6951   005BAA  2227               	addwfc	(___flmul@prod+3)^(0+1280),f,c
  6952   005BAC  C520  F521         	movff	___flmul@grs+2,___flmul@grs+3
  6953   005BB0  C51F  F520         	movff	___flmul@grs+1,___flmul@grs+2
  6954   005BB4  C51E  F51F         	movff	___flmul@grs,___flmul@grs+1
  6955   005BB8  6A1E               	clrf	___flmul@grs^(0+1280),c
  6956   005BBA  5022               	movf	___flmul@aexp^(0+1280),w,c
  6957   005BBC  C523  F519         	movff	___flmul@bexp,??___flmul
  6958   005BC0  6A1A               	clrf	(??___flmul+1)^(0+1280),c
  6959   005BC2  2619               	addwf	??___flmul^(0+1280),f,c
  6960   005BC4  0E00               	movlw	0
  6961   005BC6  221A               	addwfc	(??___flmul+1)^(0+1280),f,c
  6962   005BC8  0E82               	movlw	130
  6963   005BCA  2419               	addwf	??___flmul^(0+1280),w,c
  6964   005BCC  6E28               	movwf	___flmul@temp^(0+1280),c
  6965   005BCE  0EFF               	movlw	255
  6966   005BD0  201A               	addwfc	(??___flmul+1)^(0+1280),w,c
  6967   005BD2  6E29               	movwf	(___flmul@temp+1)^(0+1280),c
  6968   005BD4  EF01  F02E         	goto	l3067
  6969   005BD8                     l3061:
  6970   005BD8  90D8               	bcf	status,0,c
  6971   005BDA  3624               	rlcf	___flmul@prod^(0+1280),f,c
  6972   005BDC  3625               	rlcf	(___flmul@prod+1)^(0+1280),f,c
  6973   005BDE  3626               	rlcf	(___flmul@prod+2)^(0+1280),f,c
  6974   005BE0  3627               	rlcf	(___flmul@prod+3)^(0+1280),f,c
  6975   005BE2  AE21               	btfss	(___flmul@grs+3)^(0+1280),7,c
  6976   005BE4  EFF6  F02D         	goto	u2541
  6977   005BE8  EFF8  F02D         	goto	u2540
  6978   005BEC                     u2541:
  6979   005BEC  EFF9  F02D         	goto	l1052
  6980   005BF0                     u2540:
  6981   005BF0  8024               	bsf	___flmul@prod^(0+1280),0,c
  6982   005BF2                     l1052:
  6983   005BF2  90D8               	bcf	status,0,c
  6984   005BF4  361E               	rlcf	___flmul@grs^(0+1280),f,c
  6985   005BF6  361F               	rlcf	(___flmul@grs+1)^(0+1280),f,c
  6986   005BF8  3620               	rlcf	(___flmul@grs+2)^(0+1280),f,c
  6987   005BFA  3621               	rlcf	(___flmul@grs+3)^(0+1280),f,c
  6988   005BFC  0628               	decf	___flmul@temp^(0+1280),f,c
  6989   005BFE  A0D8               	btfss	status,0,c
  6990   005C00  0629               	decf	(___flmul@temp+1)^(0+1280),f,c
  6991   005C02                     l3067:
  6992   005C02  AE26               	btfss	(___flmul@prod+2)^(0+1280),7,c
  6993   005C04  EF06  F02E         	goto	u2551
  6994   005C08  EF08  F02E         	goto	u2550
  6995   005C0C                     u2551:
  6996   005C0C  EFEC  F02D         	goto	l3061
  6997   005C10                     u2550:
  6998   005C10  0E00               	movlw	0
  6999   005C12  6E22               	movwf	___flmul@aexp^(0+1280),c
  7000   005C14  AE21               	btfss	(___flmul@grs+3)^(0+1280),7,c
  7001   005C16  EF0F  F02E         	goto	u2561
  7002   005C1A  EF11  F02E         	goto	u2560
  7003   005C1E                     u2561:
  7004   005C1E  EF35  F02E         	goto	l1054
  7005   005C22                     u2560:
  7006   005C22  0EFF               	movlw	255
  7007   005C24  141E               	andwf	___flmul@grs^(0+1280),w,c
  7008   005C26  6E19               	movwf	??___flmul^(0+1280),c
  7009   005C28  0EFF               	movlw	255
  7010   005C2A  141F               	andwf	(___flmul@grs+1)^(0+1280),w,c
  7011   005C2C  6E1A               	movwf	(??___flmul+1)^(0+1280),c
  7012   005C2E  0EFF               	movlw	255
  7013   005C30  1420               	andwf	(___flmul@grs+2)^(0+1280),w,c
  7014   005C32  6E1B               	movwf	(??___flmul+2)^(0+1280),c
  7015   005C34  0E7F               	movlw	127
  7016   005C36  1421               	andwf	(___flmul@grs+3)^(0+1280),w,c
  7017   005C38  6E1C               	movwf	(??___flmul+3)^(0+1280),c
  7018   005C3A  5019               	movf	??___flmul^(0+1280),w,c
  7019   005C3C  101A               	iorwf	(??___flmul+1)^(0+1280),w,c
  7020   005C3E  101B               	iorwf	(??___flmul+2)^(0+1280),w,c
  7021   005C40  101C               	iorwf	(??___flmul+3)^(0+1280),w,c
  7022   005C42  B4D8               	btfsc	status,2,c
  7023   005C44  EF26  F02E         	goto	u2571
  7024   005C48  EF28  F02E         	goto	u2570
  7025   005C4C                     u2571:
  7026   005C4C  EF2C  F02E         	goto	l1055
  7027   005C50                     u2570:
  7028   005C50                     l3075:
  7029   005C50  0E01               	movlw	1
  7030   005C52  6E22               	movwf	___flmul@aexp^(0+1280),c
  7031   005C54  EF35  F02E         	goto	l1054
  7032   005C58                     l1055:
  7033   005C58  A024               	btfss	___flmul@prod^(0+1280),0,c
  7034   005C5A  EF31  F02E         	goto	u2581
  7035   005C5E  EF33  F02E         	goto	u2580
  7036   005C62                     u2581:
  7037   005C62  EF35  F02E         	goto	l1054
  7038   005C66                     u2580:
  7039   005C66  EF28  F02E         	goto	l3075
  7040   005C6A                     l1054:
  7041   005C6A  5022               	movf	___flmul@aexp^(0+1280),w,c
  7042   005C6C  B4D8               	btfsc	status,2,c
  7043   005C6E  EF3B  F02E         	goto	u2591
  7044   005C72  EF3D  F02E         	goto	u2590
  7045   005C76                     u2591:
  7046   005C76  EF61  F02E         	goto	l3087
  7047   005C7A                     u2590:
  7048   005C7A  0E01               	movlw	1
  7049   005C7C  2624               	addwf	___flmul@prod^(0+1280),f,c
  7050   005C7E  0E00               	movlw	0
  7051   005C80  2225               	addwfc	(___flmul@prod+1)^(0+1280),f,c
  7052   005C82  2226               	addwfc	(___flmul@prod+2)^(0+1280),f,c
  7053   005C84  2227               	addwfc	(___flmul@prod+3)^(0+1280),f,c
  7054   005C86  A027               	btfss	(___flmul@prod+3)^(0+1280),0,c
  7055   005C88  EF48  F02E         	goto	u2601
  7056   005C8C  EF4A  F02E         	goto	u2600
  7057   005C90                     u2601:
  7058   005C90  EF61  F02E         	goto	l3087
  7059   005C94                     u2600:
  7060   005C94  C524  F519         	movff	___flmul@prod,??___flmul
  7061   005C98  C525  F51A         	movff	___flmul@prod+1,??___flmul+1
  7062   005C9C  C526  F51B         	movff	___flmul@prod+2,??___flmul+2
  7063   005CA0  C527  F51C         	movff	___flmul@prod+3,??___flmul+3
  7064   005CA4  341C               	rlcf	(??___flmul+3)^(0+1280),w,c
  7065   005CA6  321C               	rrcf	(??___flmul+3)^(0+1280),f,c
  7066   005CA8  321B               	rrcf	(??___flmul+2)^(0+1280),f,c
  7067   005CAA  321A               	rrcf	(??___flmul+1)^(0+1280),f,c
  7068   005CAC  3219               	rrcf	??___flmul^(0+1280),f,c
  7069   005CAE  C519  F524         	movff	??___flmul,___flmul@prod
  7070   005CB2  C51A  F525         	movff	??___flmul+1,___flmul@prod+1
  7071   005CB6  C51B  F526         	movff	??___flmul+2,___flmul@prod+2
  7072   005CBA  C51C  F527         	movff	??___flmul+3,___flmul@prod+3
  7073   005CBE  4A28               	infsnz	___flmul@temp^(0+1280),f,c
  7074   005CC0  2A29               	incf	(___flmul@temp+1)^(0+1280),f,c
  7075   005CC2                     l3087:
  7076   005CC2  BE29               	btfsc	(___flmul@temp+1)^(0+1280),7,c
  7077   005CC4  EF6C  F02E         	goto	u2611
  7078   005CC8  5029               	movf	(___flmul@temp+1)^(0+1280),w,c
  7079   005CCA  E108               	bnz	u2610
  7080   005CCC  2828               	incf	___flmul@temp^(0+1280),w,c
  7081   005CCE  A0D8               	btfss	status,0,c
  7082   005CD0  EF6C  F02E         	goto	u2611
  7083   005CD4  EF6E  F02E         	goto	u2610
  7084   005CD8                     u2611:
  7085   005CD8  EF78  F02E         	goto	l3091
  7086   005CDC                     u2610:
  7087   005CDC  0E00               	movlw	0
  7088   005CDE  6E24               	movwf	___flmul@prod^(0+1280),c
  7089   005CE0  0E00               	movlw	0
  7090   005CE2  6E25               	movwf	(___flmul@prod+1)^(0+1280),c
  7091   005CE4  0E80               	movlw	128
  7092   005CE6  6E26               	movwf	(___flmul@prod+2)^(0+1280),c
  7093   005CE8  0E7F               	movlw	127
  7094   005CEA  6E27               	movwf	(___flmul@prod+3)^(0+1280),c
  7095   005CEC  EFA6  F02E         	goto	l3103
  7096   005CF0                     l3091:
  7097   005CF0  BE29               	btfsc	(___flmul@temp+1)^(0+1280),7,c
  7098   005CF2  EF85  F02E         	goto	u2620
  7099   005CF6  5029               	movf	(___flmul@temp+1)^(0+1280),w,c
  7100   005CF8  E106               	bnz	u2621
  7101   005CFA  0428               	decf	___flmul@temp^(0+1280),w,c
  7102   005CFC  B0D8               	btfsc	status,0,c
  7103   005CFE  EF83  F02E         	goto	u2621
  7104   005D02  EF85  F02E         	goto	u2620
  7105   005D06                     u2621:
  7106   005D06  EF91  F02E         	goto	l1062
  7107   005D0A                     u2620:
  7108   005D0A  0E00               	movlw	0
  7109   005D0C  6E24               	movwf	___flmul@prod^(0+1280),c
  7110   005D0E  0E00               	movlw	0
  7111   005D10  6E25               	movwf	(___flmul@prod+1)^(0+1280),c
  7112   005D12  0E00               	movlw	0
  7113   005D14  6E26               	movwf	(___flmul@prod+2)^(0+1280),c
  7114   005D16  0E00               	movlw	0
  7115   005D18  6E27               	movwf	(___flmul@prod+3)^(0+1280),c
  7116   005D1A  0E00               	movlw	0
  7117   005D1C  6E1D               	movwf	___flmul@sign^(0+1280),c
  7118   005D1E  EFA6  F02E         	goto	l3103
  7119   005D22                     l1062:
  7120   005D22  C528  F523         	movff	___flmul@temp,___flmul@bexp
  7121   005D26  0EFF               	movlw	255
  7122   005D28  1624               	andwf	___flmul@prod^(0+1280),f,c
  7123   005D2A  0EFF               	movlw	255
  7124   005D2C  1625               	andwf	(___flmul@prod+1)^(0+1280),f,c
  7125   005D2E  0E7F               	movlw	127
  7126   005D30  1626               	andwf	(___flmul@prod+2)^(0+1280),f,c
  7127   005D32  0E00               	movlw	0
  7128   005D34  1627               	andwf	(___flmul@prod+3)^(0+1280),f,c
  7129   005D36  A023               	btfss	___flmul@bexp^(0+1280),0,c
  7130   005D38  EFA0  F02E         	goto	u2631
  7131   005D3C  EFA2  F02E         	goto	u2630
  7132   005D40                     u2631:
  7133   005D40  EFA3  F02E         	goto	l3101
  7134   005D44                     u2630:
  7135   005D44  8E26               	bsf	(___flmul@prod+2)^(0+1280),7,c
  7136   005D46                     l3101:
  7137   005D46  90D8               	bcf	status,0,c
  7138   005D48  3023               	rrcf	___flmul@bexp^(0+1280),w,c
  7139   005D4A  6E27               	movwf	(___flmul@prod+3)^(0+1280),c
  7140   005D4C                     l3103:
  7141   005D4C  501D               	movf	___flmul@sign^(0+1280),w,c
  7142   005D4E  1227               	iorwf	(___flmul@prod+3)^(0+1280),f,c
  7143   005D50  C524  F511         	movff	___flmul@prod,?___flmul
  7144   005D54  C525  F512         	movff	___flmul@prod+1,?___flmul+1
  7145   005D58  C526  F513         	movff	___flmul@prod+2,?___flmul+2
  7146   005D5C  C527  F514         	movff	___flmul@prod+3,?___flmul+3
  7147   005D60                     l1049:
  7148   005D60  0012               	return		;funcret
  7149   005D62                     __end_of___flmul:
  7150                           	callstack 0
  7151                           
  7152 ;; *************** function _fabsf *****************
  7153 ;; Defined at:
  7154 ;;		line 4 in file "C:\Program Files\Microchip\xc8\v2.40\pic\sources\c99\common\fabsf.c"
  7155 ;; Parameters:    Size  Location     Type
  7156 ;;  x               4    0[COMRAM] float 
  7157 ;; Auto vars:     Size  Location     Type
  7158 ;;  u               4    4[COMRAM] struct .
  7159 ;; Return value:  Size  Location     Type
  7160 ;;                  4    0[COMRAM] float 
  7161 ;; Registers used:
  7162 ;;		status,2, status,0
  7163 ;; Tracked objects:
  7164 ;;		On entry : 0/0
  7165 ;;		On exit  : 0/0
  7166 ;;		Unchanged: 0/0
  7167 ;; Data sizes:     COMRAM   BANK5   BANK6   BANK7   BANK8   BANK9  BANK10  BANK11  BANK12  BANK13  BANK14  BANK15  BANK1
      +6  BANK17  BANK18  BANK19  BANK20  BANK21  BANK22  BANK23  BANK24  BANK25  BANK26  BANK27  BANK28  BANK29  BANK30  BANK3
      +1  BANK32  BANK33  BANK34  BANK35  BANK36
  7168 ;;      Params:         4       0       0       0       0       0       0       0       0       0       0       0       
      +0       0       0       0       0       0       0       0       0       0       0       0       0       0       0       
      +0       0       0       0       0       0
  7169 ;;      Locals:         4       0       0       0       0       0       0       0       0       0       0       0       
      +0       0       0       0       0       0       0       0       0       0       0       0       0       0       0       
      +0       0       0       0       0       0
  7170 ;;      Temps:          0       0       0       0       0       0       0       0       0       0       0       0       
      +0       0       0       0       0       0       0       0       0       0       0       0       0       0       0       
      +0       0       0       0       0       0
  7171 ;;      Totals:         8       0       0       0       0       0       0       0       0       0       0       0       
      +0       0       0       0       0       0       0       0       0       0       0       0       0       0       0       
      +0       0       0       0       0       0
  7172 ;;Total ram usage:        8 bytes
  7173 ;; Hardware stack levels used: 1
  7174 ;; Hardware stack levels required when called: 2
  7175 ;; This function calls:
  7176 ;;		Nothing
  7177 ;; This function is called by:
  7178 ;;		_powf
  7179 ;; This function uses a non-reentrant model
  7180 ;;
  7181                           
  7182                           	psect	text12
  7183   006AE8                     __ptext12:
  7184                           	callstack 0
  7185   006AE8                     _fabsf:
  7186                           	callstack 123
  7187   006AE8  C5A0  F505         	movff	fabsf@F465,fabsf@u
  7188   006AEC  C5A1  F506         	movff	fabsf@F465+1,fabsf@u+1
  7189   006AF0  C5A2  F507         	movff	fabsf@F465+2,fabsf@u+2
  7190   006AF4  C5A3  F508         	movff	fabsf@F465+3,fabsf@u+3
  7191   006AF8  C501  F505         	movff	fabsf@x,fabsf@u
  7192   006AFC  C502  F506         	movff	fabsf@x+1,fabsf@u+1
  7193   006B00  C503  F507         	movff	fabsf@x+2,fabsf@u+2
  7194   006B04  C504  F508         	movff	fabsf@x+3,fabsf@u+3
  7195   006B08  9E08               	bcf	(fabsf@u+3)^(0+1280),7,c
  7196   006B0A  C505  F501         	movff	fabsf@u,?_fabsf
  7197   006B0E  C506  F502         	movff	fabsf@u+1,?_fabsf+1
  7198   006B12  C507  F503         	movff	fabsf@u+2,?_fabsf+2
  7199   006B16  C508  F504         	movff	fabsf@u+3,?_fabsf+3
  7200   006B1A  0012               	return		;funcret
  7201   006B1C                     __end_of_fabsf:
  7202                           	callstack 0
  7203                           
  7204 ;; *************** function ___xxtofl *****************
  7205 ;; Defined at:
  7206 ;;		line 10 in file "C:\Program Files\Microchip\xc8\v2.40\pic\sources\c99\common\xxtofl.c"
  7207 ;; Parameters:    Size  Location     Type
  7208 ;;  sign            1    wreg     unsigned char 
  7209 ;;  val             4    0[COMRAM] long 
  7210 ;; Auto vars:     Size  Location     Type
  7211 ;;  sign            1    8[COMRAM] unsigned char 
  7212 ;;  arg             4   10[COMRAM] unsigned long 
  7213 ;;  exp             1    9[COMRAM] unsigned char 
  7214 ;; Return value:  Size  Location     Type
  7215 ;;                  4    0[COMRAM] unsigned char 
  7216 ;; Registers used:
  7217 ;;		wreg, status,2, status,0
  7218 ;; Tracked objects:
  7219 ;;		On entry : 0/0
  7220 ;;		On exit  : 0/0
  7221 ;;		Unchanged: 0/0
  7222 ;; Data sizes:     COMRAM   BANK5   BANK6   BANK7   BANK8   BANK9  BANK10  BANK11  BANK12  BANK13  BANK14  BANK15  BANK1
      +6  BANK17  BANK18  BANK19  BANK20  BANK21  BANK22  BANK23  BANK24  BANK25  BANK26  BANK27  BANK28  BANK29  BANK30  BANK3
      +1  BANK32  BANK33  BANK34  BANK35  BANK36
  7223 ;;      Params:         4       0       0       0       0       0       0       0       0       0       0       0       
      +0       0       0       0       0       0       0       0       0       0       0       0       0       0       0       
      +0       0       0       0       0       0
  7224 ;;      Locals:         6       0       0       0       0       0       0       0       0       0       0       0       
      +0       0       0       0       0       0       0       0       0       0       0       0       0       0       0       
      +0       0       0       0       0       0
  7225 ;;      Temps:          4       0       0       0       0       0       0       0       0       0       0       0       
      +0       0       0       0       0       0       0       0       0       0       0       0       0       0       0       
      +0       0       0       0       0       0
  7226 ;;      Totals:        14       0       0       0       0       0       0       0       0       0       0       0       
      +0       0       0       0       0       0       0       0       0       0       0       0       0       0       0       
      +0       0       0       0       0       0
  7227 ;;Total ram usage:       14 bytes
  7228 ;; Hardware stack levels used: 1
  7229 ;; Hardware stack levels required when called: 2
  7230 ;; This function calls:
  7231 ;;		Nothing
  7232 ;; This function is called by:
  7233 ;;		_main
  7234 ;;		_powf
  7235 ;; This function uses a non-reentrant model
  7236 ;;
  7237                           
  7238                           	psect	text13
  7239   006330                     __ptext13:
  7240                           	callstack 0
  7241   006330                     ___xxtofl:
  7242                           	callstack 123
  7243                           
  7244                           ;incstack = 0
  7245                           ;___xxtofl@sign stored from wreg
  7246   006330  6E09               	movwf	___xxtofl@sign^(0+1280),c
  7247   006332  5009               	movf	___xxtofl@sign^(0+1280),w,c
  7248   006334  B4D8               	btfsc	status,2,c
  7249   006336  EF9F  F031         	goto	u2961
  7250   00633A  EFA1  F031         	goto	u2960
  7251   00633E                     u2961:
  7252   00633E  EFC3  F031         	goto	l1086
  7253   006342                     u2960:
  7254   006342  BE04               	btfsc	(___xxtofl@val+3)^(0+1280),7,c
  7255   006344  EFA8  F031         	goto	u2970
  7256   006348  EFA6  F031         	goto	u2971
  7257   00634C                     u2971:
  7258   00634C  EFC3  F031         	goto	l1086
  7259   006350                     u2970:
  7260   006350  C501  F505         	movff	___xxtofl@val,??___xxtofl
  7261   006354  C502  F506         	movff	___xxtofl@val+1,??___xxtofl+1
  7262   006358  C503  F507         	movff	___xxtofl@val+2,??___xxtofl+2
  7263   00635C  C504  F508         	movff	___xxtofl@val+3,??___xxtofl+3
  7264   006360  1E05               	comf	??___xxtofl^(0+1280),f,c
  7265   006362  1E06               	comf	(??___xxtofl+1)^(0+1280),f,c
  7266   006364  1E07               	comf	(??___xxtofl+2)^(0+1280),f,c
  7267   006366  1E08               	comf	(??___xxtofl+3)^(0+1280),f,c
  7268   006368  2A05               	incf	??___xxtofl^(0+1280),f,c
  7269   00636A  0E00               	movlw	0
  7270   00636C  2206               	addwfc	(??___xxtofl+1)^(0+1280),f,c
  7271   00636E  2207               	addwfc	(??___xxtofl+2)^(0+1280),f,c
  7272   006370  2208               	addwfc	(??___xxtofl+3)^(0+1280),f,c
  7273   006372  C505  F50B         	movff	??___xxtofl,___xxtofl@arg
  7274   006376  C506  F50C         	movff	??___xxtofl+1,___xxtofl@arg+1
  7275   00637A  C507  F50D         	movff	??___xxtofl+2,___xxtofl@arg+2
  7276   00637E  C508  F50E         	movff	??___xxtofl+3,___xxtofl@arg+3
  7277   006382  EFCB  F031         	goto	l3371
  7278   006386                     l1086:
  7279   006386  C501  F50B         	movff	___xxtofl@val,___xxtofl@arg
  7280   00638A  C502  F50C         	movff	___xxtofl@val+1,___xxtofl@arg+1
  7281   00638E  C503  F50D         	movff	___xxtofl@val+2,___xxtofl@arg+2
  7282   006392  C504  F50E         	movff	___xxtofl@val+3,___xxtofl@arg+3
  7283   006396                     l3371:
  7284   006396  5001               	movf	___xxtofl@val^(0+1280),w,c
  7285   006398  1002               	iorwf	(___xxtofl@val+1)^(0+1280),w,c
  7286   00639A  1003               	iorwf	(___xxtofl@val+2)^(0+1280),w,c
  7287   00639C  1004               	iorwf	(___xxtofl@val+3)^(0+1280),w,c
  7288   00639E  A4D8               	btfss	status,2,c
  7289   0063A0  EFD4  F031         	goto	u2981
  7290   0063A4  EFD6  F031         	goto	u2980
  7291   0063A8                     u2981:
  7292   0063A8  EFE0  F031         	goto	l3377
  7293   0063AC                     u2980:
  7294   0063AC  0E00               	movlw	0
  7295   0063AE  6E01               	movwf	?___xxtofl^(0+1280),c
  7296   0063B0  0E00               	movlw	0
  7297   0063B2  6E02               	movwf	(?___xxtofl+1)^(0+1280),c
  7298   0063B4  0E00               	movlw	0
  7299   0063B6  6E03               	movwf	(?___xxtofl+2)^(0+1280),c
  7300   0063B8  0E00               	movlw	0
  7301   0063BA  6E04               	movwf	(?___xxtofl+3)^(0+1280),c
  7302   0063BC  EF71  F032         	goto	l1089
  7303   0063C0                     l3377:
  7304   0063C0  0E96               	movlw	150
  7305   0063C2  6E0A               	movwf	___xxtofl@exp^(0+1280),c
  7306   0063C4  EFEA  F031         	goto	l3381
  7307   0063C8                     l3379:
  7308   0063C8  2A0A               	incf	___xxtofl@exp^(0+1280),f,c
  7309   0063CA  90D8               	bcf	status,0,c
  7310   0063CC  320E               	rrcf	(___xxtofl@arg+3)^(0+1280),f,c
  7311   0063CE  320D               	rrcf	(___xxtofl@arg+2)^(0+1280),f,c
  7312   0063D0  320C               	rrcf	(___xxtofl@arg+1)^(0+1280),f,c
  7313   0063D2  320B               	rrcf	___xxtofl@arg^(0+1280),f,c
  7314   0063D4                     l3381:
  7315   0063D4  0E00               	movlw	0
  7316   0063D6  140B               	andwf	___xxtofl@arg^(0+1280),w,c
  7317   0063D8  6E05               	movwf	??___xxtofl^(0+1280),c
  7318   0063DA  0E00               	movlw	0
  7319   0063DC  140C               	andwf	(___xxtofl@arg+1)^(0+1280),w,c
  7320   0063DE  6E06               	movwf	(??___xxtofl+1)^(0+1280),c
  7321   0063E0  0E00               	movlw	0
  7322   0063E2  140D               	andwf	(___xxtofl@arg+2)^(0+1280),w,c
  7323   0063E4  6E07               	movwf	(??___xxtofl+2)^(0+1280),c
  7324   0063E6  0EFE               	movlw	254
  7325   0063E8  140E               	andwf	(___xxtofl@arg+3)^(0+1280),w,c
  7326   0063EA  6E08               	movwf	(??___xxtofl+3)^(0+1280),c
  7327   0063EC  5005               	movf	??___xxtofl^(0+1280),w,c
  7328   0063EE  1006               	iorwf	(??___xxtofl+1)^(0+1280),w,c
  7329   0063F0  1007               	iorwf	(??___xxtofl+2)^(0+1280),w,c
  7330   0063F2  1008               	iorwf	(??___xxtofl+3)^(0+1280),w,c
  7331   0063F4  A4D8               	btfss	status,2,c
  7332   0063F6  EFFF  F031         	goto	u2991
  7333   0063FA  EF01  F032         	goto	u2990
  7334   0063FE                     u2991:
  7335   0063FE  EFE4  F031         	goto	l3379
  7336   006402                     u2990:
  7337   006402  EF0F  F032         	goto	l1093
  7338   006406                     l3383:
  7339   006406  2A0A               	incf	___xxtofl@exp^(0+1280),f,c
  7340   006408  0E01               	movlw	1
  7341   00640A  260B               	addwf	___xxtofl@arg^(0+1280),f,c
  7342   00640C  0E00               	movlw	0
  7343   00640E  220C               	addwfc	(___xxtofl@arg+1)^(0+1280),f,c
  7344   006410  220D               	addwfc	(___xxtofl@arg+2)^(0+1280),f,c
  7345   006412  220E               	addwfc	(___xxtofl@arg+3)^(0+1280),f,c
  7346   006414  90D8               	bcf	status,0,c
  7347   006416  320E               	rrcf	(___xxtofl@arg+3)^(0+1280),f,c
  7348   006418  320D               	rrcf	(___xxtofl@arg+2)^(0+1280),f,c
  7349   00641A  320C               	rrcf	(___xxtofl@arg+1)^(0+1280),f,c
  7350   00641C  320B               	rrcf	___xxtofl@arg^(0+1280),f,c
  7351   00641E                     l1093:
  7352   00641E  0E00               	movlw	0
  7353   006420  140B               	andwf	___xxtofl@arg^(0+1280),w,c
  7354   006422  6E05               	movwf	??___xxtofl^(0+1280),c
  7355   006424  0E00               	movlw	0
  7356   006426  140C               	andwf	(___xxtofl@arg+1)^(0+1280),w,c
  7357   006428  6E06               	movwf	(??___xxtofl+1)^(0+1280),c
  7358   00642A  0E00               	movlw	0
  7359   00642C  140D               	andwf	(___xxtofl@arg+2)^(0+1280),w,c
  7360   00642E  6E07               	movwf	(??___xxtofl+2)^(0+1280),c
  7361   006430  0EFF               	movlw	255
  7362   006432  140E               	andwf	(___xxtofl@arg+3)^(0+1280),w,c
  7363   006434  6E08               	movwf	(??___xxtofl+3)^(0+1280),c
  7364   006436  5005               	movf	??___xxtofl^(0+1280),w,c
  7365   006438  1006               	iorwf	(??___xxtofl+1)^(0+1280),w,c
  7366   00643A  1007               	iorwf	(??___xxtofl+2)^(0+1280),w,c
  7367   00643C  1008               	iorwf	(??___xxtofl+3)^(0+1280),w,c
  7368   00643E  A4D8               	btfss	status,2,c
  7369   006440  EF24  F032         	goto	u3001
  7370   006444  EF26  F032         	goto	u3000
  7371   006448                     u3001:
  7372   006448  EF03  F032         	goto	l3383
  7373   00644C                     u3000:
  7374   00644C  EF2E  F032         	goto	l3391
  7375   006450                     l3389:
  7376   006450  060A               	decf	___xxtofl@exp^(0+1280),f,c
  7377   006452  90D8               	bcf	status,0,c
  7378   006454  360B               	rlcf	___xxtofl@arg^(0+1280),f,c
  7379   006456  360C               	rlcf	(___xxtofl@arg+1)^(0+1280),f,c
  7380   006458  360D               	rlcf	(___xxtofl@arg+2)^(0+1280),f,c
  7381   00645A  360E               	rlcf	(___xxtofl@arg+3)^(0+1280),f,c
  7382   00645C                     l3391:
  7383   00645C  BE0D               	btfsc	(___xxtofl@arg+2)^(0+1280),7,c
  7384   00645E  EF33  F032         	goto	u3011
  7385   006462  EF35  F032         	goto	u3010
  7386   006466                     u3011:
  7387   006466  EF3D  F032         	goto	l1100
  7388   00646A                     u3010:
  7389   00646A  0E02               	movlw	2
  7390   00646C  600A               	cpfslt	___xxtofl@exp^(0+1280),c
  7391   00646E  EF3B  F032         	goto	u3021
  7392   006472  EF3D  F032         	goto	u3020
  7393   006476                     u3021:
  7394   006476  EF28  F032         	goto	l3389
  7395   00647A                     u3020:
  7396   00647A                     l1100:
  7397   00647A  B00A               	btfsc	___xxtofl@exp^(0+1280),0,c
  7398   00647C  EF42  F032         	goto	u3031
  7399   006480  EF44  F032         	goto	u3030
  7400   006484                     u3031:
  7401   006484  EF45  F032         	goto	l3397
  7402   006488                     u3030:
  7403   006488  9E0D               	bcf	(___xxtofl@arg+2)^(0+1280),7,c
  7404   00648A                     l3397:
  7405   00648A  90D8               	bcf	status,0,c
  7406   00648C  320A               	rrcf	___xxtofl@exp^(0+1280),f,c
  7407   00648E  C50A  F505         	movff	___xxtofl@exp,??___xxtofl
  7408   006492  6A06               	clrf	(??___xxtofl+1)^(0+1280),c
  7409   006494  6A07               	clrf	(??___xxtofl+2)^(0+1280),c
  7410   006496  6A08               	clrf	(??___xxtofl+3)^(0+1280),c
  7411   006498  C505  F508         	movff	??___xxtofl,??___xxtofl+3
  7412   00649C  6A07               	clrf	(??___xxtofl+2)^(0+1280),c
  7413   00649E  6A06               	clrf	(??___xxtofl+1)^(0+1280),c
  7414   0064A0  6A05               	clrf	??___xxtofl^(0+1280),c
  7415   0064A2  5005               	movf	??___xxtofl^(0+1280),w,c
  7416   0064A4  120B               	iorwf	___xxtofl@arg^(0+1280),f,c
  7417   0064A6  5006               	movf	(??___xxtofl+1)^(0+1280),w,c
  7418   0064A8  120C               	iorwf	(___xxtofl@arg+1)^(0+1280),f,c
  7419   0064AA  5007               	movf	(??___xxtofl+2)^(0+1280),w,c
  7420   0064AC  120D               	iorwf	(___xxtofl@arg+2)^(0+1280),f,c
  7421   0064AE  5008               	movf	(??___xxtofl+3)^(0+1280),w,c
  7422   0064B0  120E               	iorwf	(___xxtofl@arg+3)^(0+1280),f,c
  7423   0064B2  5009               	movf	___xxtofl@sign^(0+1280),w,c
  7424   0064B4  B4D8               	btfsc	status,2,c
  7425   0064B6  EF5F  F032         	goto	u3041
  7426   0064BA  EF61  F032         	goto	u3040
  7427   0064BE                     u3041:
  7428   0064BE  EF69  F032         	goto	l3407
  7429   0064C2                     u3040:
  7430   0064C2  BE04               	btfsc	(___xxtofl@val+3)^(0+1280),7,c
  7431   0064C4  EF68  F032         	goto	u3050
  7432   0064C8  EF66  F032         	goto	u3051
  7433   0064CC                     u3051:
  7434   0064CC  EF69  F032         	goto	l3407
  7435   0064D0                     u3050:
  7436   0064D0  8E0E               	bsf	(___xxtofl@arg+3)^(0+1280),7,c
  7437   0064D2                     l3407:
  7438   0064D2  C50B  F501         	movff	___xxtofl@arg,?___xxtofl
  7439   0064D6  C50C  F502         	movff	___xxtofl@arg+1,?___xxtofl+1
  7440   0064DA  C50D  F503         	movff	___xxtofl@arg+2,?___xxtofl+2
  7441   0064DE  C50E  F504         	movff	___xxtofl@arg+3,?___xxtofl+3
  7442   0064E2                     l1089:
  7443   0064E2  0012               	return		;funcret
  7444   0064E4                     __end_of___xxtofl:
  7445                           	callstack 0
  7446                           
  7447 ;; *************** function ___flsub *****************
  7448 ;; Defined at:
  7449 ;;		line 245 in file "C:\Program Files\Microchip\xc8\v2.40\pic\sources\c99\common\sprcadd.c"
  7450 ;; Parameters:    Size  Location     Type
  7451 ;;  b               4   41[COMRAM] unsigned char 
  7452 ;;  a               4   45[COMRAM] unsigned char 
  7453 ;; Auto vars:     Size  Location     Type
  7454 ;;		None
  7455 ;; Return value:  Size  Location     Type
  7456 ;;                  4   41[COMRAM] unsigned char 
  7457 ;; Registers used:
  7458 ;;		wreg, status,2, status,0, cstack
  7459 ;; Tracked objects:
  7460 ;;		On entry : 0/0
  7461 ;;		On exit  : 0/0
  7462 ;;		Unchanged: 0/0
  7463 ;; Data sizes:     COMRAM   BANK5   BANK6   BANK7   BANK8   BANK9  BANK10  BANK11  BANK12  BANK13  BANK14  BANK15  BANK1
      +6  BANK17  BANK18  BANK19  BANK20  BANK21  BANK22  BANK23  BANK24  BANK25  BANK26  BANK27  BANK28  BANK29  BANK30  BANK3
      +1  BANK32  BANK33  BANK34  BANK35  BANK36
  7464 ;;      Params:         8       0       0       0       0       0       0       0       0       0       0       0       
      +0       0       0       0       0       0       0       0       0       0       0       0       0       0       0       
      +0       0       0       0       0       0
  7465 ;;      Locals:         0       0       0       0       0       0       0       0       0       0       0       0       
      +0       0       0       0       0       0       0       0       0       0       0       0       0       0       0       
      +0       0       0       0       0       0
  7466 ;;      Temps:          0       0       0       0       0       0       0       0       0       0       0       0       
      +0       0       0       0       0       0       0       0       0       0       0       0       0       0       0       
      +0       0       0       0       0       0
  7467 ;;      Totals:         8       0       0       0       0       0       0       0       0       0       0       0       
      +0       0       0       0       0       0       0       0       0       0       0       0       0       0       0       
      +0       0       0       0       0       0
  7468 ;;Total ram usage:        8 bytes
  7469 ;; Hardware stack levels used: 1
  7470 ;; Hardware stack levels required when called: 3
  7471 ;; This function calls:
  7472 ;;		___fladd
  7473 ;; This function is called by:
  7474 ;;		_powf
  7475 ;; This function uses a non-reentrant model
  7476 ;;
  7477                           
  7478                           	psect	text14
  7479   006A2A                     __ptext14:
  7480                           	callstack 0
  7481   006A2A                     ___flsub:
  7482                           	callstack 122
  7483   006A2A  0E00               	movlw	0
  7484   006A2C  1A2E               	xorwf	___flsub@a^(0+1280),f,c
  7485   006A2E  0E00               	movlw	0
  7486   006A30  1A2F               	xorwf	(___flsub@a+1)^(0+1280),f,c
  7487   006A32  0E00               	movlw	0
  7488   006A34  1A30               	xorwf	(___flsub@a+2)^(0+1280),f,c
  7489   006A36  0E80               	movlw	128
  7490   006A38  1A31               	xorwf	(___flsub@a+3)^(0+1280),f,c
  7491   006A3A  C52A  F501         	movff	___flsub@b,___fladd@b
  7492   006A3E  C52B  F502         	movff	___flsub@b+1,___fladd@b+1
  7493   006A42  C52C  F503         	movff	___flsub@b+2,___fladd@b+2
  7494   006A46  C52D  F504         	movff	___flsub@b+3,___fladd@b+3
  7495   006A4A  C52E  F505         	movff	___flsub@a,___fladd@a
  7496   006A4E  C52F  F506         	movff	___flsub@a+1,___fladd@a+1
  7497   006A52  C530  F507         	movff	___flsub@a+2,___fladd@a+2
  7498   006A56  C531  F508         	movff	___flsub@a+3,___fladd@a+3
  7499   006A5A  EC3C  F02A         	call	___fladd	;wreg free
  7500   006A5E  C501  F52A         	movff	?___fladd,?___flsub
  7501   006A62  C502  F52B         	movff	?___fladd+1,?___flsub+1
  7502   006A66  C503  F52C         	movff	?___fladd+2,?___flsub+2
  7503   006A6A  C504  F52D         	movff	?___fladd+3,?___flsub+3
  7504   006A6E  0012               	return		;funcret
  7505   006A70                     __end_of___flsub:
  7506                           	callstack 0
  7507                           
  7508 ;; *************** function ___fladd *****************
  7509 ;; Defined at:
  7510 ;;		line 10 in file "C:\Program Files\Microchip\xc8\v2.40\pic\sources\c99\common\sprcadd.c"
  7511 ;; Parameters:    Size  Location     Type
  7512 ;;  b               4    0[COMRAM] unsigned char 
  7513 ;;  a               4    4[COMRAM] unsigned char 
  7514 ;; Auto vars:     Size  Location     Type
  7515 ;;  grs             1   15[COMRAM] unsigned char 
  7516 ;;  bexp            1   14[COMRAM] unsigned char 
  7517 ;;  aexp            1   13[COMRAM] unsigned char 
  7518 ;;  signs           1   12[COMRAM] unsigned char 
  7519 ;; Return value:  Size  Location     Type
  7520 ;;                  4    0[COMRAM] unsigned char 
  7521 ;; Registers used:
  7522 ;;		wreg, status,2, status,0
  7523 ;; Tracked objects:
  7524 ;;		On entry : 0/0
  7525 ;;		On exit  : 0/0
  7526 ;;		Unchanged: 0/0
  7527 ;; Data sizes:     COMRAM   BANK5   BANK6   BANK7   BANK8   BANK9  BANK10  BANK11  BANK12  BANK13  BANK14  BANK15  BANK1
      +6  BANK17  BANK18  BANK19  BANK20  BANK21  BANK22  BANK23  BANK24  BANK25  BANK26  BANK27  BANK28  BANK29  BANK30  BANK3
      +1  BANK32  BANK33  BANK34  BANK35  BANK36
  7528 ;;      Params:         8       0       0       0       0       0       0       0       0       0       0       0       
      +0       0       0       0       0       0       0       0       0       0       0       0       0       0       0       
      +0       0       0       0       0       0
  7529 ;;      Locals:         4       0       0       0       0       0       0       0       0       0       0       0       
      +0       0       0       0       0       0       0       0       0       0       0       0       0       0       0       
      +0       0       0       0       0       0
  7530 ;;      Temps:          4       0       0       0       0       0       0       0       0       0       0       0       
      +0       0       0       0       0       0       0       0       0       0       0       0       0       0       0       
      +0       0       0       0       0       0
  7531 ;;      Totals:        16       0       0       0       0       0       0       0       0       0       0       0       
      +0       0       0       0       0       0       0       0       0       0       0       0       0       0       0       
      +0       0       0       0       0       0
  7532 ;;Total ram usage:       16 bytes
  7533 ;; Hardware stack levels used: 1
  7534 ;; Hardware stack levels required when called: 2
  7535 ;; This function calls:
  7536 ;;		Nothing
  7537 ;; This function is called by:
  7538 ;;		___flsub
  7539 ;;		_powf
  7540 ;;		_sqrtf
  7541 ;; This function uses a non-reentrant model
  7542 ;;
  7543                           
  7544                           	psect	text15
  7545   005478                     __ptext15:
  7546                           	callstack 0
  7547   005478                     ___fladd:
  7548                           	callstack 122
  7549   005478  5004               	movf	(___fladd@b+3)^(0+1280),w,c
  7550   00547A  0B80               	andlw	128
  7551   00547C  6E0D               	movwf	___fladd@signs^(0+1280),c
  7552   00547E  5004               	movf	(___fladd@b+3)^(0+1280),w,c
  7553   005480  2404               	addwf	(___fladd@b+3)^(0+1280),w,c
  7554   005482  6E0F               	movwf	___fladd@bexp^(0+1280),c
  7555   005484  AE03               	btfss	(___fladd@b+2)^(0+1280),7,c
  7556   005486  EF47  F02A         	goto	u2061
  7557   00548A  EF49  F02A         	goto	u2060
  7558   00548E                     u2061:
  7559   00548E  EF4A  F02A         	goto	l2783
  7560   005492                     u2060:
  7561   005492  800F               	bsf	___fladd@bexp^(0+1280),0,c
  7562   005494                     l2783:
  7563   005494  500F               	movf	___fladd@bexp^(0+1280),w,c
  7564   005496  B4D8               	btfsc	status,2,c
  7565   005498  EF50  F02A         	goto	u2071
  7566   00549C  EF52  F02A         	goto	u2070
  7567   0054A0                     u2071:
  7568   0054A0  EF67  F02A         	goto	l2793
  7569   0054A4                     u2070:
  7570   0054A4  280F               	incf	___fladd@bexp^(0+1280),w,c
  7571   0054A6  A4D8               	btfss	status,2,c
  7572   0054A8  EF58  F02A         	goto	u2081
  7573   0054AC  EF5A  F02A         	goto	u2080
  7574   0054B0                     u2081:
  7575   0054B0  EF62  F02A         	goto	l2789
  7576   0054B4                     u2080:
  7577   0054B4  0E00               	movlw	0
  7578   0054B6  6E01               	movwf	___fladd@b^(0+1280),c
  7579   0054B8  0E00               	movlw	0
  7580   0054BA  6E02               	movwf	(___fladd@b+1)^(0+1280),c
  7581   0054BC  0E00               	movlw	0
  7582   0054BE  6E03               	movwf	(___fladd@b+2)^(0+1280),c
  7583   0054C0  0E00               	movlw	0
  7584   0054C2  6E04               	movwf	(___fladd@b+3)^(0+1280),c
  7585   0054C4                     l2789:
  7586   0054C4  8E03               	bsf	(___fladd@b+2)^(0+1280),7,c
  7587   0054C6  0E00               	movlw	0
  7588   0054C8  6E04               	movwf	(___fladd@b+3)^(0+1280),c
  7589   0054CA  EF6F  F02A         	goto	l2795
  7590   0054CE                     l2793:
  7591   0054CE  0E00               	movlw	0
  7592   0054D0  6E01               	movwf	___fladd@b^(0+1280),c
  7593   0054D2  0E00               	movlw	0
  7594   0054D4  6E02               	movwf	(___fladd@b+1)^(0+1280),c
  7595   0054D6  0E00               	movlw	0
  7596   0054D8  6E03               	movwf	(___fladd@b+2)^(0+1280),c
  7597   0054DA  0E00               	movlw	0
  7598   0054DC  6E04               	movwf	(___fladd@b+3)^(0+1280),c
  7599   0054DE                     l2795:
  7600   0054DE  5008               	movf	(___fladd@a+3)^(0+1280),w,c
  7601   0054E0  0B80               	andlw	128
  7602   0054E2  6E0E               	movwf	___fladd@aexp^(0+1280),c
  7603   0054E4  500D               	movf	___fladd@signs^(0+1280),w,c
  7604   0054E6  180E               	xorwf	___fladd@aexp^(0+1280),w,c
  7605   0054E8  B4D8               	btfsc	status,2,c
  7606   0054EA  EF79  F02A         	goto	u2091
  7607   0054EE  EF7B  F02A         	goto	u2090
  7608   0054F2                     u2091:
  7609   0054F2  EF7C  F02A         	goto	l2801
  7610   0054F6                     u2090:
  7611   0054F6  8C0D               	bsf	___fladd@signs^(0+1280),6,c
  7612   0054F8                     l2801:
  7613   0054F8  5008               	movf	(___fladd@a+3)^(0+1280),w,c
  7614   0054FA  2408               	addwf	(___fladd@a+3)^(0+1280),w,c
  7615   0054FC  6E0E               	movwf	___fladd@aexp^(0+1280),c
  7616   0054FE  AE07               	btfss	(___fladd@a+2)^(0+1280),7,c
  7617   005500  EF84  F02A         	goto	u2101
  7618   005504  EF86  F02A         	goto	u2100
  7619   005508                     u2101:
  7620   005508  EF87  F02A         	goto	l2807
  7621   00550C                     u2100:
  7622   00550C  800E               	bsf	___fladd@aexp^(0+1280),0,c
  7623   00550E                     l2807:
  7624   00550E  500E               	movf	___fladd@aexp^(0+1280),w,c
  7625   005510  B4D8               	btfsc	status,2,c
  7626   005512  EF8D  F02A         	goto	u2111
  7627   005516  EF8F  F02A         	goto	u2110
  7628   00551A                     u2111:
  7629   00551A  EFA4  F02A         	goto	l2817
  7630   00551E                     u2110:
  7631   00551E  280E               	incf	___fladd@aexp^(0+1280),w,c
  7632   005520  A4D8               	btfss	status,2,c
  7633   005522  EF95  F02A         	goto	u2121
  7634   005526  EF97  F02A         	goto	u2120
  7635   00552A                     u2121:
  7636   00552A  EF9F  F02A         	goto	l2813
  7637   00552E                     u2120:
  7638   00552E  0E00               	movlw	0
  7639   005530  6E05               	movwf	___fladd@a^(0+1280),c
  7640   005532  0E00               	movlw	0
  7641   005534  6E06               	movwf	(___fladd@a+1)^(0+1280),c
  7642   005536  0E00               	movlw	0
  7643   005538  6E07               	movwf	(___fladd@a+2)^(0+1280),c
  7644   00553A  0E00               	movlw	0
  7645   00553C  6E08               	movwf	(___fladd@a+3)^(0+1280),c
  7646   00553E                     l2813:
  7647   00553E  8E07               	bsf	(___fladd@a+2)^(0+1280),7,c
  7648   005540  0E00               	movlw	0
  7649   005542  6E08               	movwf	(___fladd@a+3)^(0+1280),c
  7650   005544  EFAC  F02A         	goto	l2819
  7651   005548                     l2817:
  7652   005548  0E00               	movlw	0
  7653   00554A  6E05               	movwf	___fladd@a^(0+1280),c
  7654   00554C  0E00               	movlw	0
  7655   00554E  6E06               	movwf	(___fladd@a+1)^(0+1280),c
  7656   005550  0E00               	movlw	0
  7657   005552  6E07               	movwf	(___fladd@a+2)^(0+1280),c
  7658   005554  0E00               	movlw	0
  7659   005556  6E08               	movwf	(___fladd@a+3)^(0+1280),c
  7660   005558                     l2819:
  7661   005558  500F               	movf	___fladd@bexp^(0+1280),w,c
  7662   00555A  5C0E               	subwf	___fladd@aexp^(0+1280),w,c
  7663   00555C  B0D8               	btfsc	status,0,c
  7664   00555E  EFB3  F02A         	goto	u2131
  7665   005562  EFB5  F02A         	goto	u2130
  7666   005566                     u2131:
  7667   005566  EFDC  F02A         	goto	l2855
  7668   00556A                     u2130:
  7669   00556A  AC0D               	btfss	___fladd@signs^(0+1280),6,c
  7670   00556C  EFBA  F02A         	goto	u2141
  7671   005570  EFBC  F02A         	goto	u2140
  7672   005574                     u2141:
  7673   005574  EFBE  F02A         	goto	l2825
  7674   005578                     u2140:
  7675   005578  0E80               	movlw	128
  7676   00557A  1A0D               	xorwf	___fladd@signs^(0+1280),f,c
  7677   00557C                     l2825:
  7678   00557C  C50F  F510         	movff	___fladd@bexp,___fladd@grs
  7679   005580  C50E  F50F         	movff	___fladd@aexp,___fladd@bexp
  7680   005584  C510  F50E         	movff	___fladd@grs,___fladd@aexp
  7681   005588  C501  F510         	movff	___fladd@b,___fladd@grs
  7682   00558C  C505  F501         	movff	___fladd@a,___fladd@b
  7683   005590  C510  F505         	movff	___fladd@grs,___fladd@a
  7684   005594  C502  F510         	movff	___fladd@b+1,___fladd@grs
  7685   005598  C506  F502         	movff	___fladd@a+1,___fladd@b+1
  7686   00559C  C510  F506         	movff	___fladd@grs,___fladd@a+1
  7687   0055A0  C503  F510         	movff	___fladd@b+2,___fladd@grs
  7688   0055A4  C507  F503         	movff	___fladd@a+2,___fladd@b+2
  7689   0055A8  C510  F507         	movff	___fladd@grs,___fladd@a+2
  7690   0055AC  C504  F510         	movff	___fladd@b+3,___fladd@grs
  7691   0055B0  C508  F504         	movff	___fladd@a+3,___fladd@b+3
  7692   0055B4  C510  F508         	movff	___fladd@grs,___fladd@a+3
  7693   0055B8                     l2855:
  7694   0055B8  0E00               	movlw	0
  7695   0055BA  6E10               	movwf	___fladd@grs^(0+1280),c
  7696   0055BC  500F               	movf	___fladd@bexp^(0+1280),w,c
  7697   0055BE  C50E  F509         	movff	___fladd@aexp,??___fladd
  7698   0055C2  6A0A               	clrf	(??___fladd+1)^(0+1280),c
  7699   0055C4  5E09               	subwf	??___fladd^(0+1280),f,c
  7700   0055C6  0E00               	movlw	0
  7701   0055C8  5A0A               	subwfb	(??___fladd+1)^(0+1280),f,c
  7702   0055CA  BE0A               	btfsc	(??___fladd+1)^(0+1280),7,c
  7703   0055CC  EFF1  F02A         	goto	u2151
  7704   0055D0  500A               	movf	(??___fladd+1)^(0+1280),w,c
  7705   0055D2  E109               	bnz	u2150
  7706   0055D4  0E1A               	movlw	26
  7707   0055D6  5C09               	subwf	??___fladd^(0+1280),w,c
  7708   0055D8  A0D8               	btfss	status,0,c
  7709   0055DA  EFF1  F02A         	goto	u2151
  7710   0055DE  EFF3  F02A         	goto	u2150
  7711   0055E2                     u2151:
  7712   0055E2  EF2A  F02B         	goto	l960
  7713   0055E6                     u2150:
  7714   0055E6  5001               	movf	___fladd@b^(0+1280),w,c
  7715   0055E8  1002               	iorwf	(___fladd@b+1)^(0+1280),w,c
  7716   0055EA  1003               	iorwf	(___fladd@b+2)^(0+1280),w,c
  7717   0055EC  1004               	iorwf	(___fladd@b+3)^(0+1280),w,c
  7718   0055EE  A4D8               	btfss	status,2,c
  7719   0055F0  EFFC  F02A         	goto	u2161
  7720   0055F4  EFFF  F02A         	goto	u2160
  7721   0055F8                     u2161:
  7722   0055F8  0E01               	movlw	1
  7723   0055FA  EF00  F02B         	goto	u2170
  7724   0055FE                     u2160:
  7725   0055FE  0E00               	movlw	0
  7726   005600                     u2170:
  7727   005600  6E10               	movwf	___fladd@grs^(0+1280),c
  7728   005602  0E00               	movlw	0
  7729   005604  6E01               	movwf	___fladd@b^(0+1280),c
  7730   005606  0E00               	movlw	0
  7731   005608  6E02               	movwf	(___fladd@b+1)^(0+1280),c
  7732   00560A  0E00               	movlw	0
  7733   00560C  6E03               	movwf	(___fladd@b+2)^(0+1280),c
  7734   00560E  0E00               	movlw	0
  7735   005610  6E04               	movwf	(___fladd@b+3)^(0+1280),c
  7736   005612  C50E  F50F         	movff	___fladd@aexp,___fladd@bexp
  7737   005616  EF33  F02B         	goto	l959
  7738   00561A                     l961:
  7739   00561A  A010               	btfss	___fladd@grs^(0+1280),0,c
  7740   00561C  EF12  F02B         	goto	u2181
  7741   005620  EF14  F02B         	goto	u2180
  7742   005624                     u2181:
  7743   005624  EF1A  F02B         	goto	l2867
  7744   005628                     u2180:
  7745   005628  90D8               	bcf	status,0,c
  7746   00562A  3010               	rrcf	___fladd@grs^(0+1280),w,c
  7747   00562C  0901               	iorlw	1
  7748   00562E  6E10               	movwf	___fladd@grs^(0+1280),c
  7749   005630  EF1C  F02B         	goto	l2869
  7750   005634                     l2867:
  7751   005634  90D8               	bcf	status,0,c
  7752   005636  3210               	rrcf	___fladd@grs^(0+1280),f,c
  7753   005638                     l2869:
  7754   005638  A001               	btfss	___fladd@b^(0+1280),0,c
  7755   00563A  EF21  F02B         	goto	u2191
  7756   00563E  EF23  F02B         	goto	u2190
  7757   005642                     u2191:
  7758   005642  EF24  F02B         	goto	l2873
  7759   005646                     u2190:
  7760   005646  8E10               	bsf	___fladd@grs^(0+1280),7,c
  7761   005648                     l2873:
  7762   005648  3404               	rlcf	(___fladd@b+3)^(0+1280),w,c
  7763   00564A  3204               	rrcf	(___fladd@b+3)^(0+1280),f,c
  7764   00564C  3203               	rrcf	(___fladd@b+2)^(0+1280),f,c
  7765   00564E  3202               	rrcf	(___fladd@b+1)^(0+1280),f,c
  7766   005650  3201               	rrcf	___fladd@b^(0+1280),f,c
  7767   005652  2A0F               	incf	___fladd@bexp^(0+1280),f,c
  7768   005654                     l960:
  7769   005654  500E               	movf	___fladd@aexp^(0+1280),w,c
  7770   005656  5C0F               	subwf	___fladd@bexp^(0+1280),w,c
  7771   005658  A0D8               	btfss	status,0,c
  7772   00565A  EF31  F02B         	goto	u2201
  7773   00565E  EF33  F02B         	goto	u2200
  7774   005662                     u2201:
  7775   005662  EF0D  F02B         	goto	l961
  7776   005666                     u2200:
  7777   005666                     l959:
  7778   005666  BC0D               	btfsc	___fladd@signs^(0+1280),6,c
  7779   005668  EF38  F02B         	goto	u2211
  7780   00566C  EF3A  F02B         	goto	u2210
  7781   005670                     u2211:
  7782   005670  EF7A  F02B         	goto	l2901
  7783   005674                     u2210:
  7784   005674  500F               	movf	___fladd@bexp^(0+1280),w,c
  7785   005676  A4D8               	btfss	status,2,c
  7786   005678  EF40  F02B         	goto	u2221
  7787   00567C  EF42  F02B         	goto	u2220
  7788   005680                     u2221:
  7789   005680  EF4C  F02B         	goto	l2883
  7790   005684                     u2220:
  7791   005684  0E00               	movlw	0
  7792   005686  6E01               	movwf	?___fladd^(0+1280),c
  7793   005688  0E00               	movlw	0
  7794   00568A  6E02               	movwf	(?___fladd+1)^(0+1280),c
  7795   00568C  0E00               	movlw	0
  7796   00568E  6E03               	movwf	(?___fladd+2)^(0+1280),c
  7797   005690  0E00               	movlw	0
  7798   005692  6E04               	movwf	(?___fladd+3)^(0+1280),c
  7799   005694  EF9B  F02C         	goto	l968
  7800   005698                     l2883:
  7801   005698  5005               	movf	___fladd@a^(0+1280),w,c
  7802   00569A  2601               	addwf	___fladd@b^(0+1280),f,c
  7803   00569C  5006               	movf	(___fladd@a+1)^(0+1280),w,c
  7804   00569E  2202               	addwfc	(___fladd@b+1)^(0+1280),f,c
  7805   0056A0  5007               	movf	(___fladd@a+2)^(0+1280),w,c
  7806   0056A2  2203               	addwfc	(___fladd@b+2)^(0+1280),f,c
  7807   0056A4  5008               	movf	(___fladd@a+3)^(0+1280),w,c
  7808   0056A6  2204               	addwfc	(___fladd@b+3)^(0+1280),f,c
  7809   0056A8  A004               	btfss	(___fladd@b+3)^(0+1280),0,c
  7810   0056AA  EF59  F02B         	goto	u2231
  7811   0056AE  EF5B  F02B         	goto	u2230
  7812   0056B2                     u2231:
  7813   0056B2  EF07  F02C         	goto	l2937
  7814   0056B6                     u2230:
  7815   0056B6  A010               	btfss	___fladd@grs^(0+1280),0,c
  7816   0056B8  EF60  F02B         	goto	u2241
  7817   0056BC  EF62  F02B         	goto	u2240
  7818   0056C0                     u2241:
  7819   0056C0  EF68  F02B         	goto	l2891
  7820   0056C4                     u2240:
  7821   0056C4  90D8               	bcf	status,0,c
  7822   0056C6  3010               	rrcf	___fladd@grs^(0+1280),w,c
  7823   0056C8  0901               	iorlw	1
  7824   0056CA  6E10               	movwf	___fladd@grs^(0+1280),c
  7825   0056CC  EF6A  F02B         	goto	l2893
  7826   0056D0                     l2891:
  7827   0056D0  90D8               	bcf	status,0,c
  7828   0056D2  3210               	rrcf	___fladd@grs^(0+1280),f,c
  7829   0056D4                     l2893:
  7830   0056D4  A001               	btfss	___fladd@b^(0+1280),0,c
  7831   0056D6  EF6F  F02B         	goto	u2251
  7832   0056DA  EF71  F02B         	goto	u2250
  7833   0056DE                     u2251:
  7834   0056DE  EF72  F02B         	goto	l2897
  7835   0056E2                     u2250:
  7836   0056E2  8E10               	bsf	___fladd@grs^(0+1280),7,c
  7837   0056E4                     l2897:
  7838   0056E4  3404               	rlcf	(___fladd@b+3)^(0+1280),w,c
  7839   0056E6  3204               	rrcf	(___fladd@b+3)^(0+1280),f,c
  7840   0056E8  3203               	rrcf	(___fladd@b+2)^(0+1280),f,c
  7841   0056EA  3202               	rrcf	(___fladd@b+1)^(0+1280),f,c
  7842   0056EC  3201               	rrcf	___fladd@b^(0+1280),f,c
  7843   0056EE  2A0F               	incf	___fladd@bexp^(0+1280),f,c
  7844   0056F0  EF07  F02C         	goto	l2937
  7845   0056F4                     l2901:
  7846   0056F4  5005               	movf	___fladd@a^(0+1280),w,c
  7847   0056F6  5C01               	subwf	___fladd@b^(0+1280),w,c
  7848   0056F8  5006               	movf	(___fladd@a+1)^(0+1280),w,c
  7849   0056FA  5802               	subwfb	(___fladd@b+1)^(0+1280),w,c
  7850   0056FC  5007               	movf	(___fladd@a+2)^(0+1280),w,c
  7851   0056FE  5803               	subwfb	(___fladd@b+2)^(0+1280),w,c
  7852   005700  5004               	movf	(___fladd@b+3)^(0+1280),w,c
  7853   005702  0A80               	xorlw	128
  7854   005704  6E09               	movwf	??___fladd^(0+1280),c
  7855   005706  5008               	movf	(___fladd@a+3)^(0+1280),w,c
  7856   005708  0A80               	xorlw	128
  7857   00570A  5809               	subwfb	??___fladd^(0+1280),w,c
  7858   00570C  B0D8               	btfsc	status,0,c
  7859   00570E  EF8B  F02B         	goto	u2261
  7860   005712  EF8D  F02B         	goto	u2260
  7861   005716                     u2261:
  7862   005716  EFB8  F02B         	goto	l2911
  7863   00571A                     u2260:
  7864   00571A  5001               	movf	___fladd@b^(0+1280),w,c
  7865   00571C  5C05               	subwf	___fladd@a^(0+1280),w,c
  7866   00571E  6E09               	movwf	??___fladd^(0+1280),c
  7867   005720  5002               	movf	(___fladd@b+1)^(0+1280),w,c
  7868   005722  5806               	subwfb	(___fladd@a+1)^(0+1280),w,c
  7869   005724  6E0A               	movwf	(??___fladd+1)^(0+1280),c
  7870   005726  5003               	movf	(___fladd@b+2)^(0+1280),w,c
  7871   005728  5807               	subwfb	(___fladd@a+2)^(0+1280),w,c
  7872   00572A  6E0B               	movwf	(??___fladd+2)^(0+1280),c
  7873   00572C  5004               	movf	(___fladd@b+3)^(0+1280),w,c
  7874   00572E  5808               	subwfb	(___fladd@a+3)^(0+1280),w,c
  7875   005730  6E0C               	movwf	(??___fladd+3)^(0+1280),c
  7876   005732  0EFF               	movlw	255
  7877   005734  2409               	addwf	??___fladd^(0+1280),w,c
  7878   005736  6E01               	movwf	___fladd@b^(0+1280),c
  7879   005738  0EFF               	movlw	255
  7880   00573A  200A               	addwfc	(??___fladd+1)^(0+1280),w,c
  7881   00573C  6E02               	movwf	(___fladd@b+1)^(0+1280),c
  7882   00573E  0EFF               	movlw	255
  7883   005740  200B               	addwfc	(??___fladd+2)^(0+1280),w,c
  7884   005742  6E03               	movwf	(___fladd@b+2)^(0+1280),c
  7885   005744  0EFF               	movlw	255
  7886   005746  200C               	addwfc	(??___fladd+3)^(0+1280),w,c
  7887   005748  6E04               	movwf	(___fladd@b+3)^(0+1280),c
  7888   00574A  0E80               	movlw	128
  7889   00574C  1A0D               	xorwf	___fladd@signs^(0+1280),f,c
  7890   00574E  6C10               	negf	___fladd@grs^(0+1280),c
  7891   005750  5010               	movf	___fladd@grs^(0+1280),w,c
  7892   005752  A4D8               	btfss	status,2,c
  7893   005754  EFAE  F02B         	goto	u2271
  7894   005758  EFB0  F02B         	goto	u2270
  7895   00575C                     u2271:
  7896   00575C  EFC0  F02B         	goto	l976
  7897   005760                     u2270:
  7898   005760  0E01               	movlw	1
  7899   005762  2601               	addwf	___fladd@b^(0+1280),f,c
  7900   005764  0E00               	movlw	0
  7901   005766  2202               	addwfc	(___fladd@b+1)^(0+1280),f,c
  7902   005768  2203               	addwfc	(___fladd@b+2)^(0+1280),f,c
  7903   00576A  2204               	addwfc	(___fladd@b+3)^(0+1280),f,c
  7904   00576C  EFC0  F02B         	goto	l976
  7905   005770                     l2911:
  7906   005770  5005               	movf	___fladd@a^(0+1280),w,c
  7907   005772  5E01               	subwf	___fladd@b^(0+1280),f,c
  7908   005774  5006               	movf	(___fladd@a+1)^(0+1280),w,c
  7909   005776  5A02               	subwfb	(___fladd@b+1)^(0+1280),f,c
  7910   005778  5007               	movf	(___fladd@a+2)^(0+1280),w,c
  7911   00577A  5A03               	subwfb	(___fladd@b+2)^(0+1280),f,c
  7912   00577C  5008               	movf	(___fladd@a+3)^(0+1280),w,c
  7913   00577E  5A04               	subwfb	(___fladd@b+3)^(0+1280),f,c
  7914   005780                     l976:
  7915   005780  5001               	movf	___fladd@b^(0+1280),w,c
  7916   005782  1002               	iorwf	(___fladd@b+1)^(0+1280),w,c
  7917   005784  1003               	iorwf	(___fladd@b+2)^(0+1280),w,c
  7918   005786  1004               	iorwf	(___fladd@b+3)^(0+1280),w,c
  7919   005788  A4D8               	btfss	status,2,c
  7920   00578A  EFC9  F02B         	goto	u2281
  7921   00578E  EFCB  F02B         	goto	u2280
  7922   005792                     u2281:
  7923   005792  EF00  F02C         	goto	l2935
  7924   005796                     u2280:
  7925   005796  5010               	movf	___fladd@grs^(0+1280),w,c
  7926   005798  A4D8               	btfss	status,2,c
  7927   00579A  EFD1  F02B         	goto	u2291
  7928   00579E  EFD3  F02B         	goto	u2290
  7929   0057A2                     u2291:
  7930   0057A2  EF00  F02C         	goto	l2935
  7931   0057A6                     u2290:
  7932   0057A6  0E00               	movlw	0
  7933   0057A8  6E01               	movwf	?___fladd^(0+1280),c
  7934   0057AA  0E00               	movlw	0
  7935   0057AC  6E02               	movwf	(?___fladd+1)^(0+1280),c
  7936   0057AE  0E00               	movlw	0
  7937   0057B0  6E03               	movwf	(?___fladd+2)^(0+1280),c
  7938   0057B2  0E00               	movlw	0
  7939   0057B4  6E04               	movwf	(?___fladd+3)^(0+1280),c
  7940   0057B6  EF9B  F02C         	goto	l968
  7941   0057BA                     l2919:
  7942   0057BA  90D8               	bcf	status,0,c
  7943   0057BC  3601               	rlcf	___fladd@b^(0+1280),f,c
  7944   0057BE  3602               	rlcf	(___fladd@b+1)^(0+1280),f,c
  7945   0057C0  3603               	rlcf	(___fladd@b+2)^(0+1280),f,c
  7946   0057C2  3604               	rlcf	(___fladd@b+3)^(0+1280),f,c
  7947   0057C4  AE10               	btfss	___fladd@grs^(0+1280),7,c
  7948   0057C6  EFE7  F02B         	goto	u2301
  7949   0057CA  EFE9  F02B         	goto	u2300
  7950   0057CE                     u2301:
  7951   0057CE  EFEA  F02B         	goto	l2925
  7952   0057D2                     u2300:
  7953   0057D2  8001               	bsf	___fladd@b^(0+1280),0,c
  7954   0057D4                     l2925:
  7955   0057D4  A010               	btfss	___fladd@grs^(0+1280),0,c
  7956   0057D6  EFEF  F02B         	goto	u2311
  7957   0057DA  EFF1  F02B         	goto	u2310
  7958   0057DE                     u2311:
  7959   0057DE  EFF5  F02B         	goto	l2929
  7960   0057E2                     u2310:
  7961   0057E2  80D8               	bsf	status,0,c
  7962   0057E4  3610               	rlcf	___fladd@grs^(0+1280),f,c
  7963   0057E6  EFF7  F02B         	goto	l2931
  7964   0057EA                     l2929:
  7965   0057EA  90D8               	bcf	status,0,c
  7966   0057EC  3610               	rlcf	___fladd@grs^(0+1280),f,c
  7967   0057EE                     l2931:
  7968   0057EE  500F               	movf	___fladd@bexp^(0+1280),w,c
  7969   0057F0  B4D8               	btfsc	status,2,c
  7970   0057F2  EFFD  F02B         	goto	u2321
  7971   0057F6  EFFF  F02B         	goto	u2320
  7972   0057FA                     u2321:
  7973   0057FA  EF00  F02C         	goto	l2935
  7974   0057FE                     u2320:
  7975   0057FE  060F               	decf	___fladd@bexp^(0+1280),f,c
  7976   005800                     l2935:
  7977   005800  AE03               	btfss	(___fladd@b+2)^(0+1280),7,c
  7978   005802  EF05  F02C         	goto	u2331
  7979   005806  EF07  F02C         	goto	u2330
  7980   00580A                     u2331:
  7981   00580A  EFDD  F02B         	goto	l2919
  7982   00580E                     u2330:
  7983   00580E                     l2937:
  7984   00580E  0E00               	movlw	0
  7985   005810  6E0E               	movwf	___fladd@aexp^(0+1280),c
  7986   005812  AE10               	btfss	___fladd@grs^(0+1280),7,c
  7987   005814  EF0E  F02C         	goto	u2341
  7988   005818  EF10  F02C         	goto	u2340
  7989   00581C                     u2341:
  7990   00581C  EF28  F02C         	goto	l985
  7991   005820                     u2340:
  7992   005820  C510  F509         	movff	___fladd@grs,??___fladd
  7993   005824  0E7F               	movlw	127
  7994   005826  1609               	andwf	??___fladd^(0+1280),f,c
  7995   005828  B4D8               	btfsc	status,2,c
  7996   00582A  EF19  F02C         	goto	u2351
  7997   00582E  EF1B  F02C         	goto	u2350
  7998   005832                     u2351:
  7999   005832  EF1F  F02C         	goto	l986
  8000   005836                     u2350:
  8001   005836                     l2943:
  8002   005836  0E01               	movlw	1
  8003   005838  6E0E               	movwf	___fladd@aexp^(0+1280),c
  8004   00583A  EF28  F02C         	goto	l985
  8005   00583E                     l986:
  8006   00583E  A001               	btfss	___fladd@b^(0+1280),0,c
  8007   005840  EF24  F02C         	goto	u2361
  8008   005844  EF26  F02C         	goto	u2360
  8009   005848                     u2361:
  8010   005848  EF28  F02C         	goto	l985
  8011   00584C                     u2360:
  8012   00584C  EF1B  F02C         	goto	l2943
  8013   005850                     l985:
  8014   005850  500E               	movf	___fladd@aexp^(0+1280),w,c
  8015   005852  B4D8               	btfsc	status,2,c
  8016   005854  EF2E  F02C         	goto	u2371
  8017   005858  EF30  F02C         	goto	u2370
  8018   00585C                     u2371:
  8019   00585C  EF5B  F02C         	goto	l2955
  8020   005860                     u2370:
  8021   005860  0E01               	movlw	1
  8022   005862  2601               	addwf	___fladd@b^(0+1280),f,c
  8023   005864  0E00               	movlw	0
  8024   005866  2202               	addwfc	(___fladd@b+1)^(0+1280),f,c
  8025   005868  2203               	addwfc	(___fladd@b+2)^(0+1280),f,c
  8026   00586A  2204               	addwfc	(___fladd@b+3)^(0+1280),f,c
  8027   00586C  A004               	btfss	(___fladd@b+3)^(0+1280),0,c
  8028   00586E  EF3B  F02C         	goto	u2381
  8029   005872  EF3D  F02C         	goto	u2380
  8030   005876                     u2381:
  8031   005876  EF5B  F02C         	goto	l2955
  8032   00587A                     u2380:
  8033   00587A  C501  F509         	movff	___fladd@b,??___fladd
  8034   00587E  C502  F50A         	movff	___fladd@b+1,??___fladd+1
  8035   005882  C503  F50B         	movff	___fladd@b+2,??___fladd+2
  8036   005886  C504  F50C         	movff	___fladd@b+3,??___fladd+3
  8037   00588A  340C               	rlcf	(??___fladd+3)^(0+1280),w,c
  8038   00588C  320C               	rrcf	(??___fladd+3)^(0+1280),f,c
  8039   00588E  320B               	rrcf	(??___fladd+2)^(0+1280),f,c
  8040   005890  320A               	rrcf	(??___fladd+1)^(0+1280),f,c
  8041   005892  3209               	rrcf	??___fladd^(0+1280),f,c
  8042   005894  C509  F501         	movff	??___fladd,___fladd@b
  8043   005898  C50A  F502         	movff	??___fladd+1,___fladd@b+1
  8044   00589C  C50B  F503         	movff	??___fladd+2,___fladd@b+2
  8045   0058A0  C50C  F504         	movff	??___fladd+3,___fladd@b+3
  8046   0058A4  280F               	incf	___fladd@bexp^(0+1280),w,c
  8047   0058A6  B4D8               	btfsc	status,2,c
  8048   0058A8  EF58  F02C         	goto	u2391
  8049   0058AC  EF5A  F02C         	goto	u2390
  8050   0058B0                     u2391:
  8051   0058B0  EF5B  F02C         	goto	l2955
  8052   0058B4                     u2390:
  8053   0058B4  2A0F               	incf	___fladd@bexp^(0+1280),f,c
  8054   0058B6                     l2955:
  8055   0058B6  280F               	incf	___fladd@bexp^(0+1280),w,c
  8056   0058B8  B4D8               	btfsc	status,2,c
  8057   0058BA  EF61  F02C         	goto	u2401
  8058   0058BE  EF63  F02C         	goto	u2400
  8059   0058C2                     u2401:
  8060   0058C2  EF6B  F02C         	goto	l2959
  8061   0058C6                     u2400:
  8062   0058C6  500F               	movf	___fladd@bexp^(0+1280),w,c
  8063   0058C8  A4D8               	btfss	status,2,c
  8064   0058CA  EF69  F02C         	goto	u2411
  8065   0058CE  EF6B  F02C         	goto	u2410
  8066   0058D2                     u2411:
  8067   0058D2  EF7D  F02C         	goto	l2963
  8068   0058D6                     u2410:
  8069   0058D6                     l2959:
  8070   0058D6  0E00               	movlw	0
  8071   0058D8  6E01               	movwf	___fladd@b^(0+1280),c
  8072   0058DA  0E00               	movlw	0
  8073   0058DC  6E02               	movwf	(___fladd@b+1)^(0+1280),c
  8074   0058DE  0E00               	movlw	0
  8075   0058E0  6E03               	movwf	(___fladd@b+2)^(0+1280),c
  8076   0058E2  0E00               	movlw	0
  8077   0058E4  6E04               	movwf	(___fladd@b+3)^(0+1280),c
  8078   0058E6  500F               	movf	___fladd@bexp^(0+1280),w,c
  8079   0058E8  A4D8               	btfss	status,2,c
  8080   0058EA  EF79  F02C         	goto	u2421
  8081   0058EE  EF7B  F02C         	goto	u2420
  8082   0058F2                     u2421:
  8083   0058F2  EF7D  F02C         	goto	l2963
  8084   0058F6                     u2420:
  8085   0058F6  0E00               	movlw	0
  8086   0058F8  6E0D               	movwf	___fladd@signs^(0+1280),c
  8087   0058FA                     l2963:
  8088   0058FA  A00F               	btfss	___fladd@bexp^(0+1280),0,c
  8089   0058FC  EF82  F02C         	goto	u2431
  8090   005900  EF84  F02C         	goto	u2430
  8091   005904                     u2431:
  8092   005904  EF87  F02C         	goto	l2967
  8093   005908                     u2430:
  8094   005908  8E03               	bsf	(___fladd@b+2)^(0+1280),7,c
  8095   00590A  EF88  F02C         	goto	l2969
  8096   00590E                     l2967:
  8097   00590E  9E03               	bcf	(___fladd@b+2)^(0+1280),7,c
  8098   005910                     l2969:
  8099   005910  90D8               	bcf	status,0,c
  8100   005912  300F               	rrcf	___fladd@bexp^(0+1280),w,c
  8101   005914  6E04               	movwf	(___fladd@b+3)^(0+1280),c
  8102   005916  AE0D               	btfss	___fladd@signs^(0+1280),7,c
  8103   005918  EF90  F02C         	goto	u2441
  8104   00591C  EF92  F02C         	goto	u2440
  8105   005920                     u2441:
  8106   005920  EF93  F02C         	goto	l2975
  8107   005924                     u2440:
  8108   005924  8E04               	bsf	(___fladd@b+3)^(0+1280),7,c
  8109   005926                     l2975:
  8110   005926  C501  F501         	movff	___fladd@b,?___fladd
  8111   00592A  C502  F502         	movff	___fladd@b+1,?___fladd+1
  8112   00592E  C503  F503         	movff	___fladd@b+2,?___fladd+2
  8113   005932  C504  F504         	movff	___fladd@b+3,?___fladd+3
  8114   005936                     l968:
  8115   005936  0012               	return		;funcret
  8116   005938                     __end_of___fladd:
  8117                           	callstack 0
  8118                           
  8119 ;; *************** function ___flneg *****************
  8120 ;; Defined at:
  8121 ;;		line 15 in file "C:\Program Files\Microchip\xc8\v2.40\pic\sources\c99\common\flneg.c"
  8122 ;; Parameters:    Size  Location     Type
  8123 ;;  f1              4    0[COMRAM] unsigned char 
  8124 ;; Auto vars:     Size  Location     Type
  8125 ;;		None
  8126 ;; Return value:  Size  Location     Type
  8127 ;;                  4    0[COMRAM] unsigned char 
  8128 ;; Registers used:
  8129 ;;		wreg, status,2, status,0
  8130 ;; Tracked objects:
  8131 ;;		On entry : 0/0
  8132 ;;		On exit  : 0/0
  8133 ;;		Unchanged: 0/0
  8134 ;; Data sizes:     COMRAM   BANK5   BANK6   BANK7   BANK8   BANK9  BANK10  BANK11  BANK12  BANK13  BANK14  BANK15  BANK1
      +6  BANK17  BANK18  BANK19  BANK20  BANK21  BANK22  BANK23  BANK24  BANK25  BANK26  BANK27  BANK28  BANK29  BANK30  BANK3
      +1  BANK32  BANK33  BANK34  BANK35  BANK36
  8135 ;;      Params:         4       0       0       0       0       0       0       0       0       0       0       0       
      +0       0       0       0       0       0       0       0       0       0       0       0       0       0       0       
      +0       0       0       0       0       0
  8136 ;;      Locals:         0       0       0       0       0       0       0       0       0       0       0       0       
      +0       0       0       0       0       0       0       0       0       0       0       0       0       0       0       
      +0       0       0       0       0       0
  8137 ;;      Temps:          0       0       0       0       0       0       0       0       0       0       0       0       
      +0       0       0       0       0       0       0       0       0       0       0       0       0       0       0       
      +0       0       0       0       0       0
  8138 ;;      Totals:         4       0       0       0       0       0       0       0       0       0       0       0       
      +0       0       0       0       0       0       0       0       0       0       0       0       0       0       0       
      +0       0       0       0       0       0
  8139 ;;Total ram usage:        4 bytes
  8140 ;; Hardware stack levels used: 1
  8141 ;; Hardware stack levels required when called: 2
  8142 ;; This function calls:
  8143 ;;		Nothing
  8144 ;; This function is called by:
  8145 ;;		_powf
  8146 ;; This function uses a non-reentrant model
  8147 ;;
  8148                           
  8149                           	psect	text16
  8150   006AB0                     __ptext16:
  8151                           	callstack 0
  8152   006AB0                     ___flneg:
  8153                           	callstack 123
  8154   006AB0  5001               	movf	___flneg@f1^(0+1280),w,c
  8155   006AB2  1002               	iorwf	(___flneg@f1+1)^(0+1280),w,c
  8156   006AB4  1003               	iorwf	(___flneg@f1+2)^(0+1280),w,c
  8157   006AB6  1004               	iorwf	(___flneg@f1+3)^(0+1280),w,c
  8158   006AB8  B4D8               	btfsc	status,2,c
  8159   006ABA  EF61  F035         	goto	u2951
  8160   006ABE  EF63  F035         	goto	u2950
  8161   006AC2                     u2951:
  8162   006AC2  EF6B  F035         	goto	l3361
  8163   006AC6                     u2950:
  8164   006AC6  0E00               	movlw	0
  8165   006AC8  1A01               	xorwf	___flneg@f1^(0+1280),f,c
  8166   006ACA  0E00               	movlw	0
  8167   006ACC  1A02               	xorwf	(___flneg@f1+1)^(0+1280),f,c
  8168   006ACE  0E00               	movlw	0
  8169   006AD0  1A03               	xorwf	(___flneg@f1+2)^(0+1280),f,c
  8170   006AD2  0E80               	movlw	128
  8171   006AD4  1A04               	xorwf	(___flneg@f1+3)^(0+1280),f,c
  8172   006AD6                     l3361:
  8173   006AD6  C501  F501         	movff	___flneg@f1,?___flneg
  8174   006ADA  C502  F502         	movff	___flneg@f1+1,?___flneg+1
  8175   006ADE  C503  F503         	movff	___flneg@f1+2,?___flneg+2
  8176   006AE2  C504  F504         	movff	___flneg@f1+3,?___flneg+3
  8177   006AE6  0012               	return		;funcret
  8178   006AE8                     __end_of___flneg:
  8179                           	callstack 0
  8180                           
  8181 ;; *************** function ___fldiv *****************
  8182 ;; Defined at:
  8183 ;;		line 11 in file "C:\Program Files\Microchip\xc8\v2.40\pic\sources\c99\common\sprcdiv.c"
  8184 ;; Parameters:    Size  Location     Type
  8185 ;;  b               4   49[COMRAM] unsigned char 
  8186 ;;  a               4   53[COMRAM] unsigned char 
  8187 ;; Auto vars:     Size  Location     Type
  8188 ;;  grs             4   68[COMRAM] unsigned long 
  8189 ;;  rem             4   61[COMRAM] unsigned long 
  8190 ;;  new_exp         2   66[COMRAM] short 
  8191 ;;  aexp            1   73[COMRAM] unsigned char 
  8192 ;;  bexp            1   72[COMRAM] unsigned char 
  8193 ;;  sign            1   65[COMRAM] unsigned char 
  8194 ;; Return value:  Size  Location     Type
  8195 ;;                  4   49[COMRAM] unsigned char 
  8196 ;; Registers used:
  8197 ;;		wreg, status,2, status,0
  8198 ;; Tracked objects:
  8199 ;;		On entry : 0/0
  8200 ;;		On exit  : 0/0
  8201 ;;		Unchanged: 0/0
  8202 ;; Data sizes:     COMRAM   BANK5   BANK6   BANK7   BANK8   BANK9  BANK10  BANK11  BANK12  BANK13  BANK14  BANK15  BANK1
      +6  BANK17  BANK18  BANK19  BANK20  BANK21  BANK22  BANK23  BANK24  BANK25  BANK26  BANK27  BANK28  BANK29  BANK30  BANK3
      +1  BANK32  BANK33  BANK34  BANK35  BANK36
  8203 ;;      Params:         8       0       0       0       0       0       0       0       0       0       0       0       
      +0       0       0       0       0       0       0       0       0       0       0       0       0       0       0       
      +0       0       0       0       0       0
  8204 ;;      Locals:        13       0       0       0       0       0       0       0       0       0       0       0       
      +0       0       0       0       0       0       0       0       0       0       0       0       0       0       0       
      +0       0       0       0       0       0
  8205 ;;      Temps:          4       0       0       0       0       0       0       0       0       0       0       0       
      +0       0       0       0       0       0       0       0       0       0       0       0       0       0       0       
      +0       0       0       0       0       0
  8206 ;;      Totals:        25       0       0       0       0       0       0       0       0       0       0       0       
      +0       0       0       0       0       0       0       0       0       0       0       0       0       0       0       
      +0       0       0       0       0       0
  8207 ;;Total ram usage:       25 bytes
  8208 ;; Hardware stack levels used: 1
  8209 ;; Hardware stack levels required when called: 2
  8210 ;; This function calls:
  8211 ;;		Nothing
  8212 ;; This function is called by:
  8213 ;;		_powf
  8214 ;; This function uses a non-reentrant model
  8215 ;;
  8216                           
  8217                           	psect	text17
  8218   005D62                     __ptext17:
  8219                           	callstack 0
  8220   005D62                     ___fldiv:
  8221                           	callstack 123
  8222   005D62  5035               	movf	(___fldiv@b+3)^(0+1280),w,c
  8223   005D64  0B80               	andlw	128
  8224   005D66  6E42               	movwf	___fldiv@sign^(0+1280),c
  8225   005D68  5035               	movf	(___fldiv@b+3)^(0+1280),w,c
  8226   005D6A  2435               	addwf	(___fldiv@b+3)^(0+1280),w,c
  8227   005D6C  6E49               	movwf	___fldiv@bexp^(0+1280),c
  8228   005D6E  AE34               	btfss	(___fldiv@b+2)^(0+1280),7,c
  8229   005D70  EFBC  F02E         	goto	u2721
  8230   005D74  EFBE  F02E         	goto	u2720
  8231   005D78                     u2721:
  8232   005D78  EFBF  F02E         	goto	l3219
  8233   005D7C                     u2720:
  8234   005D7C  8049               	bsf	___fldiv@bexp^(0+1280),0,c
  8235   005D7E                     l3219:
  8236   005D7E  5049               	movf	___fldiv@bexp^(0+1280),w,c
  8237   005D80  B4D8               	btfsc	status,2,c
  8238   005D82  EFC5  F02E         	goto	u2731
  8239   005D86  EFC7  F02E         	goto	u2730
  8240   005D8A                     u2731:
  8241   005D8A  EFDC  F02E         	goto	l3229
  8242   005D8E                     u2730:
  8243   005D8E  2849               	incf	___fldiv@bexp^(0+1280),w,c
  8244   005D90  A4D8               	btfss	status,2,c
  8245   005D92  EFCD  F02E         	goto	u2741
  8246   005D96  EFCF  F02E         	goto	u2740
  8247   005D9A                     u2741:
  8248   005D9A  EFD7  F02E         	goto	l3225
  8249   005D9E                     u2740:
  8250   005D9E  0E00               	movlw	0
  8251   005DA0  6E32               	movwf	___fldiv@b^(0+1280),c
  8252   005DA2  0E00               	movlw	0
  8253   005DA4  6E33               	movwf	(___fldiv@b+1)^(0+1280),c
  8254   005DA6  0E00               	movlw	0
  8255   005DA8  6E34               	movwf	(___fldiv@b+2)^(0+1280),c
  8256   005DAA  0E00               	movlw	0
  8257   005DAC  6E35               	movwf	(___fldiv@b+3)^(0+1280),c
  8258   005DAE                     l3225:
  8259   005DAE  8E34               	bsf	(___fldiv@b+2)^(0+1280),7,c
  8260   005DB0  0E00               	movlw	0
  8261   005DB2  6E35               	movwf	(___fldiv@b+3)^(0+1280),c
  8262   005DB4  EFE4  F02E         	goto	l3231
  8263   005DB8                     l3229:
  8264   005DB8  0E00               	movlw	0
  8265   005DBA  6E32               	movwf	___fldiv@b^(0+1280),c
  8266   005DBC  0E00               	movlw	0
  8267   005DBE  6E33               	movwf	(___fldiv@b+1)^(0+1280),c
  8268   005DC0  0E00               	movlw	0
  8269   005DC2  6E34               	movwf	(___fldiv@b+2)^(0+1280),c
  8270   005DC4  0E00               	movlw	0
  8271   005DC6  6E35               	movwf	(___fldiv@b+3)^(0+1280),c
  8272   005DC8                     l3231:
  8273   005DC8  5039               	movf	(___fldiv@a+3)^(0+1280),w,c
  8274   005DCA  0B80               	andlw	128
  8275   005DCC  1A42               	xorwf	___fldiv@sign^(0+1280),f,c
  8276   005DCE  5039               	movf	(___fldiv@a+3)^(0+1280),w,c
  8277   005DD0  2439               	addwf	(___fldiv@a+3)^(0+1280),w,c
  8278   005DD2  6E4A               	movwf	___fldiv@aexp^(0+1280),c
  8279   005DD4  AE38               	btfss	(___fldiv@a+2)^(0+1280),7,c
  8280   005DD6  EFEF  F02E         	goto	u2751
  8281   005DDA  EFF1  F02E         	goto	u2750
  8282   005DDE                     u2751:
  8283   005DDE  EFF2  F02E         	goto	l3239
  8284   005DE2                     u2750:
  8285   005DE2  804A               	bsf	___fldiv@aexp^(0+1280),0,c
  8286   005DE4                     l3239:
  8287   005DE4  504A               	movf	___fldiv@aexp^(0+1280),w,c
  8288   005DE6  B4D8               	btfsc	status,2,c
  8289   005DE8  EFF8  F02E         	goto	u2761
  8290   005DEC  EFFA  F02E         	goto	u2760
  8291   005DF0                     u2761:
  8292   005DF0  EF0F  F02F         	goto	l3249
  8293   005DF4                     u2760:
  8294   005DF4  284A               	incf	___fldiv@aexp^(0+1280),w,c
  8295   005DF6  A4D8               	btfss	status,2,c
  8296   005DF8  EF00  F02F         	goto	u2771
  8297   005DFC  EF02  F02F         	goto	u2770
  8298   005E00                     u2771:
  8299   005E00  EF0A  F02F         	goto	l3245
  8300   005E04                     u2770:
  8301   005E04  0E00               	movlw	0
  8302   005E06  6E36               	movwf	___fldiv@a^(0+1280),c
  8303   005E08  0E00               	movlw	0
  8304   005E0A  6E37               	movwf	(___fldiv@a+1)^(0+1280),c
  8305   005E0C  0E00               	movlw	0
  8306   005E0E  6E38               	movwf	(___fldiv@a+2)^(0+1280),c
  8307   005E10  0E00               	movlw	0
  8308   005E12  6E39               	movwf	(___fldiv@a+3)^(0+1280),c
  8309   005E14                     l3245:
  8310   005E14  8E38               	bsf	(___fldiv@a+2)^(0+1280),7,c
  8311   005E16  0E00               	movlw	0
  8312   005E18  6E39               	movwf	(___fldiv@a+3)^(0+1280),c
  8313   005E1A  EF17  F02F         	goto	l3251
  8314   005E1E                     l3249:
  8315   005E1E  0E00               	movlw	0
  8316   005E20  6E36               	movwf	___fldiv@a^(0+1280),c
  8317   005E22  0E00               	movlw	0
  8318   005E24  6E37               	movwf	(___fldiv@a+1)^(0+1280),c
  8319   005E26  0E00               	movlw	0
  8320   005E28  6E38               	movwf	(___fldiv@a+2)^(0+1280),c
  8321   005E2A  0E00               	movlw	0
  8322   005E2C  6E39               	movwf	(___fldiv@a+3)^(0+1280),c
  8323   005E2E                     l3251:
  8324   005E2E  5036               	movf	___fldiv@a^(0+1280),w,c
  8325   005E30  1037               	iorwf	(___fldiv@a+1)^(0+1280),w,c
  8326   005E32  1038               	iorwf	(___fldiv@a+2)^(0+1280),w,c
  8327   005E34  1039               	iorwf	(___fldiv@a+3)^(0+1280),w,c
  8328   005E36  A4D8               	btfss	status,2,c
  8329   005E38  EF20  F02F         	goto	u2781
  8330   005E3C  EF22  F02F         	goto	u2780
  8331   005E40                     u2781:
  8332   005E40  EF3A  F02F         	goto	l3263
  8333   005E44                     u2780:
  8334   005E44  0E00               	movlw	0
  8335   005E46  6E32               	movwf	___fldiv@b^(0+1280),c
  8336   005E48  0E00               	movlw	0
  8337   005E4A  6E33               	movwf	(___fldiv@b+1)^(0+1280),c
  8338   005E4C  0E00               	movlw	0
  8339   005E4E  6E34               	movwf	(___fldiv@b+2)^(0+1280),c
  8340   005E50  0E00               	movlw	0
  8341   005E52  6E35               	movwf	(___fldiv@b+3)^(0+1280),c
  8342   005E54  0E80               	movlw	128
  8343   005E56  1234               	iorwf	(___fldiv@b+2)^(0+1280),f,c
  8344   005E58  0E7F               	movlw	127
  8345   005E5A  1235               	iorwf	(___fldiv@b+3)^(0+1280),f,c
  8346   005E5C                     l3257:
  8347   005E5C  5042               	movf	___fldiv@sign^(0+1280),w,c
  8348   005E5E  1235               	iorwf	(___fldiv@b+3)^(0+1280),f,c
  8349   005E60  C532  F532         	movff	___fldiv@b,?___fldiv
  8350   005E64  C533  F533         	movff	___fldiv@b+1,?___fldiv+1
  8351   005E68  C534  F534         	movff	___fldiv@b+2,?___fldiv+2
  8352   005E6C  C535  F535         	movff	___fldiv@b+3,?___fldiv+3
  8353   005E70  EF7D  F030         	goto	l1013
  8354   005E74                     l3263:
  8355   005E74  5049               	movf	___fldiv@bexp^(0+1280),w,c
  8356   005E76  A4D8               	btfss	status,2,c
  8357   005E78  EF40  F02F         	goto	u2791
  8358   005E7C  EF42  F02F         	goto	u2790
  8359   005E80                     u2791:
  8360   005E80  EF4C  F02F         	goto	l3271
  8361   005E84                     u2790:
  8362   005E84  0E00               	movlw	0
  8363   005E86  6E32               	movwf	?___fldiv^(0+1280),c
  8364   005E88  0E00               	movlw	0
  8365   005E8A  6E33               	movwf	(?___fldiv+1)^(0+1280),c
  8366   005E8C  0E00               	movlw	0
  8367   005E8E  6E34               	movwf	(?___fldiv+2)^(0+1280),c
  8368   005E90  0E00               	movlw	0
  8369   005E92  6E35               	movwf	(?___fldiv+3)^(0+1280),c
  8370   005E94  EF7D  F030         	goto	l1013
  8371   005E98                     l3271:
  8372   005E98  504A               	movf	___fldiv@aexp^(0+1280),w,c
  8373   005E9A  C549  F53A         	movff	___fldiv@bexp,??___fldiv
  8374   005E9E  6A3B               	clrf	(??___fldiv+1)^(0+1280),c
  8375   005EA0  5E3A               	subwf	??___fldiv^(0+1280),f,c
  8376   005EA2  0E00               	movlw	0
  8377   005EA4  5A3B               	subwfb	(??___fldiv+1)^(0+1280),f,c
  8378   005EA6  0E7F               	movlw	127
  8379   005EA8  243A               	addwf	??___fldiv^(0+1280),w,c
  8380   005EAA  6E43               	movwf	___fldiv@new_exp^(0+1280),c
  8381   005EAC  0E00               	movlw	0
  8382   005EAE  203B               	addwfc	(??___fldiv+1)^(0+1280),w,c
  8383   005EB0  6E44               	movwf	(___fldiv@new_exp+1)^(0+1280),c
  8384   005EB2  C532  F53E         	movff	___fldiv@b,___fldiv@rem
  8385   005EB6  C533  F53F         	movff	___fldiv@b+1,___fldiv@rem+1
  8386   005EBA  C534  F540         	movff	___fldiv@b+2,___fldiv@rem+2
  8387   005EBE  C535  F541         	movff	___fldiv@b+3,___fldiv@rem+3
  8388   005EC2  0E00               	movlw	0
  8389   005EC4  6E32               	movwf	___fldiv@b^(0+1280),c
  8390   005EC6  0E00               	movlw	0
  8391   005EC8  6E33               	movwf	(___fldiv@b+1)^(0+1280),c
  8392   005ECA  0E00               	movlw	0
  8393   005ECC  6E34               	movwf	(___fldiv@b+2)^(0+1280),c
  8394   005ECE  0E00               	movlw	0
  8395   005ED0  6E35               	movwf	(___fldiv@b+3)^(0+1280),c
  8396   005ED2  0E00               	movlw	0
  8397   005ED4  6E45               	movwf	___fldiv@grs^(0+1280),c
  8398   005ED6  0E00               	movlw	0
  8399   005ED8  6E46               	movwf	(___fldiv@grs+1)^(0+1280),c
  8400   005EDA  0E00               	movlw	0
  8401   005EDC  6E47               	movwf	(___fldiv@grs+2)^(0+1280),c
  8402   005EDE  0E00               	movlw	0
  8403   005EE0  6E48               	movwf	(___fldiv@grs+3)^(0+1280),c
  8404   005EE2  0E00               	movlw	0
  8405   005EE4  6E4A               	movwf	___fldiv@aexp^(0+1280),c
  8406   005EE6  EFAD  F02F         	goto	l1015
  8407   005EEA                     l3281:
  8408   005EEA  504A               	movf	___fldiv@aexp^(0+1280),w,c
  8409   005EEC  B4D8               	btfsc	status,2,c
  8410   005EEE  EF7B  F02F         	goto	u2801
  8411   005EF2  EF7D  F02F         	goto	u2800
  8412   005EF6                     u2801:
  8413   005EF6  EF94  F02F         	goto	l3289
  8414   005EFA                     u2800:
  8415   005EFA  90D8               	bcf	status,0,c
  8416   005EFC  363E               	rlcf	___fldiv@rem^(0+1280),f,c
  8417   005EFE  363F               	rlcf	(___fldiv@rem+1)^(0+1280),f,c
  8418   005F00  3640               	rlcf	(___fldiv@rem+2)^(0+1280),f,c
  8419   005F02  3641               	rlcf	(___fldiv@rem+3)^(0+1280),f,c
  8420   005F04  90D8               	bcf	status,0,c
  8421   005F06  3632               	rlcf	___fldiv@b^(0+1280),f,c
  8422   005F08  3633               	rlcf	(___fldiv@b+1)^(0+1280),f,c
  8423   005F0A  3634               	rlcf	(___fldiv@b+2)^(0+1280),f,c
  8424   005F0C  3635               	rlcf	(___fldiv@b+3)^(0+1280),f,c
  8425   005F0E  AE48               	btfss	(___fldiv@grs+3)^(0+1280),7,c
  8426   005F10  EF8C  F02F         	goto	u2811
  8427   005F14  EF8E  F02F         	goto	u2810
  8428   005F18                     u2811:
  8429   005F18  EF8F  F02F         	goto	l1018
  8430   005F1C                     u2810:
  8431   005F1C  8032               	bsf	___fldiv@b^(0+1280),0,c
  8432   005F1E                     l1018:
  8433   005F1E  90D8               	bcf	status,0,c
  8434   005F20  3645               	rlcf	___fldiv@grs^(0+1280),f,c
  8435   005F22  3646               	rlcf	(___fldiv@grs+1)^(0+1280),f,c
  8436   005F24  3647               	rlcf	(___fldiv@grs+2)^(0+1280),f,c
  8437   005F26  3648               	rlcf	(___fldiv@grs+3)^(0+1280),f,c
  8438   005F28                     l3289:
  8439   005F28  5036               	movf	___fldiv@a^(0+1280),w,c
  8440   005F2A  5C3E               	subwf	___fldiv@rem^(0+1280),w,c
  8441   005F2C  5037               	movf	(___fldiv@a+1)^(0+1280),w,c
  8442   005F2E  583F               	subwfb	(___fldiv@rem+1)^(0+1280),w,c
  8443   005F30  5038               	movf	(___fldiv@a+2)^(0+1280),w,c
  8444   005F32  5840               	subwfb	(___fldiv@rem+2)^(0+1280),w,c
  8445   005F34  5039               	movf	(___fldiv@a+3)^(0+1280),w,c
  8446   005F36  5841               	subwfb	(___fldiv@rem+3)^(0+1280),w,c
  8447   005F38  A0D8               	btfss	status,0,c
  8448   005F3A  EFA1  F02F         	goto	u2821
  8449   005F3E  EFA3  F02F         	goto	u2820
  8450   005F42                     u2821:
  8451   005F42  EFAC  F02F         	goto	l3295
  8452   005F46                     u2820:
  8453   005F46  8C48               	bsf	(___fldiv@grs+3)^(0+1280),6,c
  8454   005F48  5036               	movf	___fldiv@a^(0+1280),w,c
  8455   005F4A  5E3E               	subwf	___fldiv@rem^(0+1280),f,c
  8456   005F4C  5037               	movf	(___fldiv@a+1)^(0+1280),w,c
  8457   005F4E  5A3F               	subwfb	(___fldiv@rem+1)^(0+1280),f,c
  8458   005F50  5038               	movf	(___fldiv@a+2)^(0+1280),w,c
  8459   005F52  5A40               	subwfb	(___fldiv@rem+2)^(0+1280),f,c
  8460   005F54  5039               	movf	(___fldiv@a+3)^(0+1280),w,c
  8461   005F56  5A41               	subwfb	(___fldiv@rem+3)^(0+1280),f,c
  8462   005F58                     l3295:
  8463   005F58  2A4A               	incf	___fldiv@aexp^(0+1280),f,c
  8464   005F5A                     l1015:
  8465   005F5A  0E19               	movlw	25
  8466   005F5C  644A               	cpfsgt	___fldiv@aexp^(0+1280),c
  8467   005F5E  EFB3  F02F         	goto	u2831
  8468   005F62  EFB5  F02F         	goto	u2830
  8469   005F66                     u2831:
  8470   005F66  EF75  F02F         	goto	l3281
  8471   005F6A                     u2830:
  8472   005F6A  503E               	movf	___fldiv@rem^(0+1280),w,c
  8473   005F6C  103F               	iorwf	(___fldiv@rem+1)^(0+1280),w,c
  8474   005F6E  1040               	iorwf	(___fldiv@rem+2)^(0+1280),w,c
  8475   005F70  1041               	iorwf	(___fldiv@rem+3)^(0+1280),w,c
  8476   005F72  B4D8               	btfsc	status,2,c
  8477   005F74  EFBE  F02F         	goto	u2841
  8478   005F78  EFC0  F02F         	goto	u2840
  8479   005F7C                     u2841:
  8480   005F7C  EFD8  F02F         	goto	l3307
  8481   005F80                     u2840:
  8482   005F80  8045               	bsf	___fldiv@grs^(0+1280),0,c
  8483   005F82  EFD8  F02F         	goto	l3307
  8484   005F86                     l3301:
  8485   005F86  90D8               	bcf	status,0,c
  8486   005F88  3632               	rlcf	___fldiv@b^(0+1280),f,c
  8487   005F8A  3633               	rlcf	(___fldiv@b+1)^(0+1280),f,c
  8488   005F8C  3634               	rlcf	(___fldiv@b+2)^(0+1280),f,c
  8489   005F8E  3635               	rlcf	(___fldiv@b+3)^(0+1280),f,c
  8490   005F90  AE48               	btfss	(___fldiv@grs+3)^(0+1280),7,c
  8491   005F92  EFCD  F02F         	goto	u2851
  8492   005F96  EFCF  F02F         	goto	u2850
  8493   005F9A                     u2851:
  8494   005F9A  EFD0  F02F         	goto	l1024
  8495   005F9E                     u2850:
  8496   005F9E  8032               	bsf	___fldiv@b^(0+1280),0,c
  8497   005FA0                     l1024:
  8498   005FA0  90D8               	bcf	status,0,c
  8499   005FA2  3645               	rlcf	___fldiv@grs^(0+1280),f,c
  8500   005FA4  3646               	rlcf	(___fldiv@grs+1)^(0+1280),f,c
  8501   005FA6  3647               	rlcf	(___fldiv@grs+2)^(0+1280),f,c
  8502   005FA8  3648               	rlcf	(___fldiv@grs+3)^(0+1280),f,c
  8503   005FAA  0643               	decf	___fldiv@new_exp^(0+1280),f,c
  8504   005FAC  A0D8               	btfss	status,0,c
  8505   005FAE  0644               	decf	(___fldiv@new_exp+1)^(0+1280),f,c
  8506   005FB0                     l3307:
  8507   005FB0  AE34               	btfss	(___fldiv@b+2)^(0+1280),7,c
  8508   005FB2  EFDD  F02F         	goto	u2861
  8509   005FB6  EFDF  F02F         	goto	u2860
  8510   005FBA                     u2861:
  8511   005FBA  EFC3  F02F         	goto	l3301
  8512   005FBE                     u2860:
  8513   005FBE  0E00               	movlw	0
  8514   005FC0  6E4A               	movwf	___fldiv@aexp^(0+1280),c
  8515   005FC2  AE48               	btfss	(___fldiv@grs+3)^(0+1280),7,c
  8516   005FC4  EFE6  F02F         	goto	u2871
  8517   005FC8  EFE8  F02F         	goto	u2870
  8518   005FCC                     u2871:
  8519   005FCC  EF0C  F030         	goto	l1026
  8520   005FD0                     u2870:
  8521   005FD0  0EFF               	movlw	255
  8522   005FD2  1445               	andwf	___fldiv@grs^(0+1280),w,c
  8523   005FD4  6E3A               	movwf	??___fldiv^(0+1280),c
  8524   005FD6  0EFF               	movlw	255
  8525   005FD8  1446               	andwf	(___fldiv@grs+1)^(0+1280),w,c
  8526   005FDA  6E3B               	movwf	(??___fldiv+1)^(0+1280),c
  8527   005FDC  0EFF               	movlw	255
  8528   005FDE  1447               	andwf	(___fldiv@grs+2)^(0+1280),w,c
  8529   005FE0  6E3C               	movwf	(??___fldiv+2)^(0+1280),c
  8530   005FE2  0E7F               	movlw	127
  8531   005FE4  1448               	andwf	(___fldiv@grs+3)^(0+1280),w,c
  8532   005FE6  6E3D               	movwf	(??___fldiv+3)^(0+1280),c
  8533   005FE8  503A               	movf	??___fldiv^(0+1280),w,c
  8534   005FEA  103B               	iorwf	(??___fldiv+1)^(0+1280),w,c
  8535   005FEC  103C               	iorwf	(??___fldiv+2)^(0+1280),w,c
  8536   005FEE  103D               	iorwf	(??___fldiv+3)^(0+1280),w,c
  8537   005FF0  B4D8               	btfsc	status,2,c
  8538   005FF2  EFFD  F02F         	goto	u2881
  8539   005FF6  EFFF  F02F         	goto	u2880
  8540   005FFA                     u2881:
  8541   005FFA  EF03  F030         	goto	l1027
  8542   005FFE                     u2880:
  8543   005FFE                     l3315:
  8544   005FFE  0E01               	movlw	1
  8545   006000  6E4A               	movwf	___fldiv@aexp^(0+1280),c
  8546   006002  EF0C  F030         	goto	l1026
  8547   006006                     l1027:
  8548   006006  A032               	btfss	___fldiv@b^(0+1280),0,c
  8549   006008  EF08  F030         	goto	u2891
  8550   00600C  EF0A  F030         	goto	u2890
  8551   006010                     u2891:
  8552   006010  EF0C  F030         	goto	l1026
  8553   006014                     u2890:
  8554   006014  EFFF  F02F         	goto	l3315
  8555   006018                     l1026:
  8556   006018  504A               	movf	___fldiv@aexp^(0+1280),w,c
  8557   00601A  B4D8               	btfsc	status,2,c
  8558   00601C  EF12  F030         	goto	u2901
  8559   006020  EF14  F030         	goto	u2900
  8560   006024                     u2901:
  8561   006024  EF38  F030         	goto	l3327
  8562   006028                     u2900:
  8563   006028  0E01               	movlw	1
  8564   00602A  2632               	addwf	___fldiv@b^(0+1280),f,c
  8565   00602C  0E00               	movlw	0
  8566   00602E  2233               	addwfc	(___fldiv@b+1)^(0+1280),f,c
  8567   006030  2234               	addwfc	(___fldiv@b+2)^(0+1280),f,c
  8568   006032  2235               	addwfc	(___fldiv@b+3)^(0+1280),f,c
  8569   006034  A035               	btfss	(___fldiv@b+3)^(0+1280),0,c
  8570   006036  EF1F  F030         	goto	u2911
  8571   00603A  EF21  F030         	goto	u2910
  8572   00603E                     u2911:
  8573   00603E  EF38  F030         	goto	l3327
  8574   006042                     u2910:
  8575   006042  C532  F53A         	movff	___fldiv@b,??___fldiv
  8576   006046  C533  F53B         	movff	___fldiv@b+1,??___fldiv+1
  8577   00604A  C534  F53C         	movff	___fldiv@b+2,??___fldiv+2
  8578   00604E  C535  F53D         	movff	___fldiv@b+3,??___fldiv+3
  8579   006052  343D               	rlcf	(??___fldiv+3)^(0+1280),w,c
  8580   006054  323D               	rrcf	(??___fldiv+3)^(0+1280),f,c
  8581   006056  323C               	rrcf	(??___fldiv+2)^(0+1280),f,c
  8582   006058  323B               	rrcf	(??___fldiv+1)^(0+1280),f,c
  8583   00605A  323A               	rrcf	??___fldiv^(0+1280),f,c
  8584   00605C  C53A  F532         	movff	??___fldiv,___fldiv@b
  8585   006060  C53B  F533         	movff	??___fldiv+1,___fldiv@b+1
  8586   006064  C53C  F534         	movff	??___fldiv+2,___fldiv@b+2
  8587   006068  C53D  F535         	movff	??___fldiv+3,___fldiv@b+3
  8588   00606C  4A43               	infsnz	___fldiv@new_exp^(0+1280),f,c
  8589   00606E  2A44               	incf	(___fldiv@new_exp+1)^(0+1280),f,c
  8590   006070                     l3327:
  8591   006070  BE44               	btfsc	(___fldiv@new_exp+1)^(0+1280),7,c
  8592   006072  EF43  F030         	goto	u2921
  8593   006076  5044               	movf	(___fldiv@new_exp+1)^(0+1280),w,c
  8594   006078  E108               	bnz	u2920
  8595   00607A  2843               	incf	___fldiv@new_exp^(0+1280),w,c
  8596   00607C  A0D8               	btfss	status,0,c
  8597   00607E  EF43  F030         	goto	u2921
  8598   006082  EF45  F030         	goto	u2920
  8599   006086                     u2921:
  8600   006086  EF50  F030         	goto	l3331
  8601   00608A                     u2920:
  8602   00608A  0E00               	movlw	0
  8603   00608C  6E44               	movwf	(___fldiv@new_exp+1)^(0+1280),c
  8604   00608E  6843               	setf	___fldiv@new_exp^(0+1280),c
  8605   006090  0E00               	movlw	0
  8606   006092  6E32               	movwf	___fldiv@b^(0+1280),c
  8607   006094  0E00               	movlw	0
  8608   006096  6E33               	movwf	(___fldiv@b+1)^(0+1280),c
  8609   006098  0E00               	movlw	0
  8610   00609A  6E34               	movwf	(___fldiv@b+2)^(0+1280),c
  8611   00609C  0E00               	movlw	0
  8612   00609E  6E35               	movwf	(___fldiv@b+3)^(0+1280),c
  8613   0060A0                     l3331:
  8614   0060A0  BE44               	btfsc	(___fldiv@new_exp+1)^(0+1280),7,c
  8615   0060A2  EF5D  F030         	goto	u2930
  8616   0060A6  5044               	movf	(___fldiv@new_exp+1)^(0+1280),w,c
  8617   0060A8  E106               	bnz	u2931
  8618   0060AA  0443               	decf	___fldiv@new_exp^(0+1280),w,c
  8619   0060AC  B0D8               	btfsc	status,0,c
  8620   0060AE  EF5B  F030         	goto	u2931
  8621   0060B2  EF5D  F030         	goto	u2930
  8622   0060B6                     u2931:
  8623   0060B6  EF6B  F030         	goto	l3335
  8624   0060BA                     u2930:
  8625   0060BA  0E00               	movlw	0
  8626   0060BC  6E44               	movwf	(___fldiv@new_exp+1)^(0+1280),c
  8627   0060BE  0E00               	movlw	0
  8628   0060C0  6E43               	movwf	___fldiv@new_exp^(0+1280),c
  8629   0060C2  0E00               	movlw	0
  8630   0060C4  6E32               	movwf	___fldiv@b^(0+1280),c
  8631   0060C6  0E00               	movlw	0
  8632   0060C8  6E33               	movwf	(___fldiv@b+1)^(0+1280),c
  8633   0060CA  0E00               	movlw	0
  8634   0060CC  6E34               	movwf	(___fldiv@b+2)^(0+1280),c
  8635   0060CE  0E00               	movlw	0
  8636   0060D0  6E35               	movwf	(___fldiv@b+3)^(0+1280),c
  8637   0060D2  0E00               	movlw	0
  8638   0060D4  6E42               	movwf	___fldiv@sign^(0+1280),c
  8639   0060D6                     l3335:
  8640   0060D6  C543  F549         	movff	___fldiv@new_exp,___fldiv@bexp
  8641   0060DA  A049               	btfss	___fldiv@bexp^(0+1280),0,c
  8642   0060DC  EF72  F030         	goto	u2941
  8643   0060E0  EF74  F030         	goto	u2940
  8644   0060E4                     u2941:
  8645   0060E4  EF77  F030         	goto	l3341
  8646   0060E8                     u2940:
  8647   0060E8  8E34               	bsf	(___fldiv@b+2)^(0+1280),7,c
  8648   0060EA  EF78  F030         	goto	l3343
  8649   0060EE                     l3341:
  8650   0060EE  9E34               	bcf	(___fldiv@b+2)^(0+1280),7,c
  8651   0060F0                     l3343:
  8652   0060F0  90D8               	bcf	status,0,c
  8653   0060F2  3049               	rrcf	___fldiv@bexp^(0+1280),w,c
  8654   0060F4  6E35               	movwf	(___fldiv@b+3)^(0+1280),c
  8655   0060F6  EF2E  F02F         	goto	l3257
  8656   0060FA                     l1013:
  8657   0060FA  0012               	return		;funcret
  8658   0060FC                     __end_of___fldiv:
  8659                           	callstack 0
  8660                           
  8661 ;; *************** function ___fltol *****************
  8662 ;; Defined at:
  8663 ;;		line 43 in file "C:\Program Files\Microchip\xc8\v2.40\pic\sources\c99\common\fltol.c"
  8664 ;; Parameters:    Size  Location     Type
  8665 ;;  f1              4   44[BANK5 ] unsigned char 
  8666 ;; Auto vars:     Size  Location     Type
  8667 ;;  exp1            1   88[COMRAM] unsigned char 
  8668 ;;  sign1           1   87[COMRAM] unsigned char 
  8669 ;; Return value:  Size  Location     Type
  8670 ;;                  4   44[BANK5 ] long 
  8671 ;; Registers used:
  8672 ;;		wreg, status,2, status,0
  8673 ;; Tracked objects:
  8674 ;;		On entry : 0/0
  8675 ;;		On exit  : 0/0
  8676 ;;		Unchanged: 0/0
  8677 ;; Data sizes:     COMRAM   BANK5   BANK6   BANK7   BANK8   BANK9  BANK10  BANK11  BANK12  BANK13  BANK14  BANK15  BANK1
      +6  BANK17  BANK18  BANK19  BANK20  BANK21  BANK22  BANK23  BANK24  BANK25  BANK26  BANK27  BANK28  BANK29  BANK30  BANK3
      +1  BANK32  BANK33  BANK34  BANK35  BANK36
  8678 ;;      Params:         0       4       0       0       0       0       0       0       0       0       0       0       
      +0       0       0       0       0       0       0       0       0       0       0       0       0       0       0       
      +0       0       0       0       0       0
  8679 ;;      Locals:         2       0       0       0       0       0       0       0       0       0       0       0       
      +0       0       0       0       0       0       0       0       0       0       0       0       0       0       0       
      +0       0       0       0       0       0
  8680 ;;      Temps:          4       0       0       0       0       0       0       0       0       0       0       0       
      +0       0       0       0       0       0       0       0       0       0       0       0       0       0       0       
      +0       0       0       0       0       0
  8681 ;;      Totals:         6       4       0       0       0       0       0       0       0       0       0       0       
      +0       0       0       0       0       0       0       0       0       0       0       0       0       0       0       
      +0       0       0       0       0       0
  8682 ;;Total ram usage:       10 bytes
  8683 ;; Hardware stack levels used: 1
  8684 ;; Hardware stack levels required when called: 2
  8685 ;; This function calls:
  8686 ;;		Nothing
  8687 ;; This function is called by:
  8688 ;;		_main
  8689 ;; This function uses a non-reentrant model
  8690 ;;
  8691                           
  8692                           	psect	text18
  8693   006602                     __ptext18:
  8694                           	callstack 0
  8695   006602                     ___fltol:
  8696                           	callstack 124
  8697   006602  0105               	movlb	5	; () banked
  8698   006604  358E               	rlcf	(___fltol@f1+2)& (0+255),w,b
  8699   006606  358F               	rlcf	(___fltol@f1+3)& (0+255),w,b
  8700   006608  6E59               	movwf	___fltol@exp1^(0+1280),c
  8701   00660A  5059               	movf	___fltol@exp1^(0+1280),w,c
  8702   00660C  A4D8               	btfss	status,2,c
  8703   00660E  EF0B  F033         	goto	u3871
  8704   006612  EF0D  F033         	goto	u3870
  8705   006616                     u3871:
  8706   006616  EF17  F033         	goto	l4041
  8707   00661A                     u3870:
  8708   00661A                     l4037:
  8709                           
  8710                           ; BSR set to: 5
  8711   00661A  0E00               	movlw	0
  8712   00661C  6F8C               	movwf	?___fltol& (0+255),b
  8713   00661E  0E00               	movlw	0
  8714   006620  6F8D               	movwf	(?___fltol+1)& (0+255),b
  8715   006622  0E00               	movlw	0
  8716   006624  6F8E               	movwf	(?___fltol+2)& (0+255),b
  8717   006626  0E00               	movlw	0
  8718   006628  6F8F               	movwf	(?___fltol+3)& (0+255),b
  8719   00662A  EF84  F033         	goto	l728
  8720   00662E                     l4041:
  8721                           
  8722                           ; BSR set to: 5
  8723   00662E  C58C  F554         	movff	___fltol@f1,??___fltol
  8724   006632  C58D  F555         	movff	___fltol@f1+1,??___fltol+1
  8725   006636  C58E  F556         	movff	___fltol@f1+2,??___fltol+2
  8726   00663A  C58F  F557         	movff	___fltol@f1+3,??___fltol+3
  8727   00663E  0E20               	movlw	32
  8728   006640  EF27  F033         	goto	u3880
  8729   006644                     u3885:
  8730   006644  90D8               	bcf	status,0,c
  8731   006646  3257               	rrcf	(??___fltol+3)^(0+1280),f,c
  8732   006648  3256               	rrcf	(??___fltol+2)^(0+1280),f,c
  8733   00664A  3255               	rrcf	(??___fltol+1)^(0+1280),f,c
  8734   00664C  3254               	rrcf	??___fltol^(0+1280),f,c
  8735   00664E                     u3880:
  8736   00664E  2EE8               	decfsz	wreg,f,c
  8737   006650  EF22  F033         	goto	u3885
  8738   006654  5054               	movf	??___fltol^(0+1280),w,c
  8739   006656  6E58               	movwf	___fltol@sign1^(0+1280),c
  8740   006658                     
  8741                           ; BSR set to: 5
  8742   006658  8F8E               	bsf	(___fltol@f1+2)& (0+255),7,b
  8743   00665A                     
  8744                           ; BSR set to: 5
  8745   00665A  0EFF               	movlw	255
  8746   00665C  178C               	andwf	___fltol@f1& (0+255),f,b
  8747   00665E  0EFF               	movlw	255
  8748   006660  178D               	andwf	(___fltol@f1+1)& (0+255),f,b
  8749   006662  0EFF               	movlw	255
  8750   006664  178E               	andwf	(___fltol@f1+2)& (0+255),f,b
  8751   006666  0E00               	movlw	0
  8752   006668  178F               	andwf	(___fltol@f1+3)& (0+255),f,b
  8753   00666A                     
  8754                           ; BSR set to: 5
  8755   00666A  0E96               	movlw	150
  8756   00666C  5E59               	subwf	___fltol@exp1^(0+1280),f,c
  8757   00666E                     
  8758                           ; BSR set to: 5
  8759   00666E  BE59               	btfsc	___fltol@exp1^(0+1280),7,c
  8760   006670  EF3E  F033         	goto	u3890
  8761   006674  EF3C  F033         	goto	u3891
  8762   006678                     u3891:
  8763   006678  EF54  F033         	goto	l4061
  8764   00667C                     u3890:
  8765   00667C                     
  8766                           ; BSR set to: 5
  8767   00667C  5059               	movf	___fltol@exp1^(0+1280),w,c
  8768   00667E  0A80               	xorlw	128
  8769   006680  0F97               	addlw	151
  8770   006682  B0D8               	btfsc	status,0,c
  8771   006684  EF46  F033         	goto	u3901
  8772   006688  EF48  F033         	goto	u3900
  8773   00668C                     u3901:
  8774   00668C  EF4A  F033         	goto	l4057
  8775   006690                     u3900:
  8776   006690  EF0D  F033         	goto	l4037
  8777   006694                     l4057:
  8778                           
  8779                           ; BSR set to: 5
  8780   006694  90D8               	bcf	status,0,c
  8781   006696  338F               	rrcf	(___fltol@f1+3)& (0+255),f,b
  8782   006698  338E               	rrcf	(___fltol@f1+2)& (0+255),f,b
  8783   00669A  338D               	rrcf	(___fltol@f1+1)& (0+255),f,b
  8784   00669C  338C               	rrcf	___fltol@f1& (0+255),f,b
  8785   00669E                     
  8786                           ; BSR set to: 5
  8787   00669E  3E59               	incfsz	___fltol@exp1^(0+1280),f,c
  8788   0066A0  EF4A  F033         	goto	l4057
  8789   0066A4  EF6C  F033         	goto	l4071
  8790   0066A8                     l4061:
  8791                           
  8792                           ; BSR set to: 5
  8793   0066A8  0E1F               	movlw	31
  8794   0066AA  6459               	cpfsgt	___fltol@exp1^(0+1280),c
  8795   0066AC  EF5A  F033         	goto	u3911
  8796   0066B0  EF5C  F033         	goto	u3910
  8797   0066B4                     u3911:
  8798   0066B4  EF64  F033         	goto	l4069
  8799   0066B8                     u3910:
  8800   0066B8  EF0D  F033         	goto	l4037
  8801   0066BC                     l4067:
  8802                           
  8803                           ; BSR set to: 5
  8804   0066BC  90D8               	bcf	status,0,c
  8805   0066BE  378C               	rlcf	___fltol@f1& (0+255),f,b
  8806   0066C0  378D               	rlcf	(___fltol@f1+1)& (0+255),f,b
  8807   0066C2  378E               	rlcf	(___fltol@f1+2)& (0+255),f,b
  8808   0066C4  378F               	rlcf	(___fltol@f1+3)& (0+255),f,b
  8809   0066C6  0659               	decf	___fltol@exp1^(0+1280),f,c
  8810   0066C8                     l4069:
  8811                           
  8812                           ; BSR set to: 5
  8813   0066C8  5059               	movf	___fltol@exp1^(0+1280),w,c
  8814   0066CA  A4D8               	btfss	status,2,c
  8815   0066CC  EF6A  F033         	goto	u3921
  8816   0066D0  EF6C  F033         	goto	u3920
  8817   0066D4                     u3921:
  8818   0066D4  EF5E  F033         	goto	l4067
  8819   0066D8                     u3920:
  8820   0066D8                     l4071:
  8821                           
  8822                           ; BSR set to: 5
  8823   0066D8  5058               	movf	___fltol@sign1^(0+1280),w,c
  8824   0066DA  B4D8               	btfsc	status,2,c
  8825   0066DC  EF72  F033         	goto	u3931
  8826   0066E0  EF74  F033         	goto	u3930
  8827   0066E4                     u3931:
  8828   0066E4  EF7C  F033         	goto	l4075
  8829   0066E8                     u3930:
  8830   0066E8                     
  8831                           ; BSR set to: 5
  8832   0066E8  1F8F               	comf	(___fltol@f1+3)& (0+255),f,b
  8833   0066EA  1F8E               	comf	(___fltol@f1+2)& (0+255),f,b
  8834   0066EC  1F8D               	comf	(___fltol@f1+1)& (0+255),f,b
  8835   0066EE  6D8C               	negf	___fltol@f1& (0+255),b
  8836   0066F0  0E00               	movlw	0
  8837   0066F2  238D               	addwfc	(___fltol@f1+1)& (0+255),f,b
  8838   0066F4  238E               	addwfc	(___fltol@f1+2)& (0+255),f,b
  8839   0066F6  238F               	addwfc	(___fltol@f1+3)& (0+255),f,b
  8840   0066F8                     l4075:
  8841                           
  8842                           ; BSR set to: 5
  8843   0066F8  C58C  F58C         	movff	___fltol@f1,?___fltol
  8844   0066FC  C58D  F58D         	movff	___fltol@f1+1,?___fltol+1
  8845   006700  C58E  F58E         	movff	___fltol@f1+2,?___fltol+2
  8846   006704  C58F  F58F         	movff	___fltol@f1+3,?___fltol+3
  8847   006708                     l728:
  8848                           
  8849                           ; BSR set to: 5
  8850   006708  0012               	return		;funcret
  8851   00670A                     __end_of___fltol:
  8852                           	callstack 0
  8853                           
  8854 ;; *************** function _SYSTEM_Initialize *****************
  8855 ;; Defined at:
  8856 ;;		line 37 in file "mcc_generated_files/system/src/system.c"
  8857 ;; Parameters:    Size  Location     Type
  8858 ;;		None
  8859 ;; Auto vars:     Size  Location     Type
  8860 ;;		None
  8861 ;; Return value:  Size  Location     Type
  8862 ;;                  1    wreg      void 
  8863 ;; Registers used:
  8864 ;;		wreg, status,2, status,0, cstack
  8865 ;; Tracked objects:
  8866 ;;		On entry : 0/0
  8867 ;;		On exit  : 0/0
  8868 ;;		Unchanged: 0/0
  8869 ;; Data sizes:     COMRAM   BANK5   BANK6   BANK7   BANK8   BANK9  BANK10  BANK11  BANK12  BANK13  BANK14  BANK15  BANK1
      +6  BANK17  BANK18  BANK19  BANK20  BANK21  BANK22  BANK23  BANK24  BANK25  BANK26  BANK27  BANK28  BANK29  BANK30  BANK3
      +1  BANK32  BANK33  BANK34  BANK35  BANK36
  8870 ;;      Params:         0       0       0       0       0       0       0       0       0       0       0       0       
      +0       0       0       0       0       0       0       0       0       0       0       0       0       0       0       
      +0       0       0       0       0       0
  8871 ;;      Locals:         0       0       0       0       0       0       0       0       0       0       0       0       
      +0       0       0       0       0       0       0       0       0       0       0       0       0       0       0       
      +0       0       0       0       0       0
  8872 ;;      Temps:          0       0       0       0       0       0       0       0       0       0       0       0       
      +0       0       0       0       0       0       0       0       0       0       0       0       0       0       0       
      +0       0       0       0       0       0
  8873 ;;      Totals:         0       0       0       0       0       0       0       0       0       0       0       0       
      +0       0       0       0       0       0       0       0       0       0       0       0       0       0       0       
      +0       0       0       0       0       0
  8874 ;;Total ram usage:        0 bytes
  8875 ;; Hardware stack levels used: 1
  8876 ;; Hardware stack levels required when called: 4
  8877 ;; This function calls:
  8878 ;;		_CLOCK_Initialize
  8879 ;;		_INTERRUPT_Initialize
  8880 ;;		_PIN_MANAGER_Initialize
  8881 ;;		_SPI1_Initialize
  8882 ;; This function is called by:
  8883 ;;		_main
  8884 ;; This function uses a non-reentrant model
  8885 ;;
  8886                           
  8887                           	psect	text19
  8888   006C08                     __ptext19:
  8889                           	callstack 0
  8890   006C08                     _SYSTEM_Initialize:
  8891                           	callstack 122
  8892   006C08                     
  8893                           ;mcc_generated_files/system/src/system.c: 39:     CLOCK_Initialize();
  8894   006C08  ECE9  F035         	call	_CLOCK_Initialize	;wreg free
  8895                           
  8896                           ;mcc_generated_files/system/src/system.c: 40:     PIN_MANAGER_Initialize();
  8897   006C0C  EC07  F034         	call	_PIN_MANAGER_Initialize	;wreg free
  8898                           
  8899                           ;mcc_generated_files/system/src/system.c: 41:     SPI1_Initialize();
  8900   006C10  ECF7  F035         	call	_SPI1_Initialize	;wreg free
  8901   006C14                     
  8902                           ;mcc_generated_files/system/src/system.c: 42:     INTERRUPT_Initialize();
  8903   006C14  EC38  F035         	call	_INTERRUPT_Initialize	;wreg free
  8904   006C18  0012               	return		;funcret
  8905   006C1A                     __end_of_SYSTEM_Initialize:
  8906                           	callstack 0
  8907                           
  8908 ;; *************** function _SPI1_Initialize *****************
  8909 ;; Defined at:
  8910 ;;		line 70 in file "mcc_generated_files/spi/src/spi1.c"
  8911 ;; Parameters:    Size  Location     Type
  8912 ;;		None
  8913 ;; Auto vars:     Size  Location     Type
  8914 ;;		None
  8915 ;; Return value:  Size  Location     Type
  8916 ;;                  1    wreg      void 
  8917 ;; Registers used:
  8918 ;;		wreg, status,2
  8919 ;; Tracked objects:
  8920 ;;		On entry : 0/0
  8921 ;;		On exit  : 0/0
  8922 ;;		Unchanged: 0/0
  8923 ;; Data sizes:     COMRAM   BANK5   BANK6   BANK7   BANK8   BANK9  BANK10  BANK11  BANK12  BANK13  BANK14  BANK15  BANK1
      +6  BANK17  BANK18  BANK19  BANK20  BANK21  BANK22  BANK23  BANK24  BANK25  BANK26  BANK27  BANK28  BANK29  BANK30  BANK3
      +1  BANK32  BANK33  BANK34  BANK35  BANK36
  8924 ;;      Params:         0       0       0       0       0       0       0       0       0       0       0       0       
      +0       0       0       0       0       0       0       0       0       0       0       0       0       0       0       
      +0       0       0       0       0       0
  8925 ;;      Locals:         0       0       0       0       0       0       0       0       0       0       0       0       
      +0       0       0       0       0       0       0       0       0       0       0       0       0       0       0       
      +0       0       0       0       0       0
  8926 ;;      Temps:          0       0       0       0       0       0       0       0       0       0       0       0       
      +0       0       0       0       0       0       0       0       0       0       0       0       0       0       0       
      +0       0       0       0       0       0
  8927 ;;      Totals:         0       0       0       0       0       0       0       0       0       0       0       0       
      +0       0       0       0       0       0       0       0       0       0       0       0       0       0       0       
      +0       0       0       0       0       0
  8928 ;;Total ram usage:        0 bytes
  8929 ;; Hardware stack levels used: 1
  8930 ;; Hardware stack levels required when called: 2
  8931 ;; This function calls:
  8932 ;;		Nothing
  8933 ;; This function is called by:
  8934 ;;		_SYSTEM_Initialize
  8935 ;;		_main
  8936 ;; This function uses a non-reentrant model
  8937 ;;
  8938                           
  8939                           	psect	text20
  8940   006BEE                     __ptext20:
  8941                           	callstack 0
  8942   006BEE                     _SPI1_Initialize:
  8943                           	callstack 123
  8944   006BEE                     
  8945                           ;mcc_generated_files/spi/src/spi1.c: 73:     SPI1CON1 = 0x40;
  8946   006BEE  0E40               	movlw	64
  8947   006BF0  0100               	movlb	0	; () banked
  8948   006BF2  6F85               	movwf	133,b	;volatile
  8949                           
  8950                           ;mcc_generated_files/spi/src/spi1.c: 75:     SPI1CON2 = 0x0;
  8951   006BF4  0E00               	movlw	0
  8952   006BF6  6F86               	movwf	134,b	;volatile
  8953                           
  8954                           ;mcc_generated_files/spi/src/spi1.c: 77:     SPI1CLK = 0x1;
  8955   006BF8  0E01               	movlw	1
  8956   006BFA  6F8C               	movwf	140,b	;volatile
  8957                           
  8958                           ;mcc_generated_files/spi/src/spi1.c: 79:     SPI1BAUD = 0xF;
  8959   006BFC  0E0F               	movlw	15
  8960   006BFE  6F89               	movwf	137,b	;volatile
  8961   006C00                     
  8962                           ; BSR set to: 0
  8963                           ;mcc_generated_files/spi/src/spi1.c: 80:     TRISCbits.TRISC3 = 0;
  8964   006C00  96C8               	bcf	200,3,c	;volatile
  8965                           
  8966                           ;mcc_generated_files/spi/src/spi1.c: 82:     SPI1CON0 = 0x2;
  8967   006C02  0E02               	movlw	2
  8968   006C04  6F84               	movwf	132,b	;volatile
  8969   006C06                     
  8970                           ; BSR set to: 0
  8971   006C06  0012               	return		;funcret
  8972   006C08                     __end_of_SPI1_Initialize:
  8973                           	callstack 0
  8974                           
  8975 ;; *************** function _PIN_MANAGER_Initialize *****************
  8976 ;; Defined at:
  8977 ;;		line 38 in file "mcc_generated_files/system/src/pins.c"
  8978 ;; Parameters:    Size  Location     Type
  8979 ;;		None
  8980 ;; Auto vars:     Size  Location     Type
  8981 ;;		None
  8982 ;; Return value:  Size  Location     Type
  8983 ;;                  1    wreg      void 
  8984 ;; Registers used:
  8985 ;;		wreg, status,2
  8986 ;; Tracked objects:
  8987 ;;		On entry : 0/0
  8988 ;;		On exit  : 0/0
  8989 ;;		Unchanged: 0/0
  8990 ;; Data sizes:     COMRAM   BANK5   BANK6   BANK7   BANK8   BANK9  BANK10  BANK11  BANK12  BANK13  BANK14  BANK15  BANK1
      +6  BANK17  BANK18  BANK19  BANK20  BANK21  BANK22  BANK23  BANK24  BANK25  BANK26  BANK27  BANK28  BANK29  BANK30  BANK3
      +1  BANK32  BANK33  BANK34  BANK35  BANK36
  8991 ;;      Params:         0       0       0       0       0       0       0       0       0       0       0       0       
      +0       0       0       0       0       0       0       0       0       0       0       0       0       0       0       
      +0       0       0       0       0       0
  8992 ;;      Locals:         0       0       0       0       0       0       0       0       0       0       0       0       
      +0       0       0       0       0       0       0       0       0       0       0       0       0       0       0       
      +0       0       0       0       0       0
  8993 ;;      Temps:          0       0       0       0       0       0       0       0       0       0       0       0       
      +0       0       0       0       0       0       0       0       0       0       0       0       0       0       0       
      +0       0       0       0       0       0
  8994 ;;      Totals:         0       0       0       0       0       0       0       0       0       0       0       0       
      +0       0       0       0       0       0       0       0       0       0       0       0       0       0       0       
      +0       0       0       0       0       0
  8995 ;;Total ram usage:        0 bytes
  8996 ;; Hardware stack levels used: 1
  8997 ;; Hardware stack levels required when called: 2
  8998 ;; This function calls:
  8999 ;;		Nothing
  9000 ;; This function is called by:
  9001 ;;		_SYSTEM_Initialize
  9002 ;; This function uses a non-reentrant model
  9003 ;;
  9004                           
  9005                           	psect	text21
  9006   00680E                     __ptext21:
  9007                           	callstack 0
  9008   00680E                     _PIN_MANAGER_Initialize:
  9009                           	callstack 123
  9010   00680E                     
  9011                           ;mcc_generated_files/system/src/pins.c: 43:     LATA = 0x0;
  9012   00680E  0E00               	movlw	0
  9013   006810  6EBE               	movwf	190,c	;volatile
  9014                           
  9015                           ;mcc_generated_files/system/src/pins.c: 44:     LATB = 0x0;
  9016   006812  0E00               	movlw	0
  9017   006814  6EBF               	movwf	191,c	;volatile
  9018                           
  9019                           ;mcc_generated_files/system/src/pins.c: 45:     LATC = 0x0;
  9020   006816  0E00               	movlw	0
  9021   006818  6EC0               	movwf	192,c	;volatile
  9022                           
  9023                           ;mcc_generated_files/system/src/pins.c: 46:     LATD = 0x6;
  9024   00681A  0E06               	movlw	6
  9025   00681C  6EC1               	movwf	193,c	;volatile
  9026                           
  9027                           ;mcc_generated_files/system/src/pins.c: 47:     LATE = 0x0;
  9028   00681E  0E00               	movlw	0
  9029   006820  6EC2               	movwf	194,c	;volatile
  9030                           
  9031                           ;mcc_generated_files/system/src/pins.c: 48:     LATF = 0x0;
  9032   006822  0E00               	movlw	0
  9033   006824  6EC3               	movwf	195,c	;volatile
  9034   006826                     
  9035                           ;mcc_generated_files/system/src/pins.c: 53:     TRISA = 0xFF;
  9036   006826  68C6               	setf	198,c	;volatile
  9037   006828                     
  9038                           ;mcc_generated_files/system/src/pins.c: 54:     TRISB = 0xFF;
  9039   006828  68C7               	setf	199,c	;volatile
  9040                           
  9041                           ;mcc_generated_files/system/src/pins.c: 55:     TRISC = 0xDF;
  9042   00682A  0EDF               	movlw	223
  9043   00682C  6EC8               	movwf	200,c	;volatile
  9044                           
  9045                           ;mcc_generated_files/system/src/pins.c: 56:     TRISD = 0xF8;
  9046   00682E  0EF8               	movlw	248
  9047   006830  6EC9               	movwf	201,c	;volatile
  9048                           
  9049                           ;mcc_generated_files/system/src/pins.c: 57:     TRISE = 0xF;
  9050   006832  0E0F               	movlw	15
  9051   006834  6ECA               	movwf	202,c	;volatile
  9052   006836                     
  9053                           ;mcc_generated_files/system/src/pins.c: 58:     TRISF = 0xFF;
  9054   006836  68CB               	setf	203,c	;volatile
  9055   006838                     
  9056                           ;mcc_generated_files/system/src/pins.c: 63:     ANSELA = 0xFF;
  9057   006838  0104               	movlb	4	; () banked
  9058   00683A  6900               	setf	0,b	;volatile
  9059                           
  9060                           ;mcc_generated_files/system/src/pins.c: 64:     ANSELB = 0xEF;
  9061   00683C  0EEF               	movlw	239
  9062   00683E  6F08               	movwf	8,b	;volatile
  9063                           
  9064                           ;mcc_generated_files/system/src/pins.c: 65:     ANSELC = 0xC7;
  9065   006840  0EC7               	movlw	199
  9066   006842  6F10               	movwf	16,b	;volatile
  9067                           
  9068                           ;mcc_generated_files/system/src/pins.c: 66:     ANSELD = 0xF8;
  9069   006844  0EF8               	movlw	248
  9070   006846  6F18               	movwf	24,b	;volatile
  9071                           
  9072                           ;mcc_generated_files/system/src/pins.c: 67:     ANSELE = 0x7;
  9073   006848  0E07               	movlw	7
  9074   00684A  6F20               	movwf	32,b	;volatile
  9075   00684C                     
  9076                           ; BSR set to: 4
  9077                           ;mcc_generated_files/system/src/pins.c: 68:     ANSELF = 0xFF;
  9078   00684C  6928               	setf	40,b	;volatile
  9079                           
  9080                           ;mcc_generated_files/system/src/pins.c: 73:     WPUA = 0x0;
  9081   00684E  0E00               	movlw	0
  9082   006850  6F01               	movwf	1,b	;volatile
  9083                           
  9084                           ;mcc_generated_files/system/src/pins.c: 74:     WPUB = 0x10;
  9085   006852  0E10               	movlw	16
  9086   006854  6F09               	movwf	9,b	;volatile
  9087                           
  9088                           ;mcc_generated_files/system/src/pins.c: 75:     WPUC = 0x0;
  9089   006856  0E00               	movlw	0
  9090   006858  6F11               	movwf	17,b	;volatile
  9091                           
  9092                           ;mcc_generated_files/system/src/pins.c: 76:     WPUD = 0x0;
  9093   00685A  0E00               	movlw	0
  9094   00685C  6F19               	movwf	25,b	;volatile
  9095                           
  9096                           ;mcc_generated_files/system/src/pins.c: 77:     WPUE = 0x0;
  9097   00685E  0E00               	movlw	0
  9098   006860  6F21               	movwf	33,b	;volatile
  9099                           
  9100                           ;mcc_generated_files/system/src/pins.c: 78:     WPUF = 0x0;
  9101   006862  0E00               	movlw	0
  9102   006864  6F29               	movwf	41,b	;volatile
  9103                           
  9104                           ;mcc_generated_files/system/src/pins.c: 83:     ODCONA = 0x0;
  9105   006866  0E00               	movlw	0
  9106   006868  6F02               	movwf	2,b	;volatile
  9107                           
  9108                           ;mcc_generated_files/system/src/pins.c: 84:     ODCONB = 0x0;
  9109   00686A  0E00               	movlw	0
  9110   00686C  6F0A               	movwf	10,b	;volatile
  9111                           
  9112                           ;mcc_generated_files/system/src/pins.c: 85:     ODCONC = 0x0;
  9113   00686E  0E00               	movlw	0
  9114   006870  6F12               	movwf	18,b	;volatile
  9115                           
  9116                           ;mcc_generated_files/system/src/pins.c: 86:     ODCOND = 0x0;
  9117   006872  0E00               	movlw	0
  9118   006874  6F1A               	movwf	26,b	;volatile
  9119                           
  9120                           ;mcc_generated_files/system/src/pins.c: 87:     ODCONE = 0x0;
  9121   006876  0E00               	movlw	0
  9122   006878  6F22               	movwf	34,b	;volatile
  9123                           
  9124                           ;mcc_generated_files/system/src/pins.c: 88:     ODCONF = 0x0;
  9125   00687A  0E00               	movlw	0
  9126   00687C  6F2A               	movwf	42,b	;volatile
  9127   00687E                     
  9128                           ; BSR set to: 4
  9129                           ;mcc_generated_files/system/src/pins.c: 93:     SLRCONA = 0xFF;
  9130   00687E  6903               	setf	3,b	;volatile
  9131   006880                     
  9132                           ; BSR set to: 4
  9133                           ;mcc_generated_files/system/src/pins.c: 94:     SLRCONB = 0xFF;
  9134   006880  690B               	setf	11,b	;volatile
  9135   006882                     
  9136                           ; BSR set to: 4
  9137                           ;mcc_generated_files/system/src/pins.c: 95:     SLRCONC = 0xFF;
  9138   006882  6913               	setf	19,b	;volatile
  9139   006884                     
  9140                           ; BSR set to: 4
  9141                           ;mcc_generated_files/system/src/pins.c: 96:     SLRCOND = 0xFF;
  9142   006884  691B               	setf	27,b	;volatile
  9143                           
  9144                           ;mcc_generated_files/system/src/pins.c: 97:     SLRCONE = 0x7;
  9145   006886  0E07               	movlw	7
  9146   006888  6F23               	movwf	35,b	;volatile
  9147   00688A                     
  9148                           ; BSR set to: 4
  9149                           ;mcc_generated_files/system/src/pins.c: 98:     SLRCONF = 0xFF;
  9150   00688A  692B               	setf	43,b	;volatile
  9151   00688C                     
  9152                           ; BSR set to: 4
  9153                           ;mcc_generated_files/system/src/pins.c: 103:     INLVLA = 0xFF;
  9154   00688C  6904               	setf	4,b	;volatile
  9155   00688E                     
  9156                           ; BSR set to: 4
  9157                           ;mcc_generated_files/system/src/pins.c: 104:     INLVLB = 0xFF;
  9158   00688E  690C               	setf	12,b	;volatile
  9159   006890                     
  9160                           ; BSR set to: 4
  9161                           ;mcc_generated_files/system/src/pins.c: 105:     INLVLC = 0xFF;
  9162   006890  6914               	setf	20,b	;volatile
  9163   006892                     
  9164                           ; BSR set to: 4
  9165                           ;mcc_generated_files/system/src/pins.c: 106:     INLVLD = 0xFF;
  9166   006892  691C               	setf	28,b	;volatile
  9167                           
  9168                           ;mcc_generated_files/system/src/pins.c: 107:     INLVLE = 0xF;
  9169   006894  0E0F               	movlw	15
  9170   006896  6F24               	movwf	36,b	;volatile
  9171   006898                     
  9172                           ; BSR set to: 4
  9173                           ;mcc_generated_files/system/src/pins.c: 108:     INLVLF = 0xFF;
  9174   006898  692C               	setf	44,b	;volatile
  9175                           
  9176                           ;mcc_generated_files/system/src/pins.c: 113:     RB1I2C = 0x0;
  9177   00689A  0E00               	movlw	0
  9178   00689C  0102               	movlb	2	; () banked
  9179   00689E  6F89               	movwf	137,b	;volatile
  9180                           
  9181                           ;mcc_generated_files/system/src/pins.c: 114:     RB2I2C = 0x0;
  9182   0068A0  0E00               	movlw	0
  9183   0068A2  6F88               	movwf	136,b	;volatile
  9184                           
  9185                           ;mcc_generated_files/system/src/pins.c: 115:     RC3I2C = 0x0;
  9186   0068A4  0E00               	movlw	0
  9187   0068A6  6F87               	movwf	135,b	;volatile
  9188                           
  9189                           ;mcc_generated_files/system/src/pins.c: 116:     RC4I2C = 0x0;
  9190   0068A8  0E00               	movlw	0
  9191   0068AA  6F86               	movwf	134,b	;volatile
  9192                           
  9193                           ;mcc_generated_files/system/src/pins.c: 120:     SPI1SDIPPS = 0x14;
  9194   0068AC  0E14               	movlw	20
  9195   0068AE  6F6B               	movwf	107,b	;volatile
  9196                           
  9197                           ;mcc_generated_files/system/src/pins.c: 121:     RC5PPS = 0x32;
  9198   0068B0  0E32               	movlw	50
  9199   0068B2  6F16               	movwf	22,b	;volatile
  9200                           
  9201                           ;mcc_generated_files/system/src/pins.c: 122:     SPI1SCKPPS = 0x13;
  9202   0068B4  0E13               	movlw	19
  9203   0068B6  6F6A               	movwf	106,b	;volatile
  9204                           
  9205                           ;mcc_generated_files/system/src/pins.c: 123:     RC3PPS = 0x31;
  9206   0068B8  0E31               	movlw	49
  9207   0068BA  6F14               	movwf	20,b	;volatile
  9208                           
  9209                           ;mcc_generated_files/system/src/pins.c: 128:     IOCAP = 0x0;
  9210   0068BC  0E00               	movlw	0
  9211   0068BE  0104               	movlb	4	; () banked
  9212   0068C0  6F05               	movwf	5,b	;volatile
  9213                           
  9214                           ;mcc_generated_files/system/src/pins.c: 129:     IOCAN = 0x0;
  9215   0068C2  0E00               	movlw	0
  9216   0068C4  6F06               	movwf	6,b	;volatile
  9217                           
  9218                           ;mcc_generated_files/system/src/pins.c: 130:     IOCAF = 0x0;
  9219   0068C6  0E00               	movlw	0
  9220   0068C8  6F07               	movwf	7,b	;volatile
  9221                           
  9222                           ;mcc_generated_files/system/src/pins.c: 131:     IOCBP = 0x0;
  9223   0068CA  0E00               	movlw	0
  9224   0068CC  6F0D               	movwf	13,b	;volatile
  9225                           
  9226                           ;mcc_generated_files/system/src/pins.c: 132:     IOCBN = 0x0;
  9227   0068CE  0E00               	movlw	0
  9228   0068D0  6F0E               	movwf	14,b	;volatile
  9229                           
  9230                           ;mcc_generated_files/system/src/pins.c: 133:     IOCBF = 0x0;
  9231   0068D2  0E00               	movlw	0
  9232   0068D4  6F0F               	movwf	15,b	;volatile
  9233                           
  9234                           ;mcc_generated_files/system/src/pins.c: 134:     IOCCP = 0x0;
  9235   0068D6  0E00               	movlw	0
  9236   0068D8  6F15               	movwf	21,b	;volatile
  9237                           
  9238                           ;mcc_generated_files/system/src/pins.c: 135:     IOCCN = 0x0;
  9239   0068DA  0E00               	movlw	0
  9240   0068DC  6F16               	movwf	22,b	;volatile
  9241                           
  9242                           ;mcc_generated_files/system/src/pins.c: 136:     IOCCF = 0x0;
  9243   0068DE  0E00               	movlw	0
  9244   0068E0  6F17               	movwf	23,b	;volatile
  9245                           
  9246                           ;mcc_generated_files/system/src/pins.c: 137:     IOCEP = 0x0;
  9247   0068E2  0E00               	movlw	0
  9248   0068E4  6F25               	movwf	37,b	;volatile
  9249                           
  9250                           ;mcc_generated_files/system/src/pins.c: 138:     IOCEN = 0x0;
  9251   0068E6  0E00               	movlw	0
  9252   0068E8  6F26               	movwf	38,b	;volatile
  9253                           
  9254                           ;mcc_generated_files/system/src/pins.c: 139:     IOCEF = 0x0;
  9255   0068EA  0E00               	movlw	0
  9256   0068EC  6F27               	movwf	39,b	;volatile
  9257   0068EE                     
  9258                           ; BSR set to: 4
  9259   0068EE  0012               	return		;funcret
  9260   0068F0                     __end_of_PIN_MANAGER_Initialize:
  9261                           	callstack 0
  9262                           
  9263 ;; *************** function _INTERRUPT_Initialize *****************
  9264 ;; Defined at:
  9265 ;;		line 42 in file "mcc_generated_files/system/src/interrupt.c"
  9266 ;; Parameters:    Size  Location     Type
  9267 ;;		None
  9268 ;; Auto vars:     Size  Location     Type
  9269 ;;		None
  9270 ;; Return value:  Size  Location     Type
  9271 ;;                  1    wreg      void 
  9272 ;; Registers used:
  9273 ;;		wreg, status,2, status,0, cstack
  9274 ;; Tracked objects:
  9275 ;;		On entry : 0/0
  9276 ;;		On exit  : 0/0
  9277 ;;		Unchanged: 0/0
  9278 ;; Data sizes:     COMRAM   BANK5   BANK6   BANK7   BANK8   BANK9  BANK10  BANK11  BANK12  BANK13  BANK14  BANK15  BANK1
      +6  BANK17  BANK18  BANK19  BANK20  BANK21  BANK22  BANK23  BANK24  BANK25  BANK26  BANK27  BANK28  BANK29  BANK30  BANK3
      +1  BANK32  BANK33  BANK34  BANK35  BANK36
  9279 ;;      Params:         0       0       0       0       0       0       0       0       0       0       0       0       
      +0       0       0       0       0       0       0       0       0       0       0       0       0       0       0       
      +0       0       0       0       0       0
  9280 ;;      Locals:         0       0       0       0       0       0       0       0       0       0       0       0       
      +0       0       0       0       0       0       0       0       0       0       0       0       0       0       0       
      +0       0       0       0       0       0
  9281 ;;      Temps:          0       0       0       0       0       0       0       0       0       0       0       0       
      +0       0       0       0       0       0       0       0       0       0       0       0       0       0       0       
      +0       0       0       0       0       0
  9282 ;;      Totals:         0       0       0       0       0       0       0       0       0       0       0       0       
      +0       0       0       0       0       0       0       0       0       0       0       0       0       0       0       
      +0       0       0       0       0       0
  9283 ;;Total ram usage:        0 bytes
  9284 ;; Hardware stack levels used: 1
  9285 ;; Hardware stack levels required when called: 3
  9286 ;; This function calls:
  9287 ;;		_INT0_SetInterruptHandler
  9288 ;;		_INT1_SetInterruptHandler
  9289 ;;		_INT2_SetInterruptHandler
  9290 ;; This function is called by:
  9291 ;;		_SYSTEM_Initialize
  9292 ;; This function uses a non-reentrant model
  9293 ;;
  9294                           
  9295                           	psect	text22
  9296   006A70                     __ptext22:
  9297                           	callstack 0
  9298   006A70                     _INTERRUPT_Initialize:
  9299                           	callstack 122
  9300   006A70                     
  9301                           ;mcc_generated_files/system/src/interrupt.c: 45:     INTCON0bits.IPEN = 0;
  9302   006A70  9AD6               	bcf	214,5,c	;volatile
  9303                           
  9304                           ;mcc_generated_files/system/src/interrupt.c: 49:     (PIR1bits.INT0IF = 0);
  9305   006A72  90AF               	bcf	175,0,c	;volatile
  9306                           
  9307                           ;mcc_generated_files/system/src/interrupt.c: 50:     (INTCON0bits.INT0EDG = 1);
  9308   006A74  80D6               	bsf	214,0,c	;volatile
  9309   006A76                     
  9310                           ;mcc_generated_files/system/src/interrupt.c: 52:     INT0_SetInterruptHandler(INT0_Defau
      +                          ltInterruptHandler);
  9311   006A76  0E00               	movlw	0
  9312   006A78  6E01               	movwf	INT0_SetInterruptHandler@InterruptHandler^(0+1280),c
  9313   006A7A  0E00               	movlw	0
  9314   006A7C  6E02               	movwf	(INT0_SetInterruptHandler@InterruptHandler+1)^(0+1280),c
  9315   006A7E  0E00               	movlw	0
  9316   006A80  6E03               	movwf	(INT0_SetInterruptHandler@InterruptHandler+2)^(0+1280),c
  9317   006A82  EC1B  F036         	call	_INT0_SetInterruptHandler	;wreg free
  9318   006A86                     
  9319                           ;mcc_generated_files/system/src/interrupt.c: 57:     (PIR6bits.INT1IF = 0);
  9320   006A86  90B4               	bcf	180,0,c	;volatile
  9321   006A88                     
  9322                           ;mcc_generated_files/system/src/interrupt.c: 58:     (INTCON0bits.INT1EDG = 1);
  9323   006A88  82D6               	bsf	214,1,c	;volatile
  9324                           
  9325                           ;mcc_generated_files/system/src/interrupt.c: 60:     INT1_SetInterruptHandler(INT1_Defau
      +                          ltInterruptHandler);
  9326   006A8A  0E00               	movlw	0
  9327   006A8C  6E01               	movwf	INT1_SetInterruptHandler@InterruptHandler^(0+1280),c
  9328   006A8E  0E00               	movlw	0
  9329   006A90  6E02               	movwf	(INT1_SetInterruptHandler@InterruptHandler+1)^(0+1280),c
  9330   006A92  0E00               	movlw	0
  9331   006A94  6E03               	movwf	(INT1_SetInterruptHandler@InterruptHandler+2)^(0+1280),c
  9332   006A96  EC14  F036         	call	_INT1_SetInterruptHandler	;wreg free
  9333   006A9A                     
  9334                           ;mcc_generated_files/system/src/interrupt.c: 65:     (PIR10bits.INT2IF = 0);
  9335   006A9A  90B8               	bcf	184,0,c	;volatile
  9336   006A9C                     
  9337                           ;mcc_generated_files/system/src/interrupt.c: 66:     (INTCON0bits.INT2EDG = 1);
  9338   006A9C  84D6               	bsf	214,2,c	;volatile
  9339                           
  9340                           ;mcc_generated_files/system/src/interrupt.c: 68:     INT2_SetInterruptHandler(INT2_Defau
      +                          ltInterruptHandler);
  9341   006A9E  0E00               	movlw	0
  9342   006AA0  6E01               	movwf	INT2_SetInterruptHandler@InterruptHandler^(0+1280),c
  9343   006AA2  0E00               	movlw	0
  9344   006AA4  6E02               	movwf	(INT2_SetInterruptHandler@InterruptHandler+1)^(0+1280),c
  9345   006AA6  0E00               	movlw	0
  9346   006AA8  6E03               	movwf	(INT2_SetInterruptHandler@InterruptHandler+2)^(0+1280),c
  9347   006AAA  EC0D  F036         	call	_INT2_SetInterruptHandler	;wreg free
  9348   006AAE  0012               	return		;funcret
  9349   006AB0                     __end_of_INTERRUPT_Initialize:
  9350                           	callstack 0
  9351                           
  9352 ;; *************** function _INT2_SetInterruptHandler *****************
  9353 ;; Defined at:
  9354 ;;		line 163 in file "mcc_generated_files/system/src/interrupt.c"
  9355 ;; Parameters:    Size  Location     Type
  9356 ;;  InterruptHan    3    0[COMRAM] PTR FTN()void 
  9357 ;;		 -> INT2_DefaultInterruptHandler(1), 
  9358 ;; Auto vars:     Size  Location     Type
  9359 ;;		None
  9360 ;; Return value:  Size  Location     Type
  9361 ;;                  1    wreg      void 
  9362 ;; Registers used:
  9363 ;;		wreg, status,2, status,0
  9364 ;; Tracked objects:
  9365 ;;		On entry : 0/0
  9366 ;;		On exit  : 0/0
  9367 ;;		Unchanged: 0/0
  9368 ;; Data sizes:     COMRAM   BANK5   BANK6   BANK7   BANK8   BANK9  BANK10  BANK11  BANK12  BANK13  BANK14  BANK15  BANK1
      +6  BANK17  BANK18  BANK19  BANK20  BANK21  BANK22  BANK23  BANK24  BANK25  BANK26  BANK27  BANK28  BANK29  BANK30  BANK3
      +1  BANK32  BANK33  BANK34  BANK35  BANK36
  9369 ;;      Params:         3       0       0       0       0       0       0       0       0       0       0       0       
      +0       0       0       0       0       0       0       0       0       0       0       0       0       0       0       
      +0       0       0       0       0       0
  9370 ;;      Locals:         0       0       0       0       0       0       0       0       0       0       0       0       
      +0       0       0       0       0       0       0       0       0       0       0       0       0       0       0       
      +0       0       0       0       0       0
  9371 ;;      Temps:          0       0       0       0       0       0       0       0       0       0       0       0       
      +0       0       0       0       0       0       0       0       0       0       0       0       0       0       0       
      +0       0       0       0       0       0
  9372 ;;      Totals:         3       0       0       0       0       0       0       0       0       0       0       0       
      +0       0       0       0       0       0       0       0       0       0       0       0       0       0       0       
      +0       0       0       0       0       0
  9373 ;;Total ram usage:        3 bytes
  9374 ;; Hardware stack levels used: 1
  9375 ;; Hardware stack levels required when called: 2
  9376 ;; This function calls:
  9377 ;;		Nothing
  9378 ;; This function is called by:
  9379 ;;		_INTERRUPT_Initialize
  9380 ;; This function uses a non-reentrant model
  9381 ;;
  9382                           
  9383                           	psect	text23
  9384   006C1A                     __ptext23:
  9385                           	callstack 0
  9386   006C1A                     _INT2_SetInterruptHandler:
  9387                           	callstack 122
  9388   006C1A                     
  9389                           ;mcc_generated_files/system/src/interrupt.c: 164:     INT2_InterruptHandler = InterruptH
      +                          andler;
  9390   006C1A  C501  F597         	movff	INT2_SetInterruptHandler@InterruptHandler,_INT2_InterruptHandler
  9391   006C1E  C502  F598         	movff	INT2_SetInterruptHandler@InterruptHandler+1,_INT2_InterruptHandler+1
  9392   006C22  C503  F599         	movff	INT2_SetInterruptHandler@InterruptHandler+2,_INT2_InterruptHandler+2
  9393   006C26  0012               	return		;funcret
  9394   006C28                     __end_of_INT2_SetInterruptHandler:
  9395                           	callstack 0
  9396                           
  9397 ;; *************** function _INT1_SetInterruptHandler *****************
  9398 ;; Defined at:
  9399 ;;		line 137 in file "mcc_generated_files/system/src/interrupt.c"
  9400 ;; Parameters:    Size  Location     Type
  9401 ;;  InterruptHan    3    0[COMRAM] PTR FTN()void 
  9402 ;;		 -> INT1_DefaultInterruptHandler(1), 
  9403 ;; Auto vars:     Size  Location     Type
  9404 ;;		None
  9405 ;; Return value:  Size  Location     Type
  9406 ;;                  1    wreg      void 
  9407 ;; Registers used:
  9408 ;;		wreg, status,2, status,0
  9409 ;; Tracked objects:
  9410 ;;		On entry : 0/0
  9411 ;;		On exit  : 0/0
  9412 ;;		Unchanged: 0/0
  9413 ;; Data sizes:     COMRAM   BANK5   BANK6   BANK7   BANK8   BANK9  BANK10  BANK11  BANK12  BANK13  BANK14  BANK15  BANK1
      +6  BANK17  BANK18  BANK19  BANK20  BANK21  BANK22  BANK23  BANK24  BANK25  BANK26  BANK27  BANK28  BANK29  BANK30  BANK3
      +1  BANK32  BANK33  BANK34  BANK35  BANK36
  9414 ;;      Params:         3       0       0       0       0       0       0       0       0       0       0       0       
      +0       0       0       0       0       0       0       0       0       0       0       0       0       0       0       
      +0       0       0       0       0       0
  9415 ;;      Locals:         0       0       0       0       0       0       0       0       0       0       0       0       
      +0       0       0       0       0       0       0       0       0       0       0       0       0       0       0       
      +0       0       0       0       0       0
  9416 ;;      Temps:          0       0       0       0       0       0       0       0       0       0       0       0       
      +0       0       0       0       0       0       0       0       0       0       0       0       0       0       0       
      +0       0       0       0       0       0
  9417 ;;      Totals:         3       0       0       0       0       0       0       0       0       0       0       0       
      +0       0       0       0       0       0       0       0       0       0       0       0       0       0       0       
      +0       0       0       0       0       0
  9418 ;;Total ram usage:        3 bytes
  9419 ;; Hardware stack levels used: 1
  9420 ;; Hardware stack levels required when called: 2
  9421 ;; This function calls:
  9422 ;;		Nothing
  9423 ;; This function is called by:
  9424 ;;		_INTERRUPT_Initialize
  9425 ;; This function uses a non-reentrant model
  9426 ;;
  9427                           
  9428                           	psect	text24
  9429   006C28                     __ptext24:
  9430                           	callstack 0
  9431   006C28                     _INT1_SetInterruptHandler:
  9432                           	callstack 122
  9433   006C28                     
  9434                           ;mcc_generated_files/system/src/interrupt.c: 138:     INT1_InterruptHandler = InterruptH
      +                          andler;
  9435   006C28  C501  F59A         	movff	INT1_SetInterruptHandler@InterruptHandler,_INT1_InterruptHandler
  9436   006C2C  C502  F59B         	movff	INT1_SetInterruptHandler@InterruptHandler+1,_INT1_InterruptHandler+1
  9437   006C30  C503  F59C         	movff	INT1_SetInterruptHandler@InterruptHandler+2,_INT1_InterruptHandler+2
  9438   006C34  0012               	return		;funcret
  9439   006C36                     __end_of_INT1_SetInterruptHandler:
  9440                           	callstack 0
  9441                           
  9442 ;; *************** function _INT0_SetInterruptHandler *****************
  9443 ;; Defined at:
  9444 ;;		line 111 in file "mcc_generated_files/system/src/interrupt.c"
  9445 ;; Parameters:    Size  Location     Type
  9446 ;;  InterruptHan    3    0[COMRAM] PTR FTN()void 
  9447 ;;		 -> INT0_DefaultInterruptHandler(1), 
  9448 ;; Auto vars:     Size  Location     Type
  9449 ;;		None
  9450 ;; Return value:  Size  Location     Type
  9451 ;;                  1    wreg      void 
  9452 ;; Registers used:
  9453 ;;		wreg, status,2, status,0
  9454 ;; Tracked objects:
  9455 ;;		On entry : 0/0
  9456 ;;		On exit  : 0/0
  9457 ;;		Unchanged: 0/0
  9458 ;; Data sizes:     COMRAM   BANK5   BANK6   BANK7   BANK8   BANK9  BANK10  BANK11  BANK12  BANK13  BANK14  BANK15  BANK1
      +6  BANK17  BANK18  BANK19  BANK20  BANK21  BANK22  BANK23  BANK24  BANK25  BANK26  BANK27  BANK28  BANK29  BANK30  BANK3
      +1  BANK32  BANK33  BANK34  BANK35  BANK36
  9459 ;;      Params:         3       0       0       0       0       0       0       0       0       0       0       0       
      +0       0       0       0       0       0       0       0       0       0       0       0       0       0       0       
      +0       0       0       0       0       0
  9460 ;;      Locals:         0       0       0       0       0       0       0       0       0       0       0       0       
      +0       0       0       0       0       0       0       0       0       0       0       0       0       0       0       
      +0       0       0       0       0       0
  9461 ;;      Temps:          0       0       0       0       0       0       0       0       0       0       0       0       
      +0       0       0       0       0       0       0       0       0       0       0       0       0       0       0       
      +0       0       0       0       0       0
  9462 ;;      Totals:         3       0       0       0       0       0       0       0       0       0       0       0       
      +0       0       0       0       0       0       0       0       0       0       0       0       0       0       0       
      +0       0       0       0       0       0
  9463 ;;Total ram usage:        3 bytes
  9464 ;; Hardware stack levels used: 1
  9465 ;; Hardware stack levels required when called: 2
  9466 ;; This function calls:
  9467 ;;		Nothing
  9468 ;; This function is called by:
  9469 ;;		_INTERRUPT_Initialize
  9470 ;; This function uses a non-reentrant model
  9471 ;;
  9472                           
  9473                           	psect	text25
  9474   006C36                     __ptext25:
  9475                           	callstack 0
  9476   006C36                     _INT0_SetInterruptHandler:
  9477                           	callstack 122
  9478   006C36                     
  9479                           ;mcc_generated_files/system/src/interrupt.c: 112:     INT0_InterruptHandler = InterruptH
      +                          andler;
  9480   006C36  C501  F59D         	movff	INT0_SetInterruptHandler@InterruptHandler,_INT0_InterruptHandler
  9481   006C3A  C502  F59E         	movff	INT0_SetInterruptHandler@InterruptHandler+1,_INT0_InterruptHandler+1
  9482   006C3E  C503  F59F         	movff	INT0_SetInterruptHandler@InterruptHandler+2,_INT0_InterruptHandler+2
  9483   006C42  0012               	return		;funcret
  9484   006C44                     __end_of_INT0_SetInterruptHandler:
  9485                           	callstack 0
  9486                           
  9487 ;; *************** function _CLOCK_Initialize *****************
  9488 ;; Defined at:
  9489 ;;		line 37 in file "mcc_generated_files/system/src/clock.c"
  9490 ;; Parameters:    Size  Location     Type
  9491 ;;		None
  9492 ;; Auto vars:     Size  Location     Type
  9493 ;;		None
  9494 ;; Return value:  Size  Location     Type
  9495 ;;                  1    wreg      void 
  9496 ;; Registers used:
  9497 ;;		wreg, status,2
  9498 ;; Tracked objects:
  9499 ;;		On entry : 0/0
  9500 ;;		On exit  : 0/0
  9501 ;;		Unchanged: 0/0
  9502 ;; Data sizes:     COMRAM   BANK5   BANK6   BANK7   BANK8   BANK9  BANK10  BANK11  BANK12  BANK13  BANK14  BANK15  BANK1
      +6  BANK17  BANK18  BANK19  BANK20  BANK21  BANK22  BANK23  BANK24  BANK25  BANK26  BANK27  BANK28  BANK29  BANK30  BANK3
      +1  BANK32  BANK33  BANK34  BANK35  BANK36
  9503 ;;      Params:         0       0       0       0       0       0       0       0       0       0       0       0       
      +0       0       0       0       0       0       0       0       0       0       0       0       0       0       0       
      +0       0       0       0       0       0
  9504 ;;      Locals:         0       0       0       0       0       0       0       0       0       0       0       0       
      +0       0       0       0       0       0       0       0       0       0       0       0       0       0       0       
      +0       0       0       0       0       0
  9505 ;;      Temps:          0       0       0       0       0       0       0       0       0       0       0       0       
      +0       0       0       0       0       0       0       0       0       0       0       0       0       0       0       
      +0       0       0       0       0       0
  9506 ;;      Totals:         0       0       0       0       0       0       0       0       0       0       0       0       
      +0       0       0       0       0       0       0       0       0       0       0       0       0       0       0       
      +0       0       0       0       0       0
  9507 ;;Total ram usage:        0 bytes
  9508 ;; Hardware stack levels used: 1
  9509 ;; Hardware stack levels required when called: 2
  9510 ;; This function calls:
  9511 ;;		Nothing
  9512 ;; This function is called by:
  9513 ;;		_SYSTEM_Initialize
  9514 ;; This function uses a non-reentrant model
  9515 ;;
  9516                           
  9517                           	psect	text26
  9518   006BD2                     __ptext26:
  9519                           	callstack 0
  9520   006BD2                     _CLOCK_Initialize:
  9521                           	callstack 123
  9522   006BD2                     
  9523                           ;mcc_generated_files/system/src/clock.c: 41:     OSCCON1 = 0x60;
  9524   006BD2  0E60               	movlw	96
  9525   006BD4  0100               	movlb	0	; () banked
  9526   006BD6  6FAD               	movwf	173,b	;volatile
  9527                           
  9528                           ;mcc_generated_files/system/src/clock.c: 43:     OSCCON3 = 0x0;
  9529   006BD8  0E00               	movlw	0
  9530   006BDA  6FAF               	movwf	175,b	;volatile
  9531                           
  9532                           ;mcc_generated_files/system/src/clock.c: 45:     OSCEN = 0x0;
  9533   006BDC  0E00               	movlw	0
  9534   006BDE  6FB3               	movwf	179,b	;volatile
  9535                           
  9536                           ;mcc_generated_files/system/src/clock.c: 47:     OSCFRQ = 0x8;
  9537   006BE0  0E08               	movlw	8
  9538   006BE2  6FB1               	movwf	177,b	;volatile
  9539                           
  9540                           ;mcc_generated_files/system/src/clock.c: 49:     OSCTUNE = 0x0;
  9541   006BE4  0E00               	movlw	0
  9542   006BE6  6FB0               	movwf	176,b	;volatile
  9543                           
  9544                           ;mcc_generated_files/system/src/clock.c: 51:     ACTCON = 0x0;
  9545   006BE8  0E00               	movlw	0
  9546   006BEA  6FAC               	movwf	172,b	;volatile
  9547   006BEC                     
  9548                           ; BSR set to: 0
  9549   006BEC  0012               	return		;funcret
  9550   006BEE                     __end_of_CLOCK_Initialize:
  9551                           	callstack 0
  9552                           
  9553 ;; *************** function _INTERRUPT_InterruptManager *****************
  9554 ;; Defined at:
  9555 ;;		line 80 in file "mcc_generated_files/system/src/interrupt.c"
  9556 ;; Parameters:    Size  Location     Type
  9557 ;;		None
  9558 ;; Auto vars:     Size  Location     Type
  9559 ;;		None
  9560 ;; Return value:  Size  Location     Type
  9561 ;;                  1    wreg      void 
  9562 ;; Registers used:
  9563 ;;		cstack
  9564 ;; Tracked objects:
  9565 ;;		On entry : 0/0
  9566 ;;		On exit  : 0/0
  9567 ;;		Unchanged: 0/0
  9568 ;; Data sizes:     COMRAM   BANK5   BANK6   BANK7   BANK8   BANK9  BANK10  BANK11  BANK12  BANK13  BANK14  BANK15  BANK1
      +6  BANK17  BANK18  BANK19  BANK20  BANK21  BANK22  BANK23  BANK24  BANK25  BANK26  BANK27  BANK28  BANK29  BANK30  BANK3
      +1  BANK32  BANK33  BANK34  BANK35  BANK36
  9569 ;;      Params:         0       0       0       0       0       0       0       0       0       0       0       0       
      +0       0       0       0       0       0       0       0       0       0       0       0       0       0       0       
      +0       0       0       0       0       0
  9570 ;;      Locals:         0       0       0       0       0       0       0       0       0       0       0       0       
      +0       0       0       0       0       0       0       0       0       0       0       0       0       0       0       
      +0       0       0       0       0       0
  9571 ;;      Temps:          0       0       0       0       0       0       0       0       0       0       0       0       
      +0       0       0       0       0       0       0       0       0       0       0       0       0       0       0       
      +0       0       0       0       0       0
  9572 ;;      Totals:         0       0       0       0       0       0       0       0       0       0       0       0       
      +0       0       0       0       0       0       0       0       0       0       0       0       0       0       0       
      +0       0       0       0       0       0
  9573 ;;Total ram usage:        0 bytes
  9574 ;; Hardware stack levels used: 1
  9575 ;; Hardware stack levels required when called: 1
  9576 ;; This function calls:
  9577 ;;		_PIN_MANAGER_IOC
  9578 ;; This function is called by:
  9579 ;;		Interrupt level 2
  9580 ;; This function uses a non-reentrant model
  9581 ;;
  9582                           
  9583                           	psect	text27
  9584   006B90                     __ptext27:
  9585                           	callstack 0
  9586   006B90                     _INTERRUPT_InterruptManager:
  9587                           	callstack 122
  9588   006B90                     
  9589                           ;mcc_generated_files/system/src/interrupt.c: 83:     if(PIE0bits.IOCIE == 1 && PIR0bits.
      +                          IOCIF == 1)
  9590   006B90  AE9E               	btfss	158,7,c	;volatile
  9591   006B92  EFCD  F035         	goto	i2u191_41
  9592   006B96  EFCF  F035         	goto	i2u191_40
  9593   006B9A                     i2u191_41:
  9594   006B9A  EFD8  F035         	goto	i2l283
  9595   006B9E                     i2u191_40:
  9596   006B9E  AEAE               	btfss	174,7,c	;volatile
  9597   006BA0  EFD4  F035         	goto	i2u192_41
  9598   006BA4  EFD6  F035         	goto	i2u192_40
  9599   006BA8                     i2u192_41:
  9600   006BA8  EFD8  F035         	goto	i2l283
  9601   006BAC                     i2u192_40:
  9602   006BAC                     
  9603                           ;mcc_generated_files/system/src/interrupt.c: 84:     {;mcc_generated_files/system/src/in
      +                          terrupt.c: 85:         PIN_MANAGER_IOC();
  9604   006BAC  EC25  F036         	call	_PIN_MANAGER_IOC	;wreg free
  9605   006BB0                     i2l283:
  9606   006BB0  0011               	retfie		f
  9607   006BB2                     __end_of_INTERRUPT_InterruptManager:
  9608                           	callstack 0
  9609                           
  9610 ;; *************** function _PIN_MANAGER_IOC *****************
  9611 ;; Defined at:
  9612 ;;		line 144 in file "mcc_generated_files/system/src/pins.c"
  9613 ;; Parameters:    Size  Location     Type
  9614 ;;		None
  9615 ;; Auto vars:     Size  Location     Type
  9616 ;;		None
  9617 ;; Return value:  Size  Location     Type
  9618 ;;                  1    wreg      void 
  9619 ;; Registers used:
  9620 ;;		None
  9621 ;; Tracked objects:
  9622 ;;		On entry : 0/0
  9623 ;;		On exit  : 0/0
  9624 ;;		Unchanged: 0/0
  9625 ;; Data sizes:     COMRAM   BANK5   BANK6   BANK7   BANK8   BANK9  BANK10  BANK11  BANK12  BANK13  BANK14  BANK15  BANK1
      +6  BANK17  BANK18  BANK19  BANK20  BANK21  BANK22  BANK23  BANK24  BANK25  BANK26  BANK27  BANK28  BANK29  BANK30  BANK3
      +1  BANK32  BANK33  BANK34  BANK35  BANK36
  9626 ;;      Params:         0       0       0       0       0       0       0       0       0       0       0       0       
      +0       0       0       0       0       0       0       0       0       0       0       0       0       0       0       
      +0       0       0       0       0       0
  9627 ;;      Locals:         0       0       0       0       0       0       0       0       0       0       0       0       
      +0       0       0       0       0       0       0       0       0       0       0       0       0       0       0       
      +0       0       0       0       0       0
  9628 ;;      Temps:          0       0       0       0       0       0       0       0       0       0       0       0       
      +0       0       0       0       0       0       0       0       0       0       0       0       0       0       0       
      +0       0       0       0       0       0
  9629 ;;      Totals:         0       0       0       0       0       0       0       0       0       0       0       0       
      +0       0       0       0       0       0       0       0       0       0       0       0       0       0       0       
      +0       0       0       0       0       0
  9630 ;;Total ram usage:        0 bytes
  9631 ;; Hardware stack levels used: 1
  9632 ;; This function calls:
  9633 ;;		Nothing
  9634 ;; This function is called by:
  9635 ;;		_INTERRUPT_InterruptManager
  9636 ;; This function uses a non-reentrant model
  9637 ;;
  9638                           
  9639                           	psect	text28
  9640   006C4A                     __ptext28:
  9641                           	callstack 0
  9642   006C4A                     _PIN_MANAGER_IOC:
  9643                           	callstack 122
  9644   006C4A  0012               	return		;funcret
  9645   006C4C                     __end_of_PIN_MANAGER_IOC:
  9646                           	callstack 0
  9647                           
  9648                           ;
  9649                           ; Interrupt Vector Table @ 0x8
  9650                           ;
  9651                           
  9652                           	psect	ivt0x8
  9653   000008                     __pivt0x8:
  9654                           	callstack 0
  9655   000008                     ivt0x8_base:
  9656                           	callstack 0
  9657                           
  9658                           ; high-priority vector
  9659   000008  EFC8  F035         	goto	_INTERRUPT_InterruptManager
  9660   000018                     	org	16
  9661                           
  9662                           ; low-priority vector
  9663   000018  00FF               	reset	
  9664                           
  9665                           	psect	text29
  9666   000000                     __ptext29:
  9667                           	callstack 0
  9668   000000                     
  9669                           	psect	rparam
  9670   000000                     
  9671                           	psect	config
  9672                           
  9673                           ;Config register CONFIG1 @ 0x300000
  9674                           ;	External Oscillator Selection
  9675                           ;	FEXTOSC = ECH, EC (external clock) above 8 MHz
  9676                           ;	Reset Oscillator Selection
  9677                           ;	RSTOSC = EXTOSC, EXTOSC operating per FEXTOSC bits (device manufacturing default)
  9678   300000                     	org	3145728
  9679   300000  FF                 	db	255
  9680                           
  9681                           ;Config register CONFIG2 @ 0x300001
  9682                           ;	Clock out Enable bit
  9683                           ;	CLKOUTEN = OFF, CLKOUT function is disabled
  9684                           ;	PRLOCKED One-Way Set Enable bit
  9685                           ;	PR1WAY = ON, PRLOCKED bit can be cleared and set only once
  9686                           ;	Clock Switch Enable bit
  9687                           ;	CSWEN = ON, Writing to NOSC and NDIV is allowed
  9688                           ;	Fail-Safe Clock Monitor Enable bit
  9689                           ;	FCMEN = ON, Fail-Safe Clock Monitor enabled
  9690   300001                     	org	3145729
  9691   300001  FF                 	db	255
  9692                           
  9693                           ;Config register CONFIG3 @ 0x300002
  9694                           ;	MCLR Enable bit
  9695                           ;	MCLRE = EXTMCLR, If LVP = 0, MCLR pin is MCLR; If LVP = 1, RE3 pin function is MCLR
  9696                           ;	Power-up timer selection bits
  9697                           ;	PWRTS = PWRT_OFF, PWRT is disabled
  9698                           ;	Multi-vector enable bit
  9699                           ;	MVECEN = OFF, Interrupt contoller does not use vector table to prioritze interrupts
  9700                           ;	IVTLOCK bit One-way set enable bit
  9701                           ;	IVT1WAY = ON, IVTLOCKED bit can be cleared and set only once
  9702                           ;	Low Power BOR Enable bit
  9703                           ;	LPBOREN = OFF, Low-Power BOR disabled
  9704                           ;	Brown-out Reset Enable bits
  9705                           ;	BOREN = SBORDIS, Brown-out Reset enabled , SBOREN bit is ignored
  9706   300002                     	org	3145730
  9707   300002  F7                 	db	247
  9708                           
  9709                           ;Config register CONFIG4 @ 0x300003
  9710                           ;	Brown-out Reset Voltage Selection bits
  9711                           ;	BORV = VBOR_1P9, Brown-out Reset Voltage (VBOR) set to 1.9V
  9712                           ;	ZCD Disable bit
  9713                           ;	ZCD = OFF, ZCD module is disabled. ZCD can be enabled by setting the ZCDSEN bit of ZCD
      +                          CON
  9714                           ;	PPSLOCK bit One-Way Set Enable bit
  9715                           ;	PPS1WAY = ON, PPSLOCKED bit can be cleared and set only once; PPS registers remain loc
      +                          ked after one clear/set cycle
  9716                           ;	Stack Full/Underflow Reset Enable bit
  9717                           ;	STVREN = ON, Stack full/underflow will cause Reset
  9718                           ;	Low Voltage Programming Enable bit
  9719                           ;	LVP = ON, Low voltage programming enabled. MCLR/VPP pin function is MCLR. MCLRE config
      +                          uration bit is ignored
  9720                           ;	Extended Instruction Set Enable bit
  9721                           ;	XINST = OFF, Extended Instruction Set and Indexed Addressing Mode disabled
  9722   300003                     	org	3145731
  9723   300003  FF                 	db	255
  9724                           
  9725                           ;Config register CONFIG5 @ 0x300004
  9726                           ;	WDT Period selection bits
  9727                           ;	WDTCPS = WDTCPS_31, Divider ratio 1:65536; software control of WDTPS
  9728                           ;	WDT operating mode
  9729                           ;	WDTE = OFF, WDT Disabled; SWDTEN is ignored
  9730   300004                     	org	3145732
  9731   300004  9F                 	db	159
  9732                           
  9733                           ;Config register CONFIG6 @ 0x300005
  9734                           ;	WDT Window Select bits
  9735                           ;	WDTCWS = WDTCWS_7, window always open (100%); software control; keyed access not requi
      +                          red
  9736                           ;	WDT input clock selector
  9737                           ;	WDTCCS = SC, Software Control
  9738   300005                     	org	3145733
  9739   300005  FF                 	db	255
  9740                           
  9741                           ;Config register CONFIG7 @ 0x300006
  9742                           ;	Boot Block Size selection bits
  9743                           ;	BBSIZE = BBSIZE_512, Boot Block size is 512 words
  9744                           ;	Boot Block enable bit
  9745                           ;	BBEN = OFF, Boot block disabled
  9746                           ;	Storage Area Flash enable bit
  9747                           ;	SAFEN = OFF, SAF disabled
  9748                           ;	Background Debugger
  9749                           ;	DEBUG = OFF, Background Debugger disabled
  9750   300006                     	org	3145734
  9751   300006  FF                 	db	255
  9752                           
  9753                           ;Config register CONFIG8 @ 0x300007
  9754                           ;	Boot Block Write Protection bit
  9755                           ;	WRTB = OFF, Boot Block not Write protected
  9756                           ;	Configuration Register Write Protection bit
  9757                           ;	WRTC = OFF, Configuration registers not Write protected
  9758                           ;	Data EEPROM Write Protection bit
  9759                           ;	WRTD = OFF, Data EEPROM not Write protected
  9760                           ;	SAF Write protection bit
  9761                           ;	WRTSAF = OFF, SAF not Write Protected
  9762                           ;	Application Block write protection bit
  9763                           ;	WRTAPP = OFF, Application Block not write protected
  9764   300007                     	org	3145735
  9765   300007  FF                 	db	255
  9766                           
  9767                           ;Config register CONFIG10 @ 0x300009
  9768                           ;	PFM and Data EEPROM Code Protection bit
  9769                           ;	CP = OFF, PFM and Data EEPROM code protection disabled
  9770   300009                     	org	3145737
  9771   300009  FF                 	db	255
  9772                           tosu	equ	0x4FF
  9773                           tosh	equ	0x4FE
  9774                           tosl	equ	0x4FD
  9775                           stkptr	equ	0x4FC
  9776                           pclatu	equ	0x4FB
  9777                           pclath	equ	0x4FA
  9778                           pcl	equ	0x4F9
  9779                           tblptru	equ	0x4F8
  9780                           tblptrh	equ	0x4F7
  9781                           tblptrl	equ	0x4F6
  9782                           tablat	equ	0x4F5
  9783                           prodh	equ	0x4F4
  9784                           prodl	equ	0x4F3
  9785                           indf0	equ	0x4EF
  9786                           postinc0	equ	0x4EE
  9787                           postdec0	equ	0x4ED
  9788                           preinc0	equ	0x4EC
  9789                           plusw0	equ	0x4EB
  9790                           fsr0h	equ	0x4EA
  9791                           fsr0l	equ	0x4E9
  9792                           wreg	equ	0x4E8
  9793                           indf1	equ	0x4E7
  9794                           postinc1	equ	0x4E6
  9795                           postdec1	equ	0x4E5
  9796                           preinc1	equ	0x4E4
  9797                           plusw1	equ	0x4E3
  9798                           fsr1h	equ	0x4E2
  9799                           fsr1l	equ	0x4E1
  9800                           bsr	equ	0x4E0
  9801                           indf2	equ	0x4DF
  9802                           postinc2	equ	0x4DE
  9803                           postdec2	equ	0x4DD
  9804                           preinc2	equ	0x4DC
  9805                           plusw2	equ	0x4DB
  9806                           fsr2h	equ	0x4DA
  9807                           fsr2l	equ	0x4D9
  9808                           status	equ	0x4D8

Data Sizes:
    Strings     1
    Constant    156
    Data        0
    BSS         6
    Persistent  9
    Stack       0

Auto Spaces:
    Space          Size  Autos    Used
    COMRAM           95     92      94
    BANK5           160     55      68
    BANK6           256    188     188
    BANK7           256      0       0
    BANK8           256      0       0
    BANK9           256      0       0
    BANK10          256      0       0
    BANK11          256      0       0
    BANK12          256      0       0
    BANK13          256      0       0
    BANK14          256      0       0
    BANK15          256      0       0
    BANK16          256      0       0
    BANK17          256      0       0
    BANK18          256      0       0
    BANK19          256      0       0
    BANK20          256      0       0
    BANK21          256      0       0
    BANK22          256      0       0
    BANK23          256      0       0
    BANK24          256      0       0
    BANK25          256      0       0
    BANK26          256      0       0
    BANK27          256      0       0
    BANK28          256      0       0
    BANK29          256      0       0
    BANK30          256      0       0
    BANK31          256      0       0
    BANK32          256      0       0
    BANK33          256      0       0
    BANK34          256      0       0
    BANK35          256      0       0
    BANK36          256      0       0

Pointer List with Targets:

    S33$3$0	PTR void  size(2) Largest target is 0

    S33$4$0	PTR void  size(2) Largest target is 0

    S33$5$0	PTR void  size(2) Largest target is 0

    nanf@s	PTR const unsigned char  size(2) Largest target is 1
		 -> STR_1(CODE[1]), 

    INT2_SetInterruptHandler@InterruptHandler	PTR FTN()void  size(3) Largest target is 1
		 -> INT2_DefaultInterruptHandler(), 

    INT2_InterruptHandler	PTR FTN()void  size(3) Largest target is 1
		 -> Absolute function(), INT2_DefaultInterruptHandler(), 

    INT1_SetInterruptHandler@InterruptHandler	PTR FTN()void  size(3) Largest target is 1
		 -> INT1_DefaultInterruptHandler(), 

    INT1_InterruptHandler	PTR FTN()void  size(3) Largest target is 1
		 -> Absolute function(), INT1_DefaultInterruptHandler(), 

    INT0_SetInterruptHandler@InterruptHandler	PTR FTN()void  size(3) Largest target is 1
		 -> INT0_DefaultInterruptHandler(), 

    INT0_InterruptHandler	PTR FTN()void  size(3) Largest target is 1
		 -> Absolute function(), INT0_DefaultInterruptHandler(), 

    S33SPI_INTERFACE$ByteWrite	PTR FTN(unsigned char ,)void  size(3) Largest target is 1
		 -> SPI1_ByteWrite(), 

    SPI1.ByteWrite	PTR FTN(unsigned char ,)void  size(3) Largest target is 1
		 -> SPI1_ByteWrite(), 

    S33SPI_INTERFACE$ByteRead	PTR FTN()unsigned char  size(3) Largest target is 1
		 -> SPI1_ByteRead(), 

    SPI1.ByteRead	PTR FTN()unsigned char  size(3) Largest target is 1
		 -> SPI1_ByteRead(), 

    S33SPI_INTERFACE$ByteExchange	PTR FTN(unsigned char ,)unsigned char  size(3) Largest target is 1
		 -> SPI1_ByteExchange(), 

    SPI1.ByteExchange	PTR FTN(unsigned char ,)unsigned char  size(3) Largest target is 1
		 -> SPI1_ByteExchange(), 

    S33SPI_INTERFACE$BufferWrite	PTR FTN(PTR void ,unsigned int ,)void  size(3) Largest target is 1
		 -> SPI1_BufferWrite(), 

    SPI1.BufferWrite	PTR FTN(PTR void ,unsigned int ,)void  size(3) Largest target is 1
		 -> SPI1_BufferWrite(), 

    S33SPI_INTERFACE$BufferRead	PTR FTN(PTR void ,unsigned int ,)void  size(3) Largest target is 1
		 -> SPI1_BufferRead(), 

    SPI1.BufferRead	PTR FTN(PTR void ,unsigned int ,)void  size(3) Largest target is 1
		 -> SPI1_BufferRead(), 

    S33SPI_INTERFACE$BufferExchange	PTR FTN(PTR void ,unsigned int ,)void  size(3) Largest target is 1
		 -> SPI1_BufferExchange(), 

    SPI1.BufferExchange	PTR FTN(PTR void ,unsigned int ,)void  size(3) Largest target is 1
		 -> SPI1_BufferExchange(), 

    S33SPI_INTERFACE$Open	PTR FTN(unsigned char ,)_Bool  size(3) Largest target is 1
		 -> SPI1_Open(), 

    SPI1.Open	PTR FTN(unsigned char ,)_Bool  size(3) Largest target is 1
		 -> SPI1_Open(), 

    S33SPI_INTERFACE$Close	PTR FTN()void  size(3) Largest target is 1
		 -> SPI1_Close(), 

    SPI1.Close	PTR FTN()void  size(3) Largest target is 1
		 -> SPI1_Close(), 

    S33SPI_INTERFACE$Initialize	PTR FTN()void  size(3) Largest target is 1
		 -> SPI1_Initialize(), 

    SPI1.Initialize	PTR FTN()void  size(3) Largest target is 1
		 -> SPI1_Initialize(), 


Critical Paths under _main in COMRAM

    _main->_sendData
    _sendData->___fltol
    _powf->___fldiv
    _sqrtf->___flge
    ___flge->___flsub
    _scalbnf->___flmul
    ___flmul->___fladd
    ___flsub->___flmul
    ___fldiv->___flsub
    ___fltol->_powf
    _INTERRUPT_Initialize->_INT0_SetInterruptHandler
    _INTERRUPT_Initialize->_INT1_SetInterruptHandler
    _INTERRUPT_Initialize->_INT2_SetInterruptHandler

Critical Paths under _INTERRUPT_InterruptManager in COMRAM

    None.

Critical Paths under _main in BANK5

    _main->_sendData
    _sendData->___fltol
    _powf->_sqrtf
    ___fltol->_powf

Critical Paths under _INTERRUPT_InterruptManager in BANK5

    None.

Critical Paths under _main in BANK6

    _main->_powf
    _sendData->_powf
    ___fltol->_powf

Critical Paths under _INTERRUPT_InterruptManager in BANK6

    None.

Critical Paths under _main in BANK7

    None.

Critical Paths under _INTERRUPT_InterruptManager in BANK7

    None.

Critical Paths under _main in BANK8

    None.

Critical Paths under _INTERRUPT_InterruptManager in BANK8

    None.

Critical Paths under _main in BANK9

    None.

Critical Paths under _INTERRUPT_InterruptManager in BANK9

    None.

Critical Paths under _main in BANK10

    None.

Critical Paths under _INTERRUPT_InterruptManager in BANK10

    None.

Critical Paths under _main in BANK11

    None.

Critical Paths under _INTERRUPT_InterruptManager in BANK11

    None.

Critical Paths under _main in BANK12

    None.

Critical Paths under _INTERRUPT_InterruptManager in BANK12

    None.

Critical Paths under _main in BANK13

    None.

Critical Paths under _INTERRUPT_InterruptManager in BANK13

    None.

Critical Paths under _main in BANK14

    None.

Critical Paths under _INTERRUPT_InterruptManager in BANK14

    None.

Critical Paths under _main in BANK15

    None.

Critical Paths under _INTERRUPT_InterruptManager in BANK15

    None.

Critical Paths under _main in BANK16

    None.

Critical Paths under _INTERRUPT_InterruptManager in BANK16

    None.

Critical Paths under _main in BANK17

    None.

Critical Paths under _INTERRUPT_InterruptManager in BANK17

    None.

Critical Paths under _main in BANK18

    None.

Critical Paths under _INTERRUPT_InterruptManager in BANK18

    None.

Critical Paths under _main in BANK19

    None.

Critical Paths under _INTERRUPT_InterruptManager in BANK19

    None.

Critical Paths under _main in BANK20

    None.

Critical Paths under _INTERRUPT_InterruptManager in BANK20

    None.

Critical Paths under _main in BANK21

    None.

Critical Paths under _INTERRUPT_InterruptManager in BANK21

    None.

Critical Paths under _main in BANK22

    None.

Critical Paths under _INTERRUPT_InterruptManager in BANK22

    None.

Critical Paths under _main in BANK23

    None.

Critical Paths under _INTERRUPT_InterruptManager in BANK23

    None.

Critical Paths under _main in BANK24

    None.

Critical Paths under _INTERRUPT_InterruptManager in BANK24

    None.

Critical Paths under _main in BANK25

    None.

Critical Paths under _INTERRUPT_InterruptManager in BANK25

    None.

Critical Paths under _main in BANK26

    None.

Critical Paths under _INTERRUPT_InterruptManager in BANK26

    None.

Critical Paths under _main in BANK27

    None.

Critical Paths under _INTERRUPT_InterruptManager in BANK27

    None.

Critical Paths under _main in BANK28

    None.

Critical Paths under _INTERRUPT_InterruptManager in BANK28

    None.

Critical Paths under _main in BANK29

    None.

Critical Paths under _INTERRUPT_InterruptManager in BANK29

    None.

Critical Paths under _main in BANK30

    None.

Critical Paths under _INTERRUPT_InterruptManager in BANK30

    None.

Critical Paths under _main in BANK31

    None.

Critical Paths under _INTERRUPT_InterruptManager in BANK31

    None.

Critical Paths under _main in BANK32

    None.

Critical Paths under _INTERRUPT_InterruptManager in BANK32

    None.

Critical Paths under _main in BANK33

    None.

Critical Paths under _INTERRUPT_InterruptManager in BANK33

    None.

Critical Paths under _main in BANK34

    None.

Critical Paths under _INTERRUPT_InterruptManager in BANK34

    None.

Critical Paths under _main in BANK35

    None.

Critical Paths under _INTERRUPT_InterruptManager in BANK35

    None.

Critical Paths under _main in BANK36

    None.

Critical Paths under _INTERRUPT_InterruptManager in BANK36

    None.

Call Graph Tables:

 ---------------------------------------------------------------------------------
 (Depth) Function   	        Calls       Base Space   Used Autos Params    Refs
 ---------------------------------------------------------------------------------
 (0) _main                                                 6     6      0   77671
                                             49 BANK5      6     6      0
                         _SPI1_Close
                    _SPI1_Initialize
                  _SYSTEM_Initialize
                            ___fltol
                           ___xxtofl
                               _powf
                           _sendData
 ---------------------------------------------------------------------------------
 (1) _sendData                                             4     3      1     776
                                             89 COMRAM     3     3      0
                                             48 BANK5      1     0      1
                 _DELAY_milliseconds
                  _SPI1_ByteExchange
                         _SPI1_Close
                          _SPI1_Open
                            ___fltol (ARG)
                           ___xxtofl (ARG)
                               _powf (ARG)
 ---------------------------------------------------------------------------------
 (2) _SPI1_Open                                            2     2      0     110
                                              0 COMRAM     2     2      0
 ---------------------------------------------------------------------------------
 (2) _SPI1_Close                                           0     0      0       0
 ---------------------------------------------------------------------------------
 (2) _SPI1_ByteExchange                                    1     1      0      22
                                              0 COMRAM     1     1      0
 ---------------------------------------------------------------------------------
 (2) _DELAY_milliseconds                                   3     1      2     250
                                              0 COMRAM     3     1      2
 ---------------------------------------------------------------------------------
 (1) _powf                                               205   197      8   75706
                                             74 COMRAM     9     9      0
                                             36 BANK5      8     0      8
                                              0 BANK6    188   188      0
                            ___fladd
                            ___fldiv
                             ___flge
                            ___flmul
                            ___flneg
                            ___flsub
                           ___xxtofl
                              _fabsf
                            _scalbnf
                              _sqrtf
 ---------------------------------------------------------------------------------
 (2) _sqrtf                                               49    45      4   20885
                                             61 COMRAM     9     5      4
                                              0 BANK5     36    36      0
                            ___fladd
                             ___flge
                            ___flmul
                               _nanf
 ---------------------------------------------------------------------------------
 (3) _nanf                                                 8     4      4      99
                                              0 COMRAM     8     4      4
 ---------------------------------------------------------------------------------
 (3) ___flge                                              12     4      8     790
                                             49 COMRAM    12     4      8
                            ___fladd (ARG)
                            ___flsub (ARG)
 ---------------------------------------------------------------------------------
 (2) _scalbnf                                             18    12      6   12119
                                             41 COMRAM    18    12      6
                            ___flmul
 ---------------------------------------------------------------------------------
 (3) ___flmul                                             25    17      8   11624
                                             16 COMRAM    25    17      8
                            ___fladd (ARG)
 ---------------------------------------------------------------------------------
 (2) _fabsf                                                8     4      4     123
                                              0 COMRAM     8     4      4
 ---------------------------------------------------------------------------------
 (2) ___xxtofl                                            14    10      4     474
                                              0 COMRAM    14    10      4
 ---------------------------------------------------------------------------------
 (2) ___flsub                                              8     0      8   12769
                                             41 COMRAM     8     0      8
                            ___fladd
                            ___flmul (ARG)
 ---------------------------------------------------------------------------------
 (3) ___fladd                                             16     8      8    7430
                                              0 COMRAM    16     8      8
 ---------------------------------------------------------------------------------
 (2) ___flneg                                              4     0      4     197
                                              0 COMRAM     4     0      4
 ---------------------------------------------------------------------------------
 (2) ___fldiv                                             25    17      8    2159
                                             49 COMRAM    25    17      8
                            ___fladd (ARG)
                            ___flmul (ARG)
                            ___flsub (ARG)
 ---------------------------------------------------------------------------------
 (1) ___fltol                                             10     6      4     305
                                             83 COMRAM     6     6      0
                                             44 BANK5      4     0      4
                           ___xxtofl (ARG)
                               _powf (ARG)
 ---------------------------------------------------------------------------------
 (1) _SYSTEM_Initialize                                    0     0      0     294
                   _CLOCK_Initialize
               _INTERRUPT_Initialize
             _PIN_MANAGER_Initialize
                    _SPI1_Initialize
 ---------------------------------------------------------------------------------
 (2) _SPI1_Initialize                                      0     0      0       0
 ---------------------------------------------------------------------------------
 (2) _PIN_MANAGER_Initialize                               0     0      0       0
 ---------------------------------------------------------------------------------
 (2) _INTERRUPT_Initialize                                 0     0      0     294
           _INT0_SetInterruptHandler
           _INT1_SetInterruptHandler
           _INT2_SetInterruptHandler
 ---------------------------------------------------------------------------------
 (3) _INT2_SetInterruptHandler                             3     0      3      98
                                              0 COMRAM     3     0      3
 ---------------------------------------------------------------------------------
 (3) _INT1_SetInterruptHandler                             3     0      3      98
                                              0 COMRAM     3     0      3
 ---------------------------------------------------------------------------------
 (3) _INT0_SetInterruptHandler                             3     0      3      98
                                              0 COMRAM     3     0      3
 ---------------------------------------------------------------------------------
 (2) _CLOCK_Initialize                                     0     0      0       0
 ---------------------------------------------------------------------------------
 Estimated maximum stack depth 3
 ---------------------------------------------------------------------------------
 (Depth) Function   	        Calls       Base Space   Used Autos Params    Refs
 ---------------------------------------------------------------------------------
 (4) _INTERRUPT_InterruptManager                           0     0      0       0
                    _PIN_MANAGER_IOC
 ---------------------------------------------------------------------------------
 (5) _PIN_MANAGER_IOC                                      0     0      0       0
 ---------------------------------------------------------------------------------
 Estimated maximum stack depth 5
 ---------------------------------------------------------------------------------

 Call Graph Graphs:

 _main (ROOT)
   _SPI1_Close
   _SPI1_Initialize
   _SYSTEM_Initialize
     _CLOCK_Initialize
     _INTERRUPT_Initialize
       _INT0_SetInterruptHandler
       _INT1_SetInterruptHandler
       _INT2_SetInterruptHandler
     _PIN_MANAGER_Initialize
     _SPI1_Initialize
   ___fltol
     ___xxtofl (ARG)
     _powf (ARG)
       ___fladd
       ___fldiv
         ___fladd (ARG)
         ___flmul (ARG)
           ___fladd (ARG)
         ___flsub (ARG)
           ___fladd
           ___flmul (ARG)
       ___flge
         ___fladd (ARG)
         ___flsub (ARG)
       ___flmul
       ___flneg
       ___flsub
       ___xxtofl
       _fabsf
       _scalbnf
         ___flmul
       _sqrtf
         ___fladd
         ___flge
         ___flmul
         _nanf
   ___xxtofl
   _powf
   _sendData
     _DELAY_milliseconds
     _SPI1_ByteExchange
     _SPI1_Close
     _SPI1_Open
     ___fltol (ARG)
     ___xxtofl (ARG)
     _powf (ARG)

 _INTERRUPT_InterruptManager (ROOT)
   _PIN_MANAGER_IOC

 Address spaces:
Name               Size   Autos  Total    Cost      Usage
BIGRAM            1FFF      0       0      70        0.0%
EEDATA             400      0       0       0        0.0%
BITBIGSFRhhlllh    176      0       0      82        0.0%
BITBIGSFRhhllll    160      0       0      86        0.0%
BITBIGSFR_1        100      0       0      69        0.0%
BITBANK36          100      0       0      67        0.0%
BANK36             100      0       0      68        0.0%
BITBANK35          100      0       0      65        0.0%
BANK35             100      0       0      66        0.0%
BITBANK34          100      0       0      63        0.0%
BANK34             100      0       0      64        0.0%
BITBANK33          100      0       0      61        0.0%
BANK33             100      0       0      62        0.0%
BITBANK32          100      0       0      59        0.0%
BANK32             100      0       0      60        0.0%
BITBANK31          100      0       0      57        0.0%
BANK31             100      0       0      58        0.0%
BITBANK30          100      0       0      55        0.0%
BANK30             100      0       0      56        0.0%
BITBANK29          100      0       0      53        0.0%
BANK29             100      0       0      54        0.0%
BITBANK28          100      0       0      51        0.0%
BANK28             100      0       0      52        0.0%
BITBANK27          100      0       0      49        0.0%
BANK27             100      0       0      50        0.0%
BITBANK26          100      0       0      47        0.0%
BANK26             100      0       0      48        0.0%
BITBANK25          100      0       0      45        0.0%
BANK25             100      0       0      46        0.0%
BITBANK24          100      0       0      42        0.0%
BANK24             100      0       0      43        0.0%
BITBANK23          100      0       0      40        0.0%
BANK23             100      0       0      41        0.0%
BITBANK22          100      0       0      38        0.0%
BANK22             100      0       0      39        0.0%
BITBANK21          100      0       0      36        0.0%
BANK21             100      0       0      37        0.0%
BITBANK20          100      0       0      34        0.0%
BANK20             100      0       0      35        0.0%
BITBANK19          100      0       0      32        0.0%
BANK19             100      0       0      33        0.0%
BITBANK18          100      0       0      30        0.0%
BANK18             100      0       0      31        0.0%
BITBANK17          100      0       0      28        0.0%
BANK17             100      0       0      29        0.0%
BITBANK16          100      0       0      26        0.0%
BANK16             100      0       0      27        0.0%
BITBANK15          100      0       0      24        0.0%
BANK15             100      0       0      25        0.0%
BITBANK14          100      0       0      22        0.0%
BANK14             100      0       0      23        0.0%
BITBANK13          100      0       0      20        0.0%
BANK13             100      0       0      21        0.0%
BITBANK12          100      0       0      18        0.0%
BANK12             100      0       0      19        0.0%
BITBANK11          100      0       0      16        0.0%
BANK11             100      0       0      17        0.0%
BITBANK10          100      0       0      14        0.0%
BANK10             100      0       0      15        0.0%
BITBANK9           100      0       0      12        0.0%
BANK9              100      0       0      13        0.0%
BITBANK8           100      0       0      10        0.0%
BANK8              100      0       0      11        0.0%
BITBANK7           100      0       0       8        0.0%
BANK7              100      0       0       9        0.0%
BITBANK6           100      0       0       6        0.0%
BANK6              100     BC      BC       7       73.4%
BITBANK5            A0      0       0       4        0.0%
BANK5               A0     37      44       5       42.5%
BITBIGSFRll         80      0       0      93        0.0%
BITBIGSFRhhllhh     71      0       0      80        0.0%
BITCOMRAM           5F      0       0       0        0.0%
COMRAM              5F     5C      5E       1       98.9%
BITBIGSFRhhllll     53      0       0      84        0.0%
BITBIGSFRhhhh       29      0       0      71        0.0%
BITBIGSFRhhllll     1F      0       0      89        0.0%
BITBIGSFRhhllll     1A      0       0      83        0.0%
BITBIGSFRhhllhh      F      0       0      79        0.0%
BITBIGSFRhhhlh       6      0       0      72        0.0%
BITBIGSFRhhlhlh      5      0       0      75        0.0%
BITBIGSFRhhlhlh      3      0       0      76        0.0%
BITBIGSFRhhllhh      3      0       0      81        0.0%
BITBIGSFRhhhll       3      0       0      73        0.0%
BITBIGSFRhhlhhl      2      0       0      74        0.0%
BITBIGSFRhhlhll      2      0       0      77        0.0%
BITBIGSFRhlh         2      0       0      90        0.0%
BITBIGSFRhll         2      0       0      91        0.0%
BITBIGSFRhhllll      1      0       0      87        0.0%
BITBIGSFRhhllll      1      0       0      88        0.0%
BITBIGSFRhhllhh      1      0       0      78        0.0%
BITBIGSFRhhllll      1      0       0      85        0.0%
BITBIGSFRlh          1      0       0      92        0.0%
BIGSFR_1             0      0       0     200        0.0%
BIGSFR               0      0       0     200        0.0%
BITSFR_6             0      0       0     200        0.0%
SFR_6                0      0       0     200        0.0%
BITSFR_5             0      0       0     200        0.0%
SFR_5                0      0       0     200        0.0%
BITSFR_4             0      0       0     200        0.0%
SFR_4                0      0       0     200        0.0%
BITSFR_3             0      0       0     200        0.0%
SFR_3                0      0       0     200        0.0%
BITSFR_2             0      0       0     200        0.0%
SFR_2                0      0       0     200        0.0%
BITSFR_1             0      0       0     200        0.0%
SFR_1                0      0       0     200        0.0%
BITSFR               0      0       0     200        0.0%
SFR                  0      0       0     200        0.0%
STACK                0      0       0       2        0.0%
NULL                 0      0       0       0        0.0%
ABS                  0      0     15E      44        0.0%
DATA                 0      0     15E       3        0.0%
CODE                 0      0       0       0        0.0%


Microchip Technology PIC18 Macro Assembler V2.40 build 20220703182018 
Symbol Table                                                                                   Fri Feb 02 16:07:19 2024

                       _SPI1_ByteExchange 6BB2                              ___fldiv@aexp 054A  
                            ___fldiv@bexp 0549                              ___fldiv@sign 0542  
                                      _L1 2679                                        _L2 2675  
                                      _L3 2671                                        _L4 266D  
                                      _L5 2669                                        _L6 2665  
                                      l51 69C6                                        l60 6BD0  
                                      _P1 2661                                        l54 6C48  
                                      _P2 265D                                        l47 6C06  
                                      _P3 2659                                        _P4 2655  
                                      l57 6BBE                                        _P5 2651  
                                      l59 6BCC                        ?_SPI1_ByteExchange 0501  
                                      _bp 2689                                        _cp 263D  
                                     l232 68EE                                       l306 6C34  
                                     l411 652A                                       l333 6C18  
                                     l319 6C26                                       l408 65D6  
                                     l409 6528                                       l348 6BEC  
                                     l276 6AAE                                       l356 6B4A  
                                     l293 6C42                                       l701 680C  
                                     l705 6AE6                                       l394 6A28  
                                     l728 6708                                       l960 5654  
                                     l696 67C6                                       l961 561A  
                                     l959 5666                                       l976 5780  
                                     l968 5936                                       l985 5850  
                                     l986 583E                __end_of_DELAY_milliseconds 6B4C  
              ??_INT0_SetInterruptHandler 0504                                       _lg2 264D  
                                     _ovt 2641                       ??_SPI1_ByteExchange 0501  
                                     wreg 0004E8                              ___flmul@aexp 0522  
                            ___flmul@bexp 0523                              ___flmul@sign 051D  
                            ___flmul@temp 0528                              ___flmul@prod 0524  
                            ___fltol@exp1 0559                                      l1001 6A6E  
                                    l1100 647A                                      l1013 60FA  
                                    l1015 5F5A                                      l1024 5FA0  
                                    l1026 6018                                      l1018 5F1E  
                                    l1027 6006                                      l1052 5BF2  
                                    l1045 59FC                                      l1205 2BDC  
                                    l1062 5D22                                      l1054 5C6A  
                                    l1302 632E                                      l1055 5C58  
                                    l1049 5D60                                      l3001 59B4  
                                    l1322 5214                                      l1314 5476  
                                    l3011 59EC                                      l3003 59B6  
                                    l1172 4FB6                                      l1093 641E  
                                    l3101 5D46                                      l3021 5A3C  
                                    l3013 5A0C                                      l3005 59C6  
                                    l1325 52D8                                      l1086 6386  
                                    l1318 51B6                                      l3103 5D4C  
                                    l3031 5A8C                                      l3023 5A46  
                                    l3015 5A1C                                      l3007 59D6  
                                    l3111 6738                                      l1335 6B8E  
                                    l1327 53E0                                      l1167 26A0  
                                    l3201 6A9A                                      l1089 64E2  
                                    l3105 5D50                                      l3041 5ACE  
                                    l3033 5A98                                      l3025 5A5C  
                                    l3009 59E6                                      l3121 67A6  
                                    l3113 6748                                      l4001 4B6A  
                                    l1273 47E8                                      l1177 2960  
                                    l1169 26C0                                      l1274 4850  
                                    l3203 6A9C                                      l3051 5B30  
                                    l3043 5ADE                                      l3035 5AA6  
                                    l3027 5A68                                      l3019 5A30  
                                    l3123 67B4                                      l3115 6776  
                                    l3131 6B6E                                      l4011 4D22  
                                    l4003 4BC2                                      l1187 29F4  
                                    l3211 6B30                                      l1292 6B1A  
                                    l1284 4F62                                      l3205 6BD2  
                                    l3301 5F86                                      l3221 5D8E  
                                    l3213 5D62                                      l3061 5BD8  
                                    l3053 5B4C                                      l3045 5AF8  
                                    l3037 5AB2                                      l3029 5A80  
                                    l3125 6804                                      l3117 6786  
                                    l3109 670A                                      l3133 6B7E  
                                    l4021 4E92                                      l4013 4D9E  
                                    l4005 4C1A                                      l1197 2AB6  
                                    l3141 68F2                                      l3311 5FC2  
                                    l3303 5F90                                      l3231 5DC8  
                                    l3223 5D9E                                      l3215 5D6E  
                                    l3071 5C14                                      l3063 5BE2  
                                    l3055 5B76                                      l3047 5B08  
                                    l3039 5AC2                                      l3127 680A  
                                    l3119 6794                                      l4031 4F82  
                                    l4023 4EA2                                      l4015 4DF6  
                                    l4007 4C72                                      l3207 6B1C  
                                    l3151 69C4                                      l3143 6902  
                                    l4111 64E4                                      l3161 680E  
                                    l3137 6BEE                                      l4041 662E  
                                    l3321 6034                                      l3313 5FD0  
                                    l3305 5F9E                                      l3241 5DF4  
                                    l3233 5DCE                                      l3225 5DAE  
                                    l3217 5D7C                                      l3401 64B2  
                                    l3081 5C86                                      l3073 5C22  
                                    l3065 5BF0                                      l3057 5BAC  
                                    l3049 5B24                                      l4025 4EB2  
                                    l4017 4E2A                                      l4009 4CCA  
                                    l3209 6B20                                      l3145 6968  
                                    l4121 64F8                                      l4113 64E8  
                                    l3171 684C                                      l3163 6826  
                                    l3139 6C00                                      l4051 667C  
                                    l4043 6658                                      l4035 6602  
                                    l3331 60A0                                      l3323 6042  
                                    l3315 5FFE                                      l3307 5FB0  
                                    l3251 5E2E                                      l3243 5E04  
                                    l3235 5DD4                                      l3227 5DB0  
                                    l3219 5D7E                                      l3403 64C2  
                                    l3091 5CF0                                      l3083 5C94  
                                    l3075 5C50                                      l3067 5C02  
                                    l3059 5BBA                                      l3411 4FB8  
                                    l4027 4EE6                                      l4019 4E5E  
                                    l3155 6C44                                      l3147 696C  
                                    l4131 6516                                      l4123 64FA  
                                    l4115 64EC                                      l3181 688A  
                                    l3173 687E                                      l3165 6828  
                                    l4061 66A8                                      l4045 665A  
                                    l4037 661A                                      l3341 60EE  
                                    l3333 60BA                                      l3325 606C  
                                    l3309 5FBE                                      l3253 5E44  
                                    l3245 5E14                                      l3237 5DE2  
                                    l3229 5DB8                                      l3405 64D0  
                                    l3093 5D0A                                      l3085 5CBE  
                                    l3069 5C10                                      l3501 615C  
                                    l3413 4FB8                                      l4029 4F32  
                                    l3157 6BB4                                      l3149 6990  
                                    l4141 655E                                      l4133 652C  
                                    l4125 64FC                                      l4117 64F2  
                                    l3191 6898                                      l3183 688C  
                                    l3175 6880                                      l3167 6836  
                                    l4071 66D8                                      l4047 666A  
                                    l3343 60F0                                      l3335 60D6  
                                    l3319 6028                                      l3327 6070  
                                    l3271 5E98                                      l3255 5E54  
                                    l3263 5E74                                      l3247 5E16  
                                    l3239 5DE4                                      l3351 6A2A  
                                    l3407 64D2                                      l3095 5D26  
                                    l3079 5C7A                                      l3087 5CC2  
                                    l3511 61D8                                      l3503 6164  
                                    l3431 50D8                                      l3423 506A  
                                    l3415 4FC8                                      l3159 6BBA  
                                    l4151 65C8                                      l4143 65A4  
                                    l4135 6536                                      l4127 64FE  
                                    l4119 64F4                                      l3193 6A70  
                                    l3185 688E                                      l3177 6882  
                                    l3169 6838                                      l4073 66E8  
                                    l4057 6694                                      l4049 666E  
                                    l3337 60DA                                      l3329 608A  
                                    l3281 5EEA                                      l3273 5EB2  
                                    l3265 5E84                                      l3257 5E5C  
                                    l3249 5E1E                                      l3361 6AD6  
                                    l2801 54F8                                      l3353 6A3A  
                                    l3097 5D36                                      l3089 5CDC  
                                    l3521 6258                                      l3505 6180  
                                    l3513 61E4                                      l3441 516A  
                                    l3433 50E0                                      l3425 5088  
                                    l3417 4FD8                                      l4153 65CA  
                                    l4145 65A8                                      l4137 6538  
                                    l4129 6508                                      l3195 6A76  
                                    l3187 6890                                      l3179 6884  
                                    l4075 66F8                                      l4067 66BC  
                                    l4059 669E                                      l3339 60E8  
                                    l3291 5F46                                      l3283 5EFA  
                                    l3275 5EC2                                      l3267 5E84  
                                    l3259 5E60                                      l2811 552E  
                                    l2803 54FE                                      l3371 6396  
                                    l3099 5D44                                      l3531 62EA  
                                    l3523 628C                                      l3515 6200  
                                    l3507 61B4                                      l3451 5204  
                                    l3443 5174                                      l3427 50B6  
                                    l3419 500E                                      l3611 283A  
                                    l3603 27EC                                      l4155 65CC  
                                    l4139 653E                                      l4147 65AC  
                                    l3197 6A86                                      l3189 6892  
                                    l4069 66C8                                      l3293 5F48  
                                    l3285 5F0E                                      l3277 5ED2  
                                    l3357 6AB0                                      l2901 56F4  
                                    l2821 556A                                      l2813 553E  
                                    l2805 550C                                      l3381 63D4  
                                    l3373 63AC                                      l3365 6332  
                                    l3533 631E                                      l3525 6294  
                                    l3517 6234                                      l3509 61BC  
                                    l3461 52E8                                      l3453 522E  
                                    l3445 5180                                      l3429 50CA  
                                    l3437 5100                                      l3701 2E16  
                                    l3613 2856                                      l3605 27FC  
                                    l4157 65E4                                      l4149 65BE  
                                    l3199 6A88                                      l3295 5F58  
                                    l3287 5F1C                                      l3279 5EE2  
                                    l3359 6AC6                                      l2903 571A  
                                    l2911 5770                                      l2831 5588  
                                    l2823 5578                                      l2815 5540  
                                    l2807 550E                                      l3391 645C  
                                    l3383 6406                                      l3367 6342  
                                    l3527 62B0                                      l3519 623C  
                                    l3471 5360                                      l3463 52F2  
                                    l3455 524E                                      l3447 518E  
                                    l3439 5156                                      l3711 2E90  
                                    l3703 2E2C                                      l3615 2930  
                                    l3607 280A                                      l4159 65F6  
                                    l3553 6C08                                      l3297 5F6A  
                                    l3289 5F28                                      l2921 57C4  
                                    l2913 5796                                      l2905 574E  
                                    l2841 559C                                      l2833 558C  
                                    l2825 557C                                      l2809 551E  
                                    l2817 5548                                      l3393 646A  
                                    l3385 6408                                      l3377 63C0  
                                    l3369 6350                                      l3529 62B8  
                                    l3481 5456                                      l3473 5372  
                                    l3465 5308                                      l3457 5262  
                                    l3449 51F6                                      l3801 368A  
                                    l3721 2FAA                                      l3713 2EFC  
                                    l3705 2E3C                                      l3633 2A08  
                                    l3625 29AE                                      l3617 297C  
                                    l3641 2A54                                      l3609 2826  
                                    l2771 6C36                                      l3555 6C14  
                                    l3299 5F80                                      l2931 57EE  
                                    l2923 57D2                                      l2915 57A6  
                                    l2907 5750                                      l2851 55B0  
                                    l2843 55A0                                      l2835 5590  
                                    l2827 5580                                      l2819 5558  
                                    l3395 6488                                      l3387 6414  
                                    l3379 63C8                                      l3491 6B0A  
                                    l3483 5466                                      l3475 53A4  
                                    l3467 531E                                      l3459 52A0  
                                    l3811 3760                                      l3803 36A4  
                                    l3731 310E                                      l3723 3016  
                                    l3707 2E5E                                      l3643 2A70  
                                    l3635 2A16                                      l3627 29D0  
                                    l3619 2998                                      l3571 69EE  
                                    l3563 69D2                                      l2773 6C28  
                                    l2941 5820                                      l2933 57FE  
                                    l2925 57D4                                      l2909 5760  
                                    l2861 5602                                      l2853 55B4  
                                    l2845 55A4                                      l2837 5594  
                                    l2829 5584                                      l2781 5492  
                                    l3397 648A                                      l3389 6450  
                                    l3477 53B6                                      l3469 532E  
                                    l3901 411E                                      l3821 38DA  
                                    l3813 37C2                                      l3805 36B4  
                                    l3741 32B2                                      l3733 3142  
                                    l3709 2E82                                      l3717 2F68  
                                    l3661 2B68                                      l3653 2B1A  
                                    l3645 2A7E                                      l3637 2A3E  
                                    l3629 29DE                                      l3581 6A0C  
                                    l3573 69F0                                      l3565 69D8  
                                    l3557 69CA                                      l2775 6C1A  
                                    l2951 587A                                      l2943 5836  
                                    l2927 57E2                                      l2919 57BA  
                                    l2935 5800                                      l2871 5646  
                                    l2863 5612                                      l2847 55A8  
                                    l2839 5598                                      l2855 55B8  
                                    l2791 54C6                                      l2783 5494  
                                    l3399 648E                                      l3487 6AE8  
                                    l3495 60FC                                      l3479 5446  
                                    l3911 422C                                      l3903 4152  
                                    l3831 3A6E                                      l3823 390E  
                                    l3815 37F6                                      l3807 36FE  
                                    l3751 3330                                      l3743 32C2  
                                    l3735 319A                                      l3719 2F8C  
                                    l3727 3082                                      l3671 2BFA  
                                    l3663 2B8C                                      l3655 2B32  
                                    l3647 2ACA                                      l3591 275A  
                                    l3583 26E0                                      l3575 69FC  
                                    l3567 69DE                                      l2961 58F6  
                                    l2953 58B4                                      l2929 57EA  
                                    l2937 580E                                      l2873 5648  
                                    l2865 5628                                      l2857 55BC  
                                    l2849 55AC                                      l2785 54A4  
                                    l2793 54CE                                      l2777 5478  
                                    l3489 6B08                                      l3497 610C  
                                    l3921 4316                                      l3913 423C  
                                    l3905 41B4                                      l3841 3BBA  
                                    l3833 3AC6                                      l3825 3966  
                                    l3817 384E                                      l3809 3750  
                                    l3761 33DA                                      l3745 32D2  
                                    l3737 31CE                                      l3729 30B6  
                                    l3753 3368                                      l3681 2D0C  
                                    l3673 2C2E                                      l3665 2BAA  
                                    l3657 2B40                                      l3649 2AE2  
                                    l3585 2728                                      l3577 69FE  
                                    l3569 69E2                                      l2971 5916  
                                    l2963 58FA                                      l2947 5860  
                                    l2955 58B6                                      l2939 5812  
                                    l2891 56D0                                      l2883 5698  
                                    l2875 5652                                      l2867 5634  
                                    l2859 55E6                                      l2795 54DE  
                                    l2787 54B4                                      l2779 5484  
                                    l3499 6128                                      l3931 43C2  
                                    l3923 434A                                      l3915 4256  
                                    l3907 41E8                                      l3851 3C76  
                                    l3843 3BEE                                      l3835 3AFA  
                                    l3827 39BE                                      l3819 38A6  
                                    l3771 3482                                      l3763 33EA  
                                    l3755 3378                                      l3747 32EC  
                                    l3739 3202                                      l3691 2D6A  
                                    l3683 2D22                                      l3675 2C3E  
                                    l3667 2BC0                                      l3595 2770  
                                    l3579 6A08                                      l2973 5924  
                                    l2965 5908                                      l2957 58C6  
                                    l2949 586C                                      l2893 56D4  
                                    l2885 56A8                                      l2877 5674  
                                    l2869 5638                                      l2797 54E4  
                                    l2789 54C4                                      l2981 5944  
                                    l3941 44C0                                      l3925 437E  
                                    l3917 4266                                      l3861 3D3C  
                                    l3853 3C90                                      l3845 3C22  
                                    l3837 3B2E                                      l3829 3A16  
                                    l3781 3502                                      l3773 34A6  
                                    l3757 3394                                      l3765 33FA  
                                    l3909 421C                                      l3749 32FC  
                                    l3693 2D78                                      l3677 2C84  
                                    l3685 2D46                                      l3669 2BEC  
                                    l3597 2792                                      l3589 273E  
                                    l2975 5926                                      l2967 590E  
                                    l2959 58D6                                      l2895 56E2  
                                    l2887 56B6                                      l2879 5684  
                                    l2799 54F6                                      l2991 5984  
                                    l2983 5952                                      l3927 438E  
                                    l3919 42BE                                      l3871 3E40  
                                    l3863 3D70                                      l3855 3CA0  
                                    l3847 3C56                                      l3839 3B86  
                                    l3791 35A0                                      l3783 350E  
                                    l3775 34BA                                      l3767 3452  
                                    l3759 33C8                                      l3695 2D8E  
                                    l3679 2C8C                                      l3599 27B4  
                                    l2969 5910                                      l2897 56E4  
                                    l2889 56C4                                      l2993 598A  
                                    l2985 5954                                      l3953 45D2  
                                    l3961 46B0                                      l3945 452C  
                                    l3937 442E                                      l3929 439E  
                                    l3881 3F06                                      l3873 3E5A  
                                    l3865 3DEC                                      l3857 3CD4  
                                    l3849 3C66                                      l3793 3626  
                                    l3777 34DE                                      l3785 351E  
                                    l3769 346A                                      l3697 2D96  
                                    l3689 2D5A                                      l2899 56EE  
                                    l2995 599A                                      l2987 5964  
                                    l2979 5938                                      l3971 48C0  
                                    l3963 4712                                      l3955 45EE  
                                    l3947 4566                                      l3939 4446  
                                    l3891 40A0                                      l3883 3F82  
                                    l3875 3E6A                                      l3867 3E20  
                                    l3859 3D08                                      l3795 365A  
                                    l3787 352E                                      l3779 34F2  
                                    l2997 59A0                                      l2989 5974  
                                    l3981 4958                                      l3973 48D0  
                                    l3965 4722                                      l3957 4644  
                                    l3893 40D4                                      l3885 3FE4  
                                    l3877 3E9E                                      l3869 3E30  
                                    l3797 366A                                      l3789 353E  
                                    l2999 59A6                                      l3991 4A42  
                                    l3983 4972                                      l3967 4744  
                                    l3975 4904                                      l3895 40E4  
                                    l3887 400A                                      l3879 3ED2  
                                    l3799 367A                                      l3993 4A9A  
                                    l3985 4982                                      l3977 4938  
                                    l3969 4840                                      l3897 40F4  
                                    l3889 403E                                      l3995 4ACE  
                                    l3987 49B6                                      l3979 4948  
                                    l3899 410E                                      l3997 4B02  
                                    l3989 49EA                                      l3999 4B36  
                                    STR_1 269D                                      u2100 550C  
                                    u2101 5508                                      u2110 551E  
                                    u2111 551A                                      u2200 5666  
                                    u2120 552E                                      u3000 644C  
                                    u2201 5662                                      u2121 552A  
                                    u3001 6448                                      u2210 5674  
                                    u2130 556A                                      u3010 646A  
                                    u2211 5670                                      u2131 5566  
                                    u3011 6466                                      u2300 57D2  
                                    u2220 5684                                      u2140 5578  
                                    u2060 5492                                      u3020 647A  
                                    u2301 57CE                                      u2221 5680  
                                    u2141 5574                                      u2061 548E  
                                    u3021 6476                                      _LATA 0004BE  
                                    u2310 57E2                                      u2230 56B6  
                                    u2150 55E6                                      u2070 54A4  
                                    u3030 6488                                      u3110 5156  
                                    _LATB 0004BF                                      u2311 57DE  
                                    u2231 56B2                                      u2151 55E2  
                                    u2071 54A0                                      u3031 6484  
                                    u3111 5152                                      _LATC 0004C0  
                                    u2400 58C6                                      u2320 57FE  
                                    u2240 56C4                                      u2160 55FE  
                                    u2080 54B4                                      u3040 64C2  
                                    u3200 6128                                      u3120 518E  
                                    u4000 6516                                      _LATD 0004C1  
                                    u2401 58C2                                      u2321 57FA  
                                    u2241 56C0                                      u2161 55F8  
                                    u2081 54B0                                      u3041 64BE  
                                    u3201 6124                                      u3121 518A  
                                    u3105 5114                                      u4001 6512  
                                    _LATE 0004C2                                      u2410 58D6  
                                    u2330 580E                                      u2250 56E2  
                                    u2170 5600                                      u2090 54F6  
                                    u3050 64D0                                      u3210 6180  
                                    u3130 5204                                      u3106 511E  
                                    u4010 6528                                      _LATF 0004C3  
                                    u2411 58D2                                      u2331 580A  
                                    u2251 56DE                                      u2091 54F2  
                                    u3051 64CC                                      u3211 617C  
                                    u3131 5200                                      u3107 512E  
                                    u4011 6524                                      u2420 58F6  
                                    u2340 5820                                      u2260 571A  
                                    u2180 5628                                      u2500 59D6  
                                    u3220 61D8                                      u3140 52A0  
                                    u3060 500E                                      u3300 2728  
                                    u4020 65BE                                      u2421 58F2  
                                    u2341 581C                                      u2261 5716  
                                    u2181 5624                                      u2501 59D2  
                                    u3221 61D4                                      u3141 529C  
                                    u3061 500A                                      u3301 2724  
                                    u4021 65BA                                      u2430 5908  
                                    u2350 5836                                      u2270 5760  
                                    u2190 5646                                      u2510 5A0C  
                                    u3230 6200                                      u3150 5308  
                                    u3070 5088                                      u3310 275A  
                                    u4030 65E4                                      u2431 5904  
                                    u2351 5832                                      u2271 575C  
                                    u2191 5642                                      u2511 5A08  
                                    u3231 61FC                                      u3151 5304  
                                    u3071 5084                                      u3311 2756  
                                    u4031 65E0                                      u2440 5924  
                                    u2360 584C                                      u2280 5796  
                                    u2600 5C94                                      u2520 5A1C  
                                    u3240 6258                                      u3160 531E  
                                    u3080 50B6                                      u3400 2930  
                                    u3320 2792                                      u4040 65F6  
                                    u2441 5920                                      u2361 5848  
                                    u2281 5792                                      u2601 5C90  
                                    u2521 5A18                                      u3241 6254  
                                    u3161 531A                                      u3081 50B2  
                                    u3401 292C                                      u3321 278E  
                                    u4041 65F2                                      u2370 5860  
                                    u2290 57A6                                      u2610 5CDC  
                                    u2530 5B96                                      u2450 5952  
                                    u3250 62B0                                      u3170 5360  
                                    u3090 50D8                                      u3410 297C  
                                    u3330 27B4                                      u2371 585C  
                                    u2291 57A2                                      u2611 5CD8  
                                    u2451 594E                                      u3251 62AC  
                                    u3171 535C                                      u3091 50D4  
                                    u3411 2978                                      u3331 27B0  
                                    u2380 587A                                      u2620 5D0A  
                                    u2540 5BF0                                      u2460 5964  
                                    u3180 53A4                                      u3500 2B40  
                                    u3420 2998                                      u3340 280A  
                                    u2700 6BCC                                      u2381 5876  
                                    u2621 5D06                                      u2541 5BEC  
                                    u2461 5960                                      u3181 53A0  
                                    u3501 2B3C                                      u3421 2994  
                                    u3341 2806                                      u2701 6BC8  
                                    u2390 58B4                                      u2630 5D44  
                                    u2550 5C10                                      u2470 5974  
                                    u3510 2BAA                                      u3430 29D0  
                                    u3350 2826                                      u2710 6B4A  
                                    u2391 58B0                                      u2631 5D40  
                                    u2551 5C0C                                      u2535 5B8C  
                                    u2471 5970                                      u3511 2BA6  
                                    u3431 29CC                                      u3351 2822  
                                    u2711 6B46                                      u2800 5EFA  
                                    u2720 5D7C                                      u2560 5C22  
                                    u2480 59B4                                      u2640 6738  
                                    u3600 2E2C                                      u3520 2BC0  
                                    u3440 29DE                                      u3360 2856  
                                    u2801 5EF6                                      u2721 5D78  
                                    u2561 5C1E                                      u2481 59B0  
                                    u3265 62CA                                      u2641 6734  
                                    u3601 2E28                                      u3521 2BBC  
                                    u3441 29DA                                      u3361 2852  
                                    u4057 6B26                               main@counter 0596  
                                    u2810 5F1C                                      u2730 5D8E  
                                    u2570 5C50                                      u2490 59C6  
                                    u2650 6776                                      u3610 2E5E  
                                    u3530 2BDC                                      u3450 2A16  
                                    u3290 6A28                                      u2811 5F18  
                                    u2731 5D8A                                      u2571 5C4C  
                                    u2491 59C2                                      u2651 6772  
                                    u3195 5426                                      u3611 2E5A  
                                    u3531 2BD8                                      u3451 2A12  
                                    u3291 6A24                                      u2900 6028  
                                    u2820 5F46                                      u2740 5D9E  
                                    u2580 5C66                                      u2660 6794  
                                    u3620 2E82                                      u3540 2BFA  
                                    u3460 2A70                                      u2901 6024  
                                    u2821 5F42                                      u2741 5D9A  
                                    u2581 5C62                                      u2661 6790  
                                    u3621 2E7E                                      u3541 2BF6  
                                    u3461 2A6C                                      u2910 6042  
                                    u2830 5F6A                                      u2750 5DE2  
                                    u2590 5C7A                                      u2670 67B4  
                                    u3710 43C2                                      u3630 2E90  
                                    u3550 2C3E                                      u3470 2A7E  
                                    u3390 2906                                      u2911 603E  
                                    u2831 5F66                                      u2751 5DDE  
                                    u2591 5C76                                      u2671 67B0  
                                    u3711 43BE                                      u3631 2E8C  
                                    u3551 2C3A                                      u3471 2A7A  
                                    u3375 286A                                      u2920 608A  
                                    u2840 5F80                                      u2760 5DF4  
                                    u2680 6804                                      u3720 4446  
                                    u3640 2F8C                                      u3560 2C84  
                                    u3480 2AE2                                      u3376 2874  
                                    u2921 6086                                      u2841 5F7C  
                                    u2761 5DF0                                      u2681 6800  
                                    u3721 4442                                      u3705 3710  
                                    u3641 2F88                                      u3561 2C80  
                                    u3481 2ADE                                      u3385 28B4  
                                    u3377 2884                                      u2930 60BA  
                                    u2850 5F9E                                      u2770 5E04  
                                    u3730 44C0                                      u3650 2FAA  
                                    u3570 2D22                                      u3490 2B32  
                                    u3386 28BE                                      u2690 6902  
                                    u2931 60B6                                      u2851 5F9A  
                                    u2771 5E00                                      u3731 44BC  
                                    u3651 2FA6                                      u3571 2D1E  
                                    u3491 2B2E                                      u3395 28FC  
                                    u3387 28CE                                      u2691 68FE  
                                    u3900 6690                                      u2940 60E8  
                                    u2860 5FBE                                      u2780 5E44  
                                    u3740 4566                                      u3660 3394  
                                    u3580 2D78                                      u3901 668C  
                                    u2941 60E4                                      u2861 5FBA  
                                    u2781 5E40                                      u3805 47B4  
                                    u3741 4562                                      u3661 3390  
                                    u3581 2D74                                      u3910 66B8  
                                    u2870 5FD0                                      u2790 5E84  
                                    u2950 6AC6                                      u3830 48C0  
                                    u3806 47BE                                      u3750 45EE  
                                    u3590 2D8E                                      u3911 66B4  
                                    u2871 5FCC                                      u2791 5E80  
                                    u2951 6AC2                                      u3831 48BC  
                                    u3815 47FC                                      u3807 47CE  
                                    u3751 45EA                                      u3591 2D8A  
                                    u3920 66D8                                      u2880 5FFE  
                                    u2960 6342                                      u3816 4806  
                                    u3760 4644                                      u3680 34A6  
                                    u3921 66D4                                      u2881 5FFA  
                                    u2961 633E                                      u3825 4886  
                                    u3817 4816                                      u3761 4640  
                                    u3681 34A2                                      u3930 66E8  
                                    u2890 6014                                      u2970 6350  
                                    u3826 4890                                      u3690 34DE  
                                    u3931 66E4                                      u2891 6010  
                                    u2971 634C                                      u3827 48A0  
                                    u3691 34DA                                      u3675 340E  
                                    u2980 63AC                                      u3860 4F32  
                                    u3780 4744                                      u3676 3418  
                                    u2981 63A8                                      u3861 4F2E  
                                    u3845 4EC4                                      u3781 4740  
                                    u3677 3428                                      u3870 661A  
                                    u2990 6402                                      u3871 6616  
                                    u2991 63FE                                      u3855 4EFA  
                                    u3775 46DE                                      u3880 664E  
                                    u3856 4F04                                      u3776 46E8  
                                    u3857 4F14                                      u3777 46F8  
                                    u3890 667C                                      u3891 6678  
                                    u3795 475C                                      u3796 4766  
                                    u3885 6644                                      u3797 4776  
                                    _SPI1 2601                                      _WPUA 000401  
                                    _WPUB 000409                                      _WPUC 000411  
                                    _WPUD 000419                                      _WPUE 000421  
                                    _WPUF 000429                                      _cp_h 2699  
                                    _cp_l 2695                                      _dp_h 2624  
                                    _dp_l 261C                                      _main 64E4  
                                    _nanf 6B6E                                      _huge 2681  
                                    _powf 26A0                                      _tiny 267D  
               ?_INT2_SetInterruptHandler 0501                                      prodh 0004F4  
                                    prodl 0004F3                                      start 001A  
                         ___fldiv@new_exp 0543                 __end_of_SPI1_ByteExchange 6BD2  
                            ___param_bank 000000                               ?_SPI1_Close 0501  
                           ___fltol@sign1 0558                           __end_of___fladd 5938  
                                   ?_main 0501                                     ?_nanf 0501  
                         __end_of___fldiv 60FC                           __end_of___flneg 6AE8  
                         __end_of___flmul 5D62                                     ?_powf 0584  
                         __end_of___flsub 6A70                           __end_of___fltol 670A  
                                   _IOCAF 000407                                     _IOCBF 00040F  
                                   _IOCCF 000417                                     _IOCAN 000406  
                                   _IOCEF 000427                                     _IOCAP 000405  
                                   _IOCBN 00040E                                     _IOCBP 00040D  
                                   _IOCCN 000416                                     _IOCCP 000415  
                                   _IOCEN 000426                                     _IOCEP 000425  
                                   i2l235 6C4A                                     i2l283 6BB0  
                                   _OSCEN 0000B3                                     _TRISA 0004C6  
                                   _TRISB 0004C7                                     _TRISC 0004C8  
                                   _TRISD 0004C9                                     _TRISE 0004CA  
                                   _TRISF 0004CB                                     _lg2_h 2649  
                                   _lg2_l 2645                                     _fabsf 6AE8  
                 __end_of_PIN_MANAGER_IOC 6C4C                                     _errno 055D  
                                   _ivln2 2639                           __end_of_ivln2_h 2695  
                         __end_of_ivln2_l 2639                                     _two24 2685  
                         __end_of_scalbnf 6330                                     _sqrtf 4FB8  
                                   nanf@s 0501                                     nanf@u 0505  
                _INT1_SetInterruptHandler 6C28                                     tablat 0004F5  
                                   powf@i 062C                                     powf@j 06AC  
                                   powf@k 06A0                                     powf@n 067C  
                                   powf@r 064C                                     powf@s 065C  
                                   powf@t 06B0                                     powf@u 0674  
                                   powf@v 0678                                     powf@w 0644  
                                   powf@x 0584                                     powf@y 0588  
                                   powf@z 06B4                                     status 0004D8  
                      fp__SPI1_Initialize 0000                              __end_of_SPI1 261C  
                         __initialization 6B4C                              __end_of_cp_h 269D  
                            __end_of_cp_l 2699                              __end_of_dp_h 262C  
                            __end_of_dp_l 2624                              __end_of_main 6602  
                            __end_of_nanf 6B90                              __end_of_huge 2685  
                            __end_of_powf 4FB8                              __end_of_tiny 2681  
             ?_INTERRUPT_InterruptManager 0501                                    ??_main 055D  
                                  ??_nanf 0505                                    ??_powf 054B  
                           __activetblptr 000003                                    ?_fabsf 0501  
                                  _ACTCON 0000AC                                    _ANSELA 000400  
                                  _ANSELB 000408                                    _ANSELC 000410  
                                  _ANSELD 000418                                    _ANSELE 000420  
                                  _ANSELF 000428                                    ?_sqrtf 053E  
                                  _RB1I2C 000289                                    _RB2I2C 000288  
                                  _RC3I2C 000287                                    _RC4I2C 000286  
                                  _RC3PPS 000214                                    _RC5PPS 000216  
                                  _ODCONA 000402                                    _ODCONB 00040A  
                                  _ODCONC 000412                                    _ODCOND 00041A  
                                  _ODCONE 000422                                    _ODCONF 00042A  
                                  i2l2681 6B9E                                    i2l2683 6BAC  
                                  i2l2679 6B90                                    _INLVLA 000404  
                                  _INLVLB 00040C                                    _INLVLC 000414  
                                  _INLVLD 00041C                                    _INLVLE 000424  
                                  _INLVLF 00042C                                    _OSCFRQ 0000B1  
                        __end_of___xxtofl 64E4                         __end_of_SPI1_Open 69C8  
                                  ___flge 670A                                 ??___fladd 0509  
                               ??___fldiv 053A                                 ??___flneg 0505  
                               ??___flmul 0519                                 ??___flsub 0532  
                               ??___fltol 0554                                    fabsf@u 0505  
                                  fabsf@x 0501                                    isa$std 000001  
                        __end_of_sendData 6A2A                         ?_CLOCK_Initialize 0501  
            _INT2_DefaultInterruptHandler 000000                                 ??_scalbnf 0530  
                      ??_CLOCK_Initialize 0501                              __mediumconst 0000  
                                  powf@s2 068C                                    powf@t1 0680  
                                  powf@t2 061C                                    tblptrh 0004F7  
                                  tblptrl 0004F6                                    powf@y1 0628  
                                  tblptru 0004F8                                    powf@ax 0670  
                                  powf@is 0690                                    powf@hx 0660  
                                  powf@hy 0684                                    powf@ix 06A8  
                                  powf@iy 0698                                    powf@sn 0688  
                                  sqrtf@i 0564                                    sqrtf@m 0578  
INT2_SetInterruptHandler@InterruptHandler 0501  INT1_SetInterruptHandler@InterruptHandler 0501  
INT0_SetInterruptHandler@InterruptHandler 0501                                    sqrtf@q 056C  
                                  sqrtf@r 057C                                    sqrtf@s 0560  
                                  sqrtf@t 0570                                    sqrtf@x 053E  
                                  sqrtf@z 0574                          ?_PIN_MANAGER_IOC 0501  
                        _tiny@sqrtf$F1299 2631                                ___flge@ff1 0532  
                              ___flge@ff2 0536                              ___xxtofl@arg 050B  
                            ___xxtofl@exp 050A                         _SYSTEM_Initialize 6C08  
                            ___xxtofl@val 0501                                __accesstop 0560  
                 __end_of__initialization 6B68                             sendData@index 055B  
                              ___flneg@f1 0501                            _SPI1_ByteWrite 000000  
                      ?_SYSTEM_Initialize 0501                             ___rparam_used 000001  
                              ___fltol@f1 058C                            __pcstackCOMRAM 0501  
                   SPI1_ByteExchange@data 0501                             __end_of_lg2_h 264D  
                           __end_of_lg2_l 2649                       ??_SYSTEM_Initialize 0504  
                           __end_of_fabsf 6B1C                             __end_of_ivln2 263D  
                       ??_SPI1_Initialize 0501                             __end_of_two24 2689  
                           __end_of_sqrtf 5478                                __end_of_L1 267D  
                              __end_of_L2 2679                                __end_of_L3 2675  
                              __end_of_L4 2671                                __end_of_L5 266D  
                              __end_of_L6 2669                                __end_of_P1 2665  
                              __end_of_P2 2661                                __end_of_P3 265D  
                              __end_of_P4 2659                                __end_of_P5 2655  
                              __end_of_bp 2691                                __end_of_cp 2641  
                      _spi1_configuration 262C          __end_of_INT2_SetInterruptHandler 6C28  
                                 ??_fabsf 0505                 __end_of_SYSTEM_Initialize 6C1A  
                                 ??_sqrtf 0542                                __pbssBANK5 05A0  
                      _DELAY_milliseconds 6B1C                     _INT0_InterruptHandler 059D  
                                 IVTBASEH 00045E                                   IVTBASEL 00045D  
                                 IVTBASEU 00045F                       ?_DELAY_milliseconds 0501  
                                 ?___flge 0532                              ??_SPI1_Close 0501  
              ??_INT1_SetInterruptHandler 0504                                 ?___xxtofl 0501  
                    ??_DELAY_milliseconds 0503                                   _OSCCON1 0000AD  
                                 _OSCCON3 0000AF                                   _SPI1CLK 00008C  
                                 _SPI1RXB 000080                                   _SPI1TXB 000081  
                                 _OSCTUNE 0000B0                                   _SLRCONA 000403  
                                 _SLRCONB 00040B                                   _SLRCONC 000413  
                                 _SLRCOND 00041B                                   _SLRCONE 000423  
                                 _SLRCONF 00042B                 ?_INT0_SetInterruptHandler 0501  
                               ?_sendData 0590                        __end_of_SPI1_Close 6C4A  
                                 __Hparam 0000                                   __Lparam 0000  
                                 ___fladd 5478                                   ___fldiv 5D62  
                                 ___flneg 6AB0                                   ___flmul 5938  
                                 ___flsub 6A2A                                   ___fltol 6602  
                            __psmallconst 2600                                   __pcinit 6B4C  
                                 __ramtop 2600                                   __ptext0 64E4  
                                 __ptext1 69C8                                   __ptext2 68F0  
                                 __ptext3 6C44                                   __ptext4 6BB2  
                                 __ptext5 6B1C                                   __ptext6 26A0  
                                 __ptext7 4FB8                                   __ptext8 6B6E  
                                 __ptext9 670A                                   _ivln2_h 2691  
                                 _ivln2_l 2635                                ??___xxtofl 0505  
                                 _scalbnf 60FC                      fp__SPI1_ByteExchange 0000  
                ??_PIN_MANAGER_Initialize 0501                      end_of_initialization 6B68  
                _INT2_SetInterruptHandler 6C1A                                 _PIR10bits 0004B8  
                              ??_sendData 055A                                   powf@p_h 069C  
                                 powf@p_l 0664                                   powf@s_h 066C  
                                 powf@t_h 0668                                   powf@s_l 0630  
                                 powf@t_l 0634                                   powf@z_h 0620  
                                 powf@z_l 0624                           _SPI1_BufferRead 000000  
                               _SPI1TCNTL 000082                  __end_of_tiny@sqrtf$F1299 2635  
                               _SPI1_Open 68F0                                   sqrtf@ix 0580  
                   _INT1_InterruptHandler 059A                                 _PORTBbits 0004CF  
                     _SPI1_BufferExchange 000000                               ___fladd@grs 0510  
                           ___xxtofl@sign 0509                                 _TRISBbits 0004C7  
                               _TRISCbits 0004C8                               ___fldiv@grs 0545  
                             ___fldiv@rem 053E                               ___flmul@grs 051E  
                         _SPI1_Initialize 6BEE              __end_of_INTERRUPT_Initialize 6AB0  
                          __end_of___flge 680E              _INT0_DefaultInterruptHandler 000000  
                              ?_SPI1_Open 0501                       start_initialization 6B4C  
                           fp__SPI1_Close 0000                               __end_of_lg2 2651  
                             __end_of_ovt 2645                                ivt0x8_base 0008  
                                ??___flge 053A                                 ___fladd@a 0505  
                               ___fladd@b 0501                              sendData@data 055A  
                           _SPI1_ByteRead 000000                                 ___fldiv@a 0536  
                               ___fldiv@b 0532                              sendData@time 0590  
                               ___flmul@a 0515                                 ___flmul@b 0511  
                             __pbssCOMRAM 055D                                 ___flsub@a 052E  
                               ___flsub@b 052A          __end_of_INT0_SetInterruptHandler 6C44  
                           __pcstackBANK5 0560                             __pcstackBANK6 0600  
                 __end_of_SPI1_Initialize 6C08                     _INT2_InterruptHandler 0597  
                               __pnvBANK5 0597                                 _main$1538 0591  
                  _PIN_MANAGER_Initialize 680E                                  ?___fladd 0501  
                                ?___fldiv 0532                                  ?___flneg 0501  
                                ?___flmul 0511                                  ?___flsub 052A  
                                ?___fltol 058C                               ??_SPI1_Open 0501  
            ??_INTERRUPT_InterruptManager 0501                                 fabsf@F465 05A0  
                             __smallconst 2600                ??_INT2_SetInterruptHandler 0504  
                                ?_scalbnf 052A                      _INTERRUPT_Initialize 6A70  
                               _powf$1540 0654                                 _powf$1541 0648  
                               _powf$1542 0694                                 _powf$1550 060C  
                        _CLOCK_Initialize 6BD2                                 _powf$1543 0638  
                               _powf$1551 0610                                 _powf$1552 0614  
                               _powf$1544 0600                                 _powf$1553 0618  
                               _powf$1545 0604                                 _powf$1546 0658  
                               _powf$1539 06A4                                 _powf$1547 063C  
                               _powf$1548 0640                                 _powf$1549 0608  
                                _LATDbits 0004C1                 ?_INT1_SetInterruptHandler 0501  
                                _PIE0bits 00049E                              _SPI1CON0bits 000084  
                                i2u191_40 6B9E                                  i2u191_41 6B9A  
                                _PIR0bits 0004AE                                  i2u192_40 6BAC  
                                i2u192_41 6BA8                                  _PIR1bits 0004AF  
                                _SPI1BAUD 000089                                  _PIR3bits 0004B1  
                                _SPI1CON0 000084                                  _SPI1CON1 000085  
                                _SPI1CON2 000086                                  _PIR6bits 0004B4  
          DELAY_milliseconds@milliseconds 0501                                powf@yisint 0650  
                       ??_PIN_MANAGER_IOC 0501                           main@buttonState 0595  
                        ?_SPI1_Initialize 0501                               _INTCON0bits 0004D6  
                   ?_INTERRUPT_Initialize 0501                  _INT0_SetInterruptHandler 6C36  
                            fp__SPI1_Open 0000                                  __Hrparam 0000  
                                __Lrparam 0000                                  ___xxtofl 6330  
                                __pivt0x8 0008                                  __ptext10 60FC  
                                __ptext11 5938                                  __ptext20 6BEE  
                                __ptext12 6AE8                                  __ptext21 680E  
                                __ptext13 6330                                  __ptext22 6A70  
                                __ptext14 6A2A                                  __ptext23 6C1A  
                                __ptext15 5478                                  __ptext24 6C28  
                                __ptext16 6AB0                                  __ptext25 6C36  
                                __ptext17 5D62                                  __ptext26 6BD2  
                                __ptext18 6602                                  __ptext27 6B90  
                                __ptext19 6C08                                  __ptext28 6C4A  
                                __ptext29 0000                                  _sendData 69C8  
                    powf@__xc8_float_word 06B8                                  isa$xinst 000000  
      __end_of_INTERRUPT_InterruptManager 6BB2                _INTERRUPT_InterruptManager 6B90  
            _INT1_DefaultInterruptHandler 000000                    ??_INTERRUPT_Initialize 0504  
                                scalbnf@n 052E                                  scalbnf@u 0534  
                                scalbnf@x 052A                                  scalbnf@y 0538  
                                intlevel2 0000                   ?_PIN_MANAGER_Initialize 0501  
                              _SPI1SCKPPS 00026A                                _SPI1SDIPPS 00026B  
                        _SPI1_BufferWrite 000000                  __end_of_CLOCK_Initialize 6BEE  
                              _SPI1_Close 6C44          __end_of_INT1_SetInterruptHandler 6C36  
                           ___fladd@signs 050D            __end_of_PIN_MANAGER_Initialize 68F0  
                   sqrtf@__xc8_float_word 0568                              ___fladd@aexp 050E  
                            ___fladd@bexp 050F                           _PIN_MANAGER_IOC 6C4A  
                 SPI1_Open@spiConfigIndex 0502                __end_of_spi1_configuration 2631  
